ccopy_reg
_reconstructor
p1
(cscriptcraft.core.Game
Game
p2
c__builtin__
object
p3
NtRp4
(dp5
S'turn_number'
p6
I0
sS'units_by_IDs'
p7
(dp8
I2
g1
(cscriptcraft.core.Unit
Unit
p9
g3
NtRp10
(dp11
S'outbox'
p12
(lp13
sS'_minerals'
p14
I3
sS'outbox_queue'
p15
(lp16
sS'player'
p17
g1
(cscriptcraft.core.Player
Player
p18
g3
NtRp19
(dp20
S'name'
p21
S'Bob'
p22
sS'color'
p23
(I255
I0
I0
tp24
sS'start_position'
p25
(I10
I10
tp26
sS'units'
p27
(lp28
g10
ag1
(g9
g3
NtRp29
(dp30
g12
(lp31
sg14
I0
sg15
(lp32
sg17
g19
sS'program'
p33
g1
(cscriptcraft.core.Program
Program
p34
c__builtin__
tuple
p35
(g1
(cscriptcraft.core.Language
Language
p36
g35
(S'py'
p37
S'python'
p38
S'.py'
p39
g39
S'cp src.py bin.py'
p40
S'python bin.py'
p41
ttRp42
S'#print "GATHER 7 10"\nid = map(int, raw_input().split(\' \'))[1]\nprint "GATHER %d %d" % (7, 12-id+3)\n'
p43
ttRp44
sS'command'
p45
g1
(cscriptcraft.core.cmds
ComplexGatherCommand
p46
g35
((I7
I12
tp47
ttRp48
sS'maybe_last_compilation_status'
p49
NsS'maybe_run_status'
p50
g1
(cscriptcraft.core.RunStatus
RunStatus
p51
g35
(S'5 3 1 0 10 11 15\n0\n0 0 0 0 0 0 0 0 0 0 0 0 0 0 0 0 0 0 0 0 0 0 0 0 0 0 0 0 0 0 0 0 0 0 0 0 0 0 0 0 0 0 0 0 0\n0 0 0 0 0 0 0 0 0 0 0 0 0 0 0 0 0 0 0 0 0 0 0 0 0 0 0 0 0 0 0 0 0 0 0 0 0 0 0 0 0 0 0 0 0\n0 0 0 0 0 0 0 0 0 0 0 0 0 0 0 0 0 0 0 0 0 0 0 0 0 0 0 0 0 0 0 0 0 0 0 0 0 0 0 0 0 0 0 0 0\n0 0 0 0 0 0 0 0 0 0 0 0 0 0 0 0 0 0 0 0 0 0 0 0 0 0 0 0 0 0 0 0 0 0 0 0 0 0 0 0 0 0 0 0 0\n0 0 0 0 0 0 0 0 0 0 0 0 2 31 0 0 0 0 0 0 0 0 0 0 0 0 0 0 0 0 0 0 0 0 0 0 0 0 0 0 0 0 0 0 0\n0 0 0 0 0 0 0 0 0 0 0 0 2 24 0 5 6 1 0 0 0 0 0 0 0 0 0 0 0 0 0 0 0 0 0 0 0 0 0 0 0 0 0 0 0\n0 0 0 0 0 0 0 0 0 0 0 0 2 22 0 5 4 1 0 0 0 4 2 1 0 0 0 0 0 0 0 0 0 0 0 0 0 0 0 0 0 0 0 0 0\n0 0 0 0 0 0 0 0 0 0 0 0 2 19 0 0 0 0 0 0 0 5 3 1 0 0 0 0 0 0 0 0 0 0 0 0 0 0 0 0 0 0 0 0 0\n0 0 0 0 0 0 0 0 0 0 0 0 2 19 0 0 0 0 6 22 1 0 0 0 0 0 0 0 0 0 0 0 0 0 0 0 0 0 0 0 0 0 0 0 0\n0 0 0 0 0 0 0 0 0 0 0 0 0 0 0 5 5 1 0 0 0 0 0 0 0 0 0 0 0 0 0 0 0 0 0 0 0 0 0 0 0 0 0 0 0\n0 0 0 0 0 0 0 0 0 0 0 0 0 0 0 0 0 0 0 0 0 0 0 0 0 0 0 0 0 0 0 0 0 0 0 0 0 0 0 0 0 0 0 0 0\n0 0 0 0 0 0 0 0 0 0 0 0 0 0 0 0 0 0 6 7 1 0 0 0 0 0 0 0 0 0 0 0 0 0 0 0 0 0 0 0 0 0 0 0 0\n0 0 0 0 0 0 0 0 0 0 0 0 0 0 0 6 15 1 6 18 1 6 20 1 0 0 0 0 0 0 0 0 0 0 0 0 0 0 0 0 0 0 0 0 0\n0 0 0 0 0 0 0 0 0 0 0 0 0 0 0 0 0 0 0 0 0 0 0 0 0 0 0 0 0 0 0 0 0 0 0 0 0 0 0 0 0 0 0 0 0\n0 0 0 0 0 0 0 0 0 0 0 0 0 0 0 0 0 0 0 0 0 0 0 0 0 0 0 0 0 0 0 0 0 0 0 0 0 0 0 0 0 0 0 0 0\n'
p52
S'GATHER 7 12\n'
p53
S''
ttRp54
sS'action'
p55
g1
(cscriptcraft.core.actions
MoveAction
p56
g35
((I10
I11
tp57
(I10
I12
tp58
ttRp59
sS'position'
p60
g58
sS'type'
p61
g1
(cscriptcraft.core.UnitType
UnitType
p62
g35
(I0
I7
I1
I3
I00
I01
S'<Enum: destroy>'
p63
(lp64
S'5'
aS'miner'
p65
aS'm'
attRp66
sS'ID'
p67
I3
sS'inbox'
p68
(lp69
sbag1
(g9
g3
NtRp70
(dp71
g12
(lp72
sg14
I1
sg15
(lp73
sg17
g19
sg33
g1
(g34
g35
(g42
S'#print "GATHER 7 10"\nid = map(int, raw_input().split(\' \'))[1]\nprint "GATHER %d %d" % (7, 12-id+3)\n'
p74
ttRp75
sg45
g1
(g46
g35
((I7
I11
tp76
ttRp77
sg49
Nsg50
g1
(g51
g35
(S'5 4 1 0 8 10 15\n1\n0 0 0 0 0 0 0 0 0 0 0 0 0 0 0 0 0 0 0 0 0 0 0 0 0 0 0 0 0 0 0 0 0 0 0 0 0 0 0 0 0 0 0 0 0\n0 0 0 0 0 0 0 0 0 0 0 0 0 0 0 0 0 0 0 0 0 0 0 0 0 0 0 0 0 0 0 0 0 0 0 0 0 0 0 0 0 0 0 0 0\n0 0 0 0 0 0 0 0 0 0 0 0 0 0 0 0 0 0 0 0 0 0 0 0 0 0 0 0 0 0 0 0 0 0 0 0 0 0 0 0 0 0 0 0 0\n0 0 0 0 0 0 0 0 0 0 0 0 0 0 0 0 0 0 0 0 0 0 0 0 0 0 0 0 0 0 0 0 0 0 0 0 0 0 0 0 0 0 0 0 0\n0 0 0 0 0 0 0 0 0 0 0 0 0 0 0 0 0 0 0 0 0 0 0 0 0 0 0 0 0 0 0 0 0 0 0 0 0 0 0 0 0 0 0 0 0\n0 0 0 0 0 0 0 0 0 0 0 0 0 0 0 0 0 0 2 31 0 0 0 0 0 0 0 0 0 0 0 0 0 0 0 0 0 0 0 0 0 0 0 0 0\n0 0 0 0 0 0 0 0 0 0 0 0 0 0 0 0 0 0 2 24 0 5 6 1 0 0 0 0 0 0 0 0 0 0 0 0 0 0 0 0 0 0 0 0 0\n0 0 0 0 0 0 0 0 0 0 0 0 0 0 0 0 0 0 2 22 0 5 4 1 0 0 0 4 2 1 0 0 0 0 0 0 0 0 0 0 0 0 0 0 0\n0 0 0 0 0 0 0 0 0 0 0 0 0 0 0 0 0 0 2 19 0 0 0 0 0 0 0 5 3 1 0 0 0 0 0 0 0 0 0 0 0 0 0 0 0\n0 0 0 0 0 0 0 0 0 0 0 0 0 0 0 0 0 0 2 19 0 0 0 0 6 22 1 0 0 0 0 0 0 0 0 0 0 0 0 0 0 0 0 0 0\n0 0 0 0 0 0 0 0 0 0 0 0 0 0 0 0 0 0 0 0 0 5 5 1 0 0 0 0 0 0 0 0 0 0 0 0 0 0 0 0 0 0 0 0 0\n0 0 0 0 0 0 0 0 0 0 0 0 0 0 0 0 0 0 0 0 0 0 0 0 0 0 0 0 0 0 0 0 0 0 0 0 0 0 0 0 0 0 0 0 0\n0 0 0 0 0 0 0 0 0 0 0 0 0 0 0 0 0 0 0 0 0 0 0 0 6 7 1 0 0 0 0 0 0 0 0 0 0 0 0 0 0 0 0 0 0\n0 0 0 0 0 0 0 0 0 0 0 0 0 0 0 0 0 0 0 0 0 6 15 1 6 18 1 6 20 1 0 0 0 0 0 0 0 0 0 0 0 0 0 0 0\n0 0 0 0 0 0 0 0 0 0 0 0 0 0 0 0 0 0 0 0 0 0 0 0 0 0 0 0 0 0 0 0 0 0 0 0 0 0 0 0 0 0 0 0 0\n'
p78
S'GATHER 7 11\n'
p79
S''
ttRp80
sg55
g1
(g56
g35
((I8
I10
tp81
(I9
I10
tp82
ttRp83
sg60
g82
sg61
g66
sg67
I4
sg68
(lp84
sbag1
(g9
g3
NtRp85
(dp86
g12
(lp87
sg14
I0
sg15
(lp88
sg17
g19
sg33
g1
(g34
g35
(g42
S'#print "GATHER 7 10"\nid = map(int, raw_input().split(\' \'))[1]\nprint "GATHER %d %d" % (7, 12-id+3)\n'
p89
ttRp90
sg45
g1
(g46
g35
((I7
I10
tp91
ttRp92
sg49
Nsg50
g1
(g51
g35
(S'5 5 1 0 8 13 15\n0\n0 0 0 0 0 0 0 0 0 0 0 0 0 0 0 0 0 0 0 0 0 0 0 0 0 0 0 0 0 0 0 0 0 0 0 0 0 0 0 0 0 0 0 0 0\n0 0 0 0 0 0 0 0 0 0 0 0 0 0 0 0 0 0 0 0 0 0 0 0 0 0 0 0 0 0 0 0 0 0 0 0 0 0 0 0 0 0 0 0 0\n0 0 0 0 0 0 0 0 0 0 0 0 0 0 0 0 0 0 2 31 0 0 0 0 0 0 0 0 0 0 0 0 0 0 0 0 0 0 0 0 0 0 0 0 0\n0 0 0 0 0 0 0 0 0 0 0 0 0 0 0 0 0 0 2 24 0 5 6 1 0 0 0 0 0 0 0 0 0 0 0 0 0 0 0 0 0 0 0 0 0\n0 0 0 0 0 0 0 0 0 0 0 0 0 0 0 0 0 0 2 22 0 5 4 1 0 0 0 4 2 1 0 0 0 0 0 0 0 0 0 0 0 0 0 0 0\n0 0 0 0 0 0 0 0 0 0 0 0 0 0 0 0 0 0 2 19 0 0 0 0 0 0 0 5 3 1 0 0 0 0 0 0 0 0 0 0 0 0 0 0 0\n0 0 0 0 0 0 0 0 0 0 0 0 0 0 0 0 0 0 2 19 0 0 0 0 6 22 1 0 0 0 0 0 0 0 0 0 0 0 0 0 0 0 0 0 0\n0 0 0 0 0 0 0 0 0 0 0 0 0 0 0 0 0 0 0 0 0 5 5 1 0 0 0 0 0 0 0 0 0 0 0 0 0 0 0 0 0 0 0 0 0\n0 0 0 0 0 0 0 0 0 0 0 0 0 0 0 0 0 0 0 0 0 0 0 0 0 0 0 0 0 0 0 0 0 0 0 0 0 0 0 0 0 0 0 0 0\n0 0 0 0 0 0 0 0 0 0 0 0 0 0 0 0 0 0 0 0 0 0 0 0 6 7 1 0 0 0 0 0 0 0 0 0 0 0 0 0 0 0 0 0 0\n0 0 0 0 0 0 0 0 0 0 0 0 0 0 0 0 0 0 0 0 0 6 15 1 6 18 1 6 20 1 0 0 0 0 0 0 0 0 0 0 0 0 0 0 0\n0 0 0 0 0 0 0 0 0 0 0 0 0 0 0 0 0 0 0 0 0 0 0 0 0 0 0 0 0 0 0 0 0 0 0 0 0 0 0 0 0 0 0 0 0\n0 0 0 0 0 0 0 0 0 0 0 0 0 0 0 0 0 0 0 0 0 0 0 0 0 0 0 0 0 0 0 0 0 0 0 0 0 0 0 0 0 0 0 0 0\n0 0 0 0 0 0 0 0 0 0 0 0 0 0 0 0 0 0 0 0 0 0 0 0 0 0 0 0 0 0 0 0 0 0 0 0 0 0 0 0 0 0 0 0 0\n0 0 0 0 0 0 0 0 0 0 0 0 0 0 0 0 0 0 0 0 0 6 17 8 6 14 8 0 0 0 0 0 0 0 0 0 0 0 0 0 0 0 0 0 0\n'
p93
S'GATHER 7 10\n'
p94
S''
ttRp95
sg55
g1
(g56
g35
((I8
I13
tp96
(I7
I13
tp97
ttRp98
sg60
g97
sg61
g66
sg67
I5
sg68
(lp99
sbag1
(g9
g3
NtRp100
(dp101
g12
(lp102
sg14
I1
sg15
(lp103
sg17
g19
sg33
g1
(g34
g35
(g42
S'#print "GATHER 7 10"\nid = map(int, raw_input().split(\' \'))[1]\nprint "GATHER %d %d" % (7, 12-id+3)\n'
p104
ttRp105
sg45
g1
(g46
g35
((I7
I9
tp106
ttRp107
sg49
Nsg50
g1
(g51
g35
(S'5 6 1 0 8 9 15\n0\n0 0 0 0 0 0 0 0 0 0 0 0 0 0 0 0 0 0 0 0 0 0 0 0 0 0 0 0 0 0 0 0 0 0 0 0 0 0 0 0 0 0 0 0 0\n0 0 0 0 0 0 0 0 0 0 0 0 0 0 0 0 0 0 0 0 0 0 0 0 0 0 0 0 0 0 0 0 0 0 0 0 0 0 0 0 0 0 0 0 0\n0 0 0 0 0 0 0 0 0 0 0 0 0 0 0 0 0 0 0 0 0 0 0 0 0 0 0 0 0 0 0 0 0 0 0 0 0 0 0 0 0 0 0 0 0\n0 0 0 0 0 0 0 0 0 0 0 0 0 0 0 0 0 0 0 0 0 0 0 0 0 0 0 0 0 0 0 0 0 0 0 0 0 0 0 0 0 0 0 0 0\n0 0 0 0 0 0 0 0 0 0 0 0 0 0 0 0 0 0 0 0 0 0 0 0 0 0 0 0 0 0 0 0 0 0 0 0 0 0 0 0 0 0 0 0 0\n0 0 0 0 0 0 0 0 0 0 0 0 0 0 0 0 0 0 0 0 0 0 0 0 0 0 0 0 0 0 0 0 0 0 0 0 0 0 0 0 0 0 0 0 0\n0 0 0 0 0 0 0 0 0 0 0 0 0 0 0 0 0 0 2 31 0 0 0 0 0 0 0 0 0 0 0 0 0 0 0 0 0 0 0 0 0 0 0 0 0\n0 0 0 0 0 0 0 0 0 0 0 0 0 0 0 0 0 0 2 24 0 5 6 1 0 0 0 0 0 0 0 0 0 0 0 0 0 0 0 0 0 0 0 0 0\n0 0 0 0 0 0 0 0 0 0 0 0 0 0 0 0 0 0 2 22 0 5 4 1 0 0 0 4 2 1 0 0 0 0 0 0 0 0 0 0 0 0 0 0 0\n0 0 0 0 0 0 0 0 0 0 0 0 0 0 0 0 0 0 2 19 0 0 0 0 0 0 0 5 3 1 0 0 0 0 0 0 0 0 0 0 0 0 0 0 0\n0 0 0 0 0 0 0 0 0 0 0 0 0 0 0 0 0 0 2 19 0 0 0 0 6 22 1 0 0 0 0 0 0 0 0 0 0 0 0 0 0 0 0 0 0\n0 0 0 0 0 0 0 0 0 0 0 0 0 0 0 0 0 0 0 0 0 5 5 1 0 0 0 0 0 0 0 0 0 0 0 0 0 0 0 0 0 0 0 0 0\n0 0 0 0 0 0 0 0 0 0 0 0 0 0 0 0 0 0 0 0 0 0 0 0 0 0 0 0 0 0 0 0 0 0 0 0 0 0 0 0 0 0 0 0 0\n0 0 0 0 0 0 0 0 0 0 0 0 0 0 0 0 0 0 0 0 0 0 0 0 6 7 1 0 0 0 0 0 0 0 0 0 0 0 0 0 0 0 0 0 0\n0 0 0 0 0 0 0 0 0 0 0 0 0 0 0 0 0 0 0 0 0 6 15 1 6 18 1 6 20 1 0 0 0 0 0 0 0 0 0 0 0 0 0 0 0\n'
p108
S'GATHER 7 9\n'
p109
S''
ttRp110
sg55
g1
(cscriptcraft.core.actions
GatherAction
p111
g35
(g106
ttRp112
sg60
(I8
I9
tp113
sg61
g66
sg67
I6
sg68
(lp114
sbag1
(g9
g3
NtRp115
(dp116
g12
(lp117
sg14
I0
sg15
(lp118
sg17
g19
sg33
g1
(g34
g35
(g42
S'print "FIRE 9 18"\n'
p119
ttRp120
sg45
g1
(cscriptcraft.core.cmds
FireCommand
p121
g35
((I9
I18
tp122
ttRp123
sg49
g1
(cscriptcraft.core.CompilationStatus
CompilationStatus
p124
g35
(S''
S''
ttRp125
sg50
g1
(g51
g35
(S'6 7 1 0 9 15 15\n3\n0 0 0 0 0 0 0 0 0 0 0 0 0 0 0 2 31 0 0 0 0 0 0 0 0 0 0 0 0 0 0 0 0 0 0 0 0 0 0 0 0 0 0 0 0\n0 0 0 0 0 0 0 0 0 0 0 0 0 0 0 2 24 0 5 6 1 0 0 0 0 0 0 0 0 0 0 0 0 0 0 0 0 0 0 0 0 0 0 0 0\n0 0 0 0 0 0 0 0 0 0 0 0 0 0 0 2 22 0 5 4 1 0 0 0 4 2 1 0 0 0 0 0 0 0 0 0 0 0 0 0 0 0 0 0 0\n0 0 0 0 0 0 0 0 0 0 0 0 0 0 0 2 19 0 0 0 0 0 0 0 5 3 1 0 0 0 0 0 0 0 0 0 0 0 0 0 0 0 0 0 0\n0 0 0 0 0 0 0 0 0 0 0 0 0 0 0 2 19 0 0 0 0 6 22 1 0 0 0 0 0 0 0 0 0 0 0 0 0 0 0 0 0 0 0 0 0\n0 0 0 0 0 0 0 0 0 0 0 0 0 0 0 0 0 0 5 5 1 0 0 0 0 0 0 0 0 0 0 0 0 0 0 0 0 0 0 0 0 0 0 0 0\n0 0 0 0 0 0 0 0 0 0 0 0 0 0 0 0 0 0 0 0 0 0 0 0 0 0 0 0 0 0 0 0 0 0 0 0 0 0 0 0 0 0 0 0 0\n0 0 0 0 0 0 0 0 0 0 0 0 0 0 0 0 0 0 0 0 0 6 7 1 0 0 0 0 0 0 0 0 0 0 0 0 0 0 0 0 0 0 0 0 0\n0 0 0 0 0 0 0 0 0 0 0 0 0 0 0 0 0 0 6 15 1 6 18 1 6 20 1 0 0 0 0 0 0 0 0 0 0 0 0 0 0 0 0 0 0\n0 0 0 0 0 0 0 0 0 0 0 0 0 0 0 0 0 0 0 0 0 0 0 0 0 0 0 0 0 0 0 0 0 0 0 0 0 0 0 0 0 0 0 0 0\n0 0 0 0 0 0 0 0 0 0 0 0 0 0 0 0 0 0 0 0 0 0 0 0 0 0 0 0 0 0 0 0 0 0 0 0 0 0 0 0 0 0 0 0 0\n0 0 0 0 0 0 0 0 0 0 0 0 0 0 0 0 0 0 0 0 0 0 0 0 0 0 0 0 0 0 0 0 0 0 0 0 0 0 0 0 0 0 0 0 0\n0 0 0 0 0 0 0 0 0 0 0 0 0 0 0 0 0 0 6 17 8 6 14 8 0 0 0 0 0 0 0 0 0 0 0 0 0 0 0 0 0 0 0 0 0\n0 0 0 0 0 0 0 0 0 0 0 0 0 0 0 0 0 0 0 0 0 6 16 8 3 0 0 0 0 0 0 0 0 0 0 0 0 0 0 0 0 0 0 0 0\n0 0 0 0 0 0 0 0 0 0 0 0 0 0 0 0 0 0 0 0 0 0 0 0 0 0 0 3 0 0 0 0 0 0 0 0 0 0 0 0 0 0 0 0 0\n'
p126
S'FIRE 9 18\n'
p127
S''
ttRp128
sg55
g1
(cscriptcraft.core.actions
FireAction
p129
g35
(g122
ttRp130
sg60
(I9
I15
tp131
sg61
g1
(g62
g35
(I3
I7
I0
I10
I00
I01
g63
(lp132
S'6'
aS'tank'
p133
aS't'
attRp134
sg67
I7
sg68
(lp135
sbag1
(g9
g3
NtRp136
(dp137
g12
(lp138
sg14
I0
sg15
(lp139
sg17
g19
sg33
g1
(g34
g35
(g42
S'print "FIRE 8 19"\n'
p140
ttRp141
sg45
g1
(g121
g35
((I8
I19
tp142
ttRp143
sg49
g1
(g124
g35
(S''
S''
ttRp144
sg50
g1
(g51
g35
(S'6 15 1 0 8 16 15\n3\n0 0 0 0 0 0 0 0 0 0 0 0 0 0 0 0 0 0 2 24 0 5 6 1 0 0 0 0 0 0 0 0 0 0 0 0 0 0 0 0 0 0 0 0 0\n0 0 0 0 0 0 0 0 0 0 0 0 0 0 0 0 0 0 2 22 0 5 4 1 0 0 0 4 2 1 0 0 0 0 0 0 0 0 0 0 0 0 0 0 0\n0 0 0 0 0 0 0 0 0 0 0 0 0 0 0 0 0 0 2 19 0 0 0 0 0 0 0 5 3 1 0 0 0 0 0 0 0 0 0 0 0 0 0 0 0\n0 0 0 0 0 0 0 0 0 0 0 0 0 0 0 0 0 0 2 19 0 0 0 0 6 22 1 0 0 0 0 0 0 0 0 0 0 0 0 0 0 0 0 0 0\n0 0 0 0 0 0 0 0 0 0 0 0 0 0 0 0 0 0 0 0 0 5 5 1 0 0 0 0 0 0 0 0 0 0 0 0 0 0 0 0 0 0 0 0 0\n0 0 0 0 0 0 0 0 0 0 0 0 0 0 0 0 0 0 0 0 0 0 0 0 0 0 0 0 0 0 0 0 0 0 0 0 0 0 0 0 0 0 0 0 0\n0 0 0 0 0 0 0 0 0 0 0 0 0 0 0 0 0 0 0 0 0 0 0 0 6 7 1 0 0 0 0 0 0 0 0 0 0 0 0 0 0 0 0 0 0\n0 0 0 0 0 0 0 0 0 0 0 0 0 0 0 0 0 0 0 0 0 6 15 1 6 18 1 6 20 1 0 0 0 0 0 0 0 0 0 0 0 0 0 0 0\n0 0 0 0 0 0 0 0 0 0 0 0 0 0 0 0 0 0 0 0 0 0 0 0 0 0 0 0 0 0 0 0 0 0 0 0 0 0 0 0 0 0 0 0 0\n0 0 0 0 0 0 0 0 0 0 0 0 0 0 0 0 0 0 0 0 0 0 0 0 0 0 0 0 0 0 0 0 0 0 0 0 0 0 0 0 0 0 0 0 0\n0 0 0 0 0 0 0 0 0 0 0 0 0 0 0 0 0 0 0 0 0 0 0 0 0 0 0 0 0 0 0 0 0 0 0 0 0 0 0 0 0 0 0 0 0\n0 0 0 0 0 0 0 0 0 0 0 0 0 0 0 0 0 0 0 0 0 6 17 8 6 14 8 0 0 0 0 0 0 0 0 0 0 0 0 0 0 0 0 0 0\n0 0 0 0 0 0 0 0 0 0 0 0 0 0 0 0 0 0 0 0 0 0 0 0 6 16 8 3 0 0 0 0 0 0 0 0 0 0 0 0 0 0 0 0 0\n0 0 0 0 0 0 0 0 0 0 0 0 0 0 0 0 0 0 0 0 0 0 0 0 0 0 0 0 0 0 3 0 0 0 0 0 0 0 0 0 0 0 0 0 0\n0 0 0 0 0 0 0 0 0 0 0 0 0 0 0 0 0 0 0 0 0 0 0 0 0 0 0 3 0 0 3 0 0 3 0 0 0 0 0 0 0 0 0 0 0\n'
p145
S'FIRE 8 19\n'
p146
S''
ttRp147
sg55
g1
(g129
g35
(g142
ttRp148
sg60
(I8
I16
tp149
sg61
g134
sg67
I15
sg68
(lp150
sbag1
(g9
g3
NtRp151
(dp152
g12
(lp153
sg14
I0
sg15
(lp154
sg17
g19
sg33
g1
(g34
g35
(g42
S'print "FIRE 9 19"\n'
p155
ttRp156
sg45
g1
(g121
g35
((I9
I19
tp157
ttRp158
sg49
g1
(g124
g35
(S''
S''
ttRp159
sg50
g1
(g51
g35
(S'6 18 1 0 9 16 15\n3\n0 0 0 0 0 0 0 0 0 0 0 0 0 0 0 2 24 0 5 6 1 0 0 0 0 0 0 0 0 0 0 0 0 0 0 0 0 0 0 0 0 0 0 0 0\n0 0 0 0 0 0 0 0 0 0 0 0 0 0 0 2 22 0 5 4 1 0 0 0 4 2 1 0 0 0 0 0 0 0 0 0 0 0 0 0 0 0 0 0 0\n0 0 0 0 0 0 0 0 0 0 0 0 0 0 0 2 19 0 0 0 0 0 0 0 5 3 1 0 0 0 0 0 0 0 0 0 0 0 0 0 0 0 0 0 0\n0 0 0 0 0 0 0 0 0 0 0 0 0 0 0 2 19 0 0 0 0 6 22 1 0 0 0 0 0 0 0 0 0 0 0 0 0 0 0 0 0 0 0 0 0\n0 0 0 0 0 0 0 0 0 0 0 0 0 0 0 0 0 0 5 5 1 0 0 0 0 0 0 0 0 0 0 0 0 0 0 0 0 0 0 0 0 0 0 0 0\n0 0 0 0 0 0 0 0 0 0 0 0 0 0 0 0 0 0 0 0 0 0 0 0 0 0 0 0 0 0 0 0 0 0 0 0 0 0 0 0 0 0 0 0 0\n0 0 0 0 0 0 0 0 0 0 0 0 0 0 0 0 0 0 0 0 0 6 7 1 0 0 0 0 0 0 0 0 0 0 0 0 0 0 0 0 0 0 0 0 0\n0 0 0 0 0 0 0 0 0 0 0 0 0 0 0 0 0 0 6 15 1 6 18 1 6 20 1 0 0 0 0 0 0 0 0 0 0 0 0 0 0 0 0 0 0\n0 0 0 0 0 0 0 0 0 0 0 0 0 0 0 0 0 0 0 0 0 0 0 0 0 0 0 0 0 0 0 0 0 0 0 0 0 0 0 0 0 0 0 0 0\n0 0 0 0 0 0 0 0 0 0 0 0 0 0 0 0 0 0 0 0 0 0 0 0 0 0 0 0 0 0 0 0 0 0 0 0 0 0 0 0 0 0 0 0 0\n0 0 0 0 0 0 0 0 0 0 0 0 0 0 0 0 0 0 0 0 0 0 0 0 0 0 0 0 0 0 0 0 0 0 0 0 0 0 0 0 0 0 0 0 0\n0 0 0 0 0 0 0 0 0 0 0 0 0 0 0 0 0 0 6 17 8 6 14 8 0 0 0 0 0 0 0 0 0 0 0 0 0 0 0 0 0 0 0 0 0\n0 0 0 0 0 0 0 0 0 0 0 0 0 0 0 0 0 0 0 0 0 6 16 8 3 0 0 0 0 0 0 0 0 0 0 0 0 0 0 0 0 0 0 0 0\n0 0 0 0 0 0 0 0 0 0 0 0 0 0 0 0 0 0 0 0 0 0 0 0 0 0 0 3 0 0 0 0 0 0 0 0 0 0 0 0 0 0 0 0 0\n0 0 0 0 0 0 0 0 0 0 0 0 0 0 0 0 0 0 0 0 0 0 0 0 3 0 0 3 0 0 3 0 0 0 0 0 0 0 0 0 0 0 0 0 0\n'
p160
S'FIRE 9 19\n'
p161
S''
ttRp162
sg55
g1
(g129
g35
(g157
ttRp163
sg60
(I9
I16
tp164
sg61
g134
sg67
I18
sg68
(lp165
sbag1
(g9
g3
NtRp166
(dp167
g12
(lp168
sg14
I0
sg15
(lp169
sg17
g19
sg33
g1
(g34
g35
(g42
S'print "FIRE 10 19"\n'
p170
ttRp171
sg45
g1
(g121
g35
((I10
I19
tp172
ttRp173
sg49
g1
(g124
g35
(S''
S''
ttRp174
sg50
g1
(g51
g35
(S'6 20 1 0 10 16 15\n3\n0 0 0 0 0 0 0 0 0 0 0 0 2 24 0 5 6 1 0 0 0 0 0 0 0 0 0 0 0 0 0 0 0 0 0 0 0 0 0 0 0 0 0 0 0\n0 0 0 0 0 0 0 0 0 0 0 0 2 22 0 5 4 1 0 0 0 4 2 1 0 0 0 0 0 0 0 0 0 0 0 0 0 0 0 0 0 0 0 0 0\n0 0 0 0 0 0 0 0 0 0 0 0 2 19 0 0 0 0 0 0 0 5 3 1 0 0 0 0 0 0 0 0 0 0 0 0 0 0 0 0 0 0 0 0 0\n0 0 0 0 0 0 0 0 0 0 0 0 2 19 0 0 0 0 6 22 1 0 0 0 0 0 0 0 0 0 0 0 0 0 0 0 0 0 0 0 0 0 0 0 0\n0 0 0 0 0 0 0 0 0 0 0 0 0 0 0 5 5 1 0 0 0 0 0 0 0 0 0 0 0 0 0 0 0 0 0 0 0 0 0 0 0 0 0 0 0\n0 0 0 0 0 0 0 0 0 0 0 0 0 0 0 0 0 0 0 0 0 0 0 0 0 0 0 0 0 0 0 0 0 0 0 0 0 0 0 0 0 0 0 0 0\n0 0 0 0 0 0 0 0 0 0 0 0 0 0 0 0 0 0 6 7 1 0 0 0 0 0 0 0 0 0 0 0 0 0 0 0 0 0 0 0 0 0 0 0 0\n0 0 0 0 0 0 0 0 0 0 0 0 0 0 0 6 15 1 6 18 1 6 20 1 0 0 0 0 0 0 0 0 0 0 0 0 0 0 0 0 0 0 0 0 0\n0 0 0 0 0 0 0 0 0 0 0 0 0 0 0 0 0 0 0 0 0 0 0 0 0 0 0 0 0 0 0 0 0 0 0 0 0 0 0 0 0 0 0 0 0\n0 0 0 0 0 0 0 0 0 0 0 0 0 0 0 0 0 0 0 0 0 0 0 0 0 0 0 0 0 0 0 0 0 0 0 0 0 0 0 0 0 0 0 0 0\n0 0 0 0 0 0 0 0 0 0 0 0 0 0 0 0 0 0 0 0 0 0 0 0 0 0 0 0 0 0 0 0 0 0 0 0 0 0 0 0 0 0 0 0 0\n0 0 0 0 0 0 0 0 0 0 0 0 0 0 0 6 17 8 6 14 8 0 0 0 0 0 0 0 0 0 0 0 0 0 0 0 0 0 0 0 0 0 0 0 0\n0 0 0 0 0 0 0 0 0 0 0 0 0 0 0 0 0 0 6 16 8 3 0 0 0 0 0 0 0 0 0 0 0 0 0 0 0 0 0 0 0 0 0 0 0\n0 0 0 0 0 0 0 0 0 0 0 0 0 0 0 0 0 0 0 0 0 0 0 0 3 0 0 0 0 0 0 0 0 0 0 0 0 0 0 0 0 0 0 0 0\n0 0 0 0 0 0 0 0 0 0 0 0 0 0 0 0 0 0 0 0 0 3 0 0 3 0 0 3 0 0 0 0 0 0 0 0 0 0 0 0 0 0 0 0 0\n'
p175
S'FIRE 10 19\n'
p176
S''
ttRp177
sg55
g1
(g129
g35
(g172
ttRp178
sg60
(I10
I16
tp179
sg61
g134
sg67
I20
sg68
(lp180
sbag1
(g9
g3
NtRp181
(dp182
g12
(lp183
sg14
I0
sg15
(lp184
sg17
g19
sg33
g1
(g34
g35
(g42
S'print "MOVE 9 16"\n'
p185
ttRp186
sg45
g1
(cscriptcraft.core.cmds
ComplexMoveCommand
p187
g35
((I9
I16
tp188
ttRp189
sg49
Nsg50
g1
(g51
g35
(S'6 22 1 0 9 12 15\n3\n0 0 0 0 0 0 0 0 0 0 0 0 0 0 0 0 0 0 0 0 0 0 0 0 0 0 0 0 0 0 0 0 0 0 0 0 0 0 0 0 0 0 0 0 0\n0 0 0 0 0 0 0 0 0 0 0 0 0 0 0 0 0 0 0 0 0 0 0 0 0 0 0 0 0 0 0 0 0 0 0 0 0 0 0 0 0 0 0 0 0\n0 0 0 0 0 0 0 0 0 0 0 0 0 0 0 0 0 0 0 0 0 0 0 0 0 0 0 0 0 0 0 0 0 0 0 0 0 0 0 0 0 0 0 0 0\n0 0 0 0 0 0 0 0 0 0 0 0 0 0 0 2 31 0 0 0 0 0 0 0 0 0 0 0 0 0 0 0 0 0 0 0 0 0 0 0 0 0 0 0 0\n0 0 0 0 0 0 0 0 0 0 0 0 0 0 0 2 24 0 5 6 1 0 0 0 0 0 0 0 0 0 0 0 0 0 0 0 0 0 0 0 0 0 0 0 0\n0 0 0 0 0 0 0 0 0 0 0 0 0 0 0 2 22 0 5 4 1 0 0 0 4 2 1 0 0 0 0 0 0 0 0 0 0 0 0 0 0 0 0 0 0\n0 0 0 0 0 0 0 0 0 0 0 0 0 0 0 2 19 0 0 0 0 0 0 0 5 3 1 0 0 0 0 0 0 0 0 0 0 0 0 0 0 0 0 0 0\n0 0 0 0 0 0 0 0 0 0 0 0 0 0 0 2 19 0 0 0 0 6 22 1 0 0 0 0 0 0 0 0 0 0 0 0 0 0 0 0 0 0 0 0 0\n0 0 0 0 0 0 0 0 0 0 0 0 0 0 0 0 0 0 5 5 1 0 0 0 0 0 0 0 0 0 0 0 0 0 0 0 0 0 0 0 0 0 0 0 0\n0 0 0 0 0 0 0 0 0 0 0 0 0 0 0 0 0 0 0 0 0 0 0 0 0 0 0 0 0 0 0 0 0 0 0 0 0 0 0 0 0 0 0 0 0\n0 0 0 0 0 0 0 0 0 0 0 0 0 0 0 0 0 0 0 0 0 6 7 1 0 0 0 0 0 0 0 0 0 0 0 0 0 0 0 0 0 0 0 0 0\n0 0 0 0 0 0 0 0 0 0 0 0 0 0 0 0 0 0 6 15 1 6 18 1 6 20 1 0 0 0 0 0 0 0 0 0 0 0 0 0 0 0 0 0 0\n0 0 0 0 0 0 0 0 0 0 0 0 0 0 0 0 0 0 0 0 0 0 0 0 0 0 0 0 0 0 0 0 0 0 0 0 0 0 0 0 0 0 0 0 0\n0 0 0 0 0 0 0 0 0 0 0 0 0 0 0 0 0 0 0 0 0 0 0 0 0 0 0 0 0 0 0 0 0 0 0 0 0 0 0 0 0 0 0 0 0\n0 0 0 0 0 0 0 0 0 0 0 0 0 0 0 0 0 0 0 0 0 0 0 0 0 0 0 0 0 0 0 0 0 0 0 0 0 0 0 0 0 0 0 0 0\n'
p190
S'MOVE 9 16\n'
p191
S''
ttRp192
sg55
g1
(g56
g35
((I9
I12
tp193
(I9
I13
tp194
ttRp195
sg60
g194
sg61
g134
sg67
I22
sg68
(lp196
sbasg67
I1
sS'maybe_base'
p197
g10
sbsg33
g1
(g34
g35
(g42
S'print "BUILD TANK"\n'
p198
ttRp199
sg45
g1
(cscriptcraft.core.cmds
BuildCommand
p200
g35
(S'tank'
p201
ttRp202
sg49
Nsg50
g1
(g51
g35
(S'4 2 1 0 10 10 33\n3\n1 0 0 1 0 0 1 0 0 1 0 0 1 0 0 1 0 0 1 0 0 1 0 0 1 0 0 1 0 0 1 0 0 1 0 0 1 0 0 1 0 0 1 0 0 1 0 0 1 0 0 1 0 0 1 0 0 1 0 0 1 0 0 1 0 0 1 0 0 1 0 0 1 0 0 1 0 0 1 0 0 1 0 0 1 0 0 1 0 0 1 0 0 1 0 0 1 0 0\n1 0 0 1 0 0 1 0 0 1 0 0 1 0 0 1 0 0 1 0 0 1 0 0 1 0 0 1 0 0 1 0 0 1 0 0 1 0 0 1 0 0 1 0 0 1 0 0 1 0 0 1 0 0 1 0 0 1 0 0 1 0 0 1 0 0 1 0 0 1 0 0 1 0 0 1 0 0 1 0 0 1 0 0 1 0 0 1 0 0 1 0 0 1 0 0 1 0 0\n1 0 0 1 0 0 1 0 0 1 0 0 1 0 0 1 0 0 1 0 0 1 0 0 1 0 0 1 0 0 1 0 0 1 0 0 1 0 0 1 0 0 1 0 0 1 0 0 1 0 0 1 0 0 1 0 0 1 0 0 1 0 0 1 0 0 1 0 0 1 0 0 1 0 0 1 0 0 1 0 0 1 0 0 1 0 0 1 0 0 1 0 0 1 0 0 1 0 0\n1 0 0 1 0 0 1 0 0 1 0 0 1 0 0 1 0 0 1 0 0 1 0 0 1 0 0 1 0 0 1 0 0 1 0 0 1 0 0 1 0 0 1 0 0 1 0 0 1 0 0 1 0 0 1 0 0 1 0 0 1 0 0 1 0 0 1 0 0 1 0 0 1 0 0 1 0 0 1 0 0 1 0 0 1 0 0 1 0 0 1 0 0 1 0 0 1 0 0\n1 0 0 1 0 0 1 0 0 1 0 0 1 0 0 1 0 0 1 0 0 1 0 0 1 0 0 1 0 0 1 0 0 1 0 0 1 0 0 1 0 0 1 0 0 1 0 0 1 0 0 1 0 0 1 0 0 1 0 0 1 0 0 1 0 0 1 0 0 1 0 0 1 0 0 1 0 0 1 0 0 1 0 0 1 0 0 1 0 0 1 0 0 1 0 0 1 0 0\n1 0 0 1 0 0 1 0 0 1 0 0 1 0 0 1 0 0 1 0 0 1 0 0 1 0 0 1 0 0 1 0 0 1 0 0 1 0 0 1 0 0 1 0 0 1 0 0 1 0 0 1 0 0 1 0 0 1 0 0 1 0 0 1 0 0 1 0 0 1 0 0 1 0 0 1 0 0 1 0 0 1 0 0 1 0 0 1 0 0 1 0 0 1 0 0 1 0 0\n1 0 0 1 0 0 1 0 0 1 0 0 1 0 0 1 0 0 0 0 0 0 0 0 0 0 0 0 0 0 0 0 0 0 0 0 0 0 0 0 0 0 0 0 0 0 0 0 0 0 0 0 0 0 0 0 0 0 0 0 0 0 0 0 0 0 0 0 0 0 0 0 0 0 0 0 0 0 0 0 0 0 0 0 0 0 0 0 0 0 0 0 0 0 0 0 0 0 0\n1 0 0 1 0 0 1 0 0 1 0 0 1 0 0 1 0 0 0 0 0 0 0 0 0 0 0 0 0 0 0 0 0 0 0 0 0 0 0 0 0 0 0 0 0 0 0 0 0 0 0 0 0 0 0 0 0 0 0 0 0 0 0 0 0 0 0 0 0 0 0 0 0 0 0 0 0 0 0 0 0 0 0 0 0 0 0 0 0 0 0 0 0 0 0 0 0 0 0\n1 0 0 1 0 0 1 0 0 1 0 0 1 0 0 1 0 0 0 0 0 0 0 0 0 0 0 0 0 0 0 0 0 0 0 0 0 0 0 0 0 0 0 0 0 0 0 0 0 0 0 0 0 0 0 0 0 0 0 0 0 0 0 0 0 0 0 0 0 0 0 0 0 0 0 0 0 0 0 0 0 0 0 0 0 0 0 0 0 0 0 0 0 0 0 0 0 0 0\n1 0 0 1 0 0 1 0 0 1 0 0 1 0 0 1 0 0 0 0 0 0 0 0 0 0 0 0 0 0 0 0 0 0 0 0 0 0 0 0 0 0 0 0 0 0 0 0 0 0 0 0 0 0 0 0 0 0 0 0 0 0 0 0 0 0 0 0 0 0 0 0 0 0 0 0 0 0 0 0 0 0 0 0 0 0 0 0 0 0 0 0 0 0 0 0 0 0 0\n1 0 0 1 0 0 1 0 0 1 0 0 1 0 0 1 0 0 0 0 0 0 0 0 0 0 0 0 0 0 0 0 0 0 0 0 0 0 0 0 0 0 0 0 0 0 0 0 0 0 0 0 0 0 0 0 0 0 0 0 0 0 0 0 0 0 0 0 0 0 0 0 0 0 0 0 0 0 0 0 0 0 0 0 0 0 0 0 0 0 0 0 0 0 0 0 0 0 0\n1 0 0 1 0 0 1 0 0 1 0 0 1 0 0 1 0 0 0 0 0 0 0 0 0 0 0 0 0 0 0 0 0 0 0 0 0 0 0 0 0 0 0 0 0 0 0 0 0 0 0 0 0 0 0 0 0 0 0 0 0 0 0 0 0 0 0 0 0 0 0 0 0 0 0 0 0 0 0 0 0 0 0 0 0 0 0 0 0 0 0 0 0 0 0 0 0 0 0\n1 0 0 1 0 0 1 0 0 1 0 0 1 0 0 1 0 0 0 0 0 0 0 0 0 0 0 0 0 0 0 0 0 0 0 0 0 0 0 0 0 0 0 0 0 0 0 0 0 0 0 0 0 0 0 0 0 0 0 0 0 0 0 0 0 0 0 0 0 0 0 0 0 0 0 0 0 0 0 0 0 0 0 0 0 0 0 0 0 0 0 0 0 0 0 0 0 0 0\n1 0 0 1 0 0 1 0 0 1 0 0 1 0 0 1 0 0 0 0 0 0 0 0 0 0 0 0 0 0 0 0 0 0 0 0 0 0 0 0 0 0 0 0 0 0 0 0 0 0 0 0 0 0 0 0 0 0 0 0 0 0 0 0 0 0 0 0 0 0 0 0 0 0 0 0 0 0 0 0 0 0 0 0 0 0 0 0 0 0 0 0 0 0 0 0 0 0 0\n1 0 0 1 0 0 1 0 0 1 0 0 1 0 0 1 0 0 0 0 0 0 0 0 0 0 0 0 0 0 0 0 0 0 0 0 0 0 0 2 31 0 0 0 0 0 0 0 0 0 0 0 0 0 0 0 0 0 0 0 0 0 0 0 0 0 0 0 0 0 0 0 0 0 0 0 0 0 0 0 0 0 0 0 0 0 0 0 0 0 0 0 0 0 0 0 0 0 0\n1 0 0 1 0 0 1 0 0 1 0 0 1 0 0 1 0 0 0 0 0 0 0 0 0 0 0 0 0 0 0 0 0 0 0 0 0 0 0 2 24 0 5 6 1 0 0 0 0 0 0 0 0 0 0 0 0 0 0 0 0 0 0 0 0 0 0 0 0 0 0 0 0 0 0 0 0 0 0 0 0 0 0 0 0 0 0 0 0 0 0 0 0 0 0 0 0 0 0\n1 0 0 1 0 0 1 0 0 1 0 0 1 0 0 1 0 0 0 0 0 0 0 0 0 0 0 0 0 0 0 0 0 0 0 0 0 0 0 2 22 0 5 4 1 0 0 0 4 2 1 0 0 0 0 0 0 0 0 0 0 0 0 0 0 0 0 0 0 0 0 0 0 0 0 0 0 0 0 0 0 0 0 0 3 0 0 0 0 0 3 0 0 0 0 0 3 0 0\n1 0 0 1 0 0 1 0 0 1 0 0 1 0 0 1 0 0 0 0 0 0 0 0 0 0 0 0 0 0 0 0 0 0 0 0 0 0 0 2 19 0 0 0 0 0 0 0 5 3 1 0 0 0 0 0 0 0 0 0 0 0 0 0 0 0 0 0 0 0 0 0 0 0 0 0 0 0 0 0 0 0 0 0 0 0 0 3 0 0 3 0 0 0 0 0 0 0 0\n1 0 0 1 0 0 1 0 0 1 0 0 1 0 0 1 0 0 0 0 0 0 0 0 0 0 0 0 0 0 0 0 0 0 0 0 0 0 0 2 19 0 0 0 0 6 22 1 0 0 0 0 0 0 0 0 0 0 0 0 0 0 0 0 0 0 0 0 0 0 0 0 0 0 0 0 0 0 0 0 0 0 0 0 0 0 0 3 0 0 3 0 0 3 0 0 0 0 0\n1 0 0 1 0 0 1 0 0 1 0 0 1 0 0 1 0 0 0 0 0 0 0 0 0 0 0 0 0 0 0 0 0 0 0 0 0 0 0 0 0 0 5 5 1 0 0 0 0 0 0 0 0 0 0 0 0 0 0 0 0 0 0 0 0 0 0 0 0 0 0 0 0 0 0 0 0 0 0 0 0 0 0 0 0 0 0 0 0 0 0 0 0 3 0 0 3 0 0\n1 0 0 1 0 0 1 0 0 1 0 0 1 0 0 1 0 0 0 0 0 0 0 0 0 0 0 0 0 0 0 0 0 0 0 0 0 0 0 0 0 0 0 0 0 0 0 0 0 0 0 0 0 0 0 0 0 0 0 0 0 0 0 0 0 0 0 0 0 0 0 0 0 0 0 0 0 0 0 0 0 0 0 0 0 0 0 0 0 0 0 0 0 3 0 0 3 0 0\n1 0 0 1 0 0 1 0 0 1 0 0 1 0 0 1 0 0 0 0 0 0 0 0 0 0 0 0 0 0 0 0 0 0 0 0 0 0 0 0 0 0 0 0 0 6 7 1 0 0 0 0 0 0 0 0 0 0 0 0 0 0 0 0 0 0 0 0 0 0 0 0 0 0 0 0 0 0 0 0 0 0 0 0 0 0 0 0 0 0 0 0 0 0 0 0 3 0 0\n1 0 0 1 0 0 1 0 0 1 0 0 1 0 0 1 0 0 0 0 0 0 0 0 0 0 0 0 0 0 0 0 0 0 0 0 0 0 0 0 0 0 6 15 1 6 18 1 6 20 1 0 0 0 0 0 0 0 0 0 0 0 0 0 0 0 0 0 0 0 0 0 0 0 0 0 0 0 0 0 0 0 0 0 0 0 0 0 0 0 0 0 0 0 0 0 0 0 0\n1 0 0 1 0 0 1 0 0 1 0 0 1 0 0 1 0 0 0 0 0 0 0 0 0 0 0 0 0 0 0 0 0 0 0 0 0 0 0 0 0 0 0 0 0 0 0 0 0 0 0 0 0 0 0 0 0 0 0 0 0 0 0 0 0 0 0 0 0 0 0 0 0 0 0 0 0 0 0 0 0 0 0 0 0 0 0 0 0 0 0 0 0 0 0 0 0 0 0\n1 0 0 1 0 0 1 0 0 1 0 0 1 0 0 1 0 0 0 0 0 0 0 0 0 0 0 0 0 0 0 0 0 0 0 0 0 0 0 0 0 0 0 0 0 0 0 0 0 0 0 0 0 0 0 0 0 0 0 0 0 0 0 0 0 0 0 0 0 0 0 0 0 0 0 0 0 0 0 0 0 0 0 0 0 0 0 0 0 0 0 0 0 0 0 0 0 0 0\n1 0 0 1 0 0 1 0 0 1 0 0 1 0 0 1 0 0 0 0 0 0 0 0 0 0 0 0 0 0 0 0 0 0 0 0 0 0 0 0 0 0 0 0 0 0 0 0 0 0 0 0 0 0 0 0 0 0 0 0 0 0 0 0 0 0 0 0 0 0 0 0 0 0 0 0 0 0 0 0 0 0 0 0 0 0 0 0 0 0 0 0 0 0 0 0 0 0 0\n1 0 0 1 0 0 1 0 0 1 0 0 1 0 0 1 0 0 0 0 0 0 0 0 0 0 0 0 0 0 0 0 0 0 0 0 0 0 0 0 0 0 6 17 8 6 14 8 0 0 0 0 0 0 0 0 0 0 0 0 0 0 0 0 0 0 0 0 0 0 0 0 0 0 0 0 0 0 0 0 0 0 0 0 0 0 0 0 0 0 0 0 0 0 0 0 0 0 0\n1 0 0 1 0 0 1 0 0 1 0 0 1 0 0 1 0 0 0 0 0 0 0 0 0 0 0 0 0 0 0 0 0 0 0 0 0 0 0 0 0 0 0 0 0 6 16 8 3 0 0 0 0 0 0 0 0 0 0 0 0 0 0 0 0 0 0 0 0 0 0 0 0 0 0 0 0 0 0 0 0 0 0 0 0 0 0 0 0 0 0 0 0 0 0 0 0 0 0\n1 0 0 1 0 0 1 0 0 1 0 0 1 0 0 1 0 0 0 0 0 0 0 0 0 0 0 0 0 0 0 0 0 0 0 0 0 0 0 0 0 0 0 0 0 0 0 0 0 0 0 3 0 0 0 0 0 0 0 0 0 0 0 0 0 0 0 0 0 0 0 0 0 0 0 0 0 0 0 0 0 0 0 0 0 0 0 0 0 0 0 0 0 0 0 0 0 0 0\n1 0 0 1 0 0 1 0 0 1 0 0 1 0 0 1 0 0 0 0 0 0 0 0 0 0 0 0 0 0 0 0 0 0 0 0 0 0 0 0 0 0 0 0 0 0 0 0 3 0 0 3 0 0 3 0 0 0 0 0 0 0 0 0 0 0 0 0 0 0 0 0 0 0 0 0 0 0 0 0 0 0 0 0 0 0 0 0 0 0 0 0 0 0 0 0 0 0 0\n1 0 0 1 0 0 1 0 0 1 0 0 1 0 0 1 0 0 0 0 0 0 0 0 0 0 0 0 0 0 0 0 0 0 0 0 0 0 0 0 0 0 0 0 0 0 0 0 0 0 0 3 0 0 0 0 0 3 0 0 0 0 0 0 0 0 0 0 0 0 0 0 0 0 0 0 0 0 0 0 0 0 0 0 0 0 0 0 0 0 0 0 0 0 0 0 0 0 0\n1 0 0 1 0 0 1 0 0 1 0 0 1 0 0 1 0 0 0 0 0 0 0 0 0 0 0 0 0 0 0 0 0 0 0 0 0 0 0 0 0 0 0 0 0 0 0 0 3 0 0 3 0 0 3 0 0 3 0 0 3 0 0 0 0 0 0 0 0 0 0 0 0 0 0 0 0 0 0 0 0 0 0 0 0 0 0 0 0 0 0 0 0 0 0 0 0 0 0\n1 0 0 1 0 0 1 0 0 1 0 0 1 0 0 1 0 0 0 0 0 0 0 0 0 0 0 0 0 0 0 0 0 0 0 0 0 0 0 0 0 0 0 0 0 0 0 0 0 0 0 3 0 0 3 0 0 0 0 0 3 0 0 3 0 0 0 0 0 0 0 0 0 0 0 0 0 0 0 0 0 0 0 0 0 0 0 0 0 0 0 0 0 0 0 0 0 0 0\n'
p203
S'BUILD TANK\n'
p204
S''
ttRp205
sg55
g1
(cscriptcraft.core.actions
StopAction
p206
g35
(ttRp207
sg60
g26
sg61
g1
(g62
g35
(I0
I16
I-1
I-1
I01
I00
S'<Enum: get mineral or destroy>'
p208
(lp209
S'4'
aS'base'
p210
aS'b'
attRp211
sg67
I2
sg68
(lp212
sbsI3
g29
sI4
g70
sI5
g85
sI6
g100
sI7
g115
sI9
g1
(g9
g3
NtRp213
(dp214
g12
(lp215
sg14
I8
sg15
(lp216
sg17
g1
(g18
g3
NtRp217
(dp218
g21
S'Alice'
p219
sg23
(I255
I255
I0
tp220
sg25
(I10
I53
tp221
sg27
(lp222
g213
ag1
(g9
g3
NtRp223
(dp224
g12
(lp225
sg14
I0
sg15
(lp226
sg17
g217
sg33
g1
(g34
g35
(g42
S'#print "GATHER 7 10"\nid = map(int, raw_input().split(\' \'))[1]\nprint "GATHER %d %d" % (7, 55-id+9)\n'
p227
ttRp228
sg45
g1
(g46
g35
((I7
I54
tp229
ttRp230
sg49
g1
(g124
g35
(S''
S''
ttRp231
sg50
g1
(g51
g35
(S'5 10 8 0 9 53 15\n1\n0 0 0 0 0 0 0 0 0 0 0 0 0 0 0 0 0 0 0 0 0 0 0 0 0 0 0 0 0 0 0 0 0 0 0 0 0 0 0 0 0 0 0 0 0\n0 0 0 0 0 0 0 0 0 0 0 0 0 0 0 0 0 0 0 0 0 0 0 0 0 0 0 0 0 0 0 0 0 0 0 0 0 0 0 0 0 0 0 0 0\n0 0 0 0 0 0 0 0 0 0 0 0 0 0 0 0 0 0 0 0 0 0 0 0 0 0 0 0 0 0 0 0 0 0 0 0 0 0 0 0 0 0 0 0 0\n0 0 0 0 0 0 0 0 0 0 0 0 0 0 0 0 0 0 0 0 0 0 0 0 0 0 0 0 0 0 0 0 0 0 0 0 0 0 0 0 0 0 0 0 0\n0 0 0 0 0 0 0 0 0 0 0 0 0 0 0 5 11 8 0 0 0 0 0 0 0 0 0 0 0 0 0 0 0 0 0 0 0 0 0 0 0 0 0 0 0\n0 0 0 0 0 0 0 0 0 0 0 0 0 0 0 2 22 0 5 13 8 0 0 0 0 0 0 0 0 0 0 0 0 0 0 0 0 0 0 0 0 0 0 0 0\n0 0 0 0 0 0 0 0 0 0 0 0 0 0 0 2 28 0 0 0 0 5 12 8 0 0 0 0 0 0 0 0 0 0 0 0 0 0 0 0 0 0 0 0 0\n0 0 0 0 0 0 0 0 0 0 0 0 0 0 0 2 14 0 0 0 0 5 10 8 4 9 8 6 19 8 0 0 0 0 0 0 0 0 0 0 0 0 0 0 0\n0 0 0 0 0 0 0 0 0 0 0 0 0 0 0 2 20 0 0 0 0 0 0 0 6 21 8 0 0 0 0 0 0 0 0 0 0 0 0 0 0 0 0 0 0\n0 0 0 0 0 0 0 0 0 0 0 0 0 0 0 2 34 0 0 0 0 0 0 0 0 0 0 0 0 0 0 0 0 0 0 0 0 0 0 0 0 0 0 0 0\n0 0 0 0 0 0 0 0 0 0 0 0 0 0 0 0 0 0 0 0 0 0 0 0 0 0 0 0 0 0 0 0 0 0 0 0 0 0 0 0 0 0 0 0 0\n0 0 0 0 0 0 0 0 0 0 0 0 0 0 0 0 0 0 0 0 0 0 0 0 0 0 0 0 0 0 0 0 0 0 0 0 0 0 0 0 0 0 0 0 0\n0 0 0 0 0 0 0 0 0 0 0 0 0 0 0 0 0 0 0 0 0 0 0 0 0 0 0 0 0 0 0 0 0 0 0 0 0 0 0 0 0 0 0 0 0\n0 0 0 0 0 0 0 0 0 0 0 0 0 0 0 0 0 0 0 0 0 0 0 0 0 0 0 0 0 0 0 0 0 0 0 0 0 0 0 0 0 0 0 0 0\n0 0 0 0 0 0 0 0 0 0 0 0 0 0 0 0 0 0 0 0 0 0 0 0 0 0 0 0 0 0 0 0 0 0 0 0 0 0 0 0 0 0 0 0 0\n'
p232
S'GATHER 7 54\n'
p233
S''
ttRp234
sg55
g1
(cscriptcraft.core.actions
StoreAction
p235
g35
(I9
ttRp236
sg60
(I9
I53
tp237
sg61
g66
sg67
I10
sg68
(lp238
sbag1
(g9
g3
NtRp239
(dp240
g12
(lp241
sg14
I0
sg15
(lp242
sg17
g217
sg33
g1
(g34
g35
(g42
S'#print "GATHER 7 10"\nid = map(int, raw_input().split(\' \'))[1]\nprint "GATHER %d %d" % (7, 55-id+9)\n'
p243
ttRp244
sg45
g1
(g46
g35
((I7
I53
tp245
ttRp246
sg49
Nsg50
g1
(g51
g35
(S'5 11 8 0 7 50 15\n0\n0 0 0 0 0 0 0 0 0 0 0 0 0 0 0 0 0 0 0 0 0 0 0 0 0 0 0 0 0 0 0 0 0 3 0 0 0 0 0 0 0 0 0 0 0\n0 0 0 0 0 0 0 0 0 0 0 0 0 0 0 0 0 0 0 0 0 0 0 0 0 0 0 0 0 0 0 0 0 0 0 0 0 0 0 0 0 0 0 0 0\n0 0 0 0 0 0 0 0 0 0 0 0 0 0 0 0 0 0 0 0 0 0 0 0 0 0 0 0 0 0 0 0 0 0 0 0 0 0 0 0 0 0 0 0 0\n0 0 0 0 0 0 0 0 0 0 0 0 0 0 0 0 0 0 0 0 0 0 0 0 0 0 0 0 0 0 0 0 0 0 0 0 0 0 0 0 0 0 0 0 0\n0 0 0 0 0 0 0 0 0 0 0 0 0 0 0 0 0 0 0 0 0 0 0 0 0 0 0 0 0 0 0 0 0 0 0 0 0 0 0 0 0 0 0 0 0\n0 0 0 0 0 0 0 0 0 0 0 0 0 0 0 0 0 0 0 0 0 0 0 0 0 0 0 0 0 0 0 0 0 0 0 0 0 0 0 0 0 0 0 0 0\n0 0 0 0 0 0 0 0 0 0 0 0 0 0 0 0 0 0 0 0 0 0 0 0 0 0 0 0 0 0 0 0 0 0 0 0 0 0 0 0 0 0 0 0 0\n0 0 0 0 0 0 0 0 0 0 0 0 0 0 0 0 0 0 0 0 0 5 11 8 0 0 0 0 0 0 0 0 0 0 0 0 0 0 0 0 0 0 0 0 0\n0 0 0 0 0 0 0 0 0 0 0 0 0 0 0 0 0 0 0 0 0 2 22 0 5 13 8 0 0 0 0 0 0 0 0 0 0 0 0 0 0 0 0 0 0\n0 0 0 0 0 0 0 0 0 0 0 0 0 0 0 0 0 0 0 0 0 2 28 0 0 0 0 5 12 8 0 0 0 0 0 0 0 0 0 0 0 0 0 0 0\n0 0 0 0 0 0 0 0 0 0 0 0 0 0 0 0 0 0 0 0 0 2 14 0 0 0 0 5 10 8 4 9 8 6 19 8 0 0 0 0 0 0 0 0 0\n0 0 0 0 0 0 0 0 0 0 0 0 0 0 0 0 0 0 0 0 0 2 20 0 0 0 0 0 0 0 6 21 8 0 0 0 0 0 0 0 0 0 0 0 0\n0 0 0 0 0 0 0 0 0 0 0 0 0 0 0 0 0 0 0 0 0 2 34 0 0 0 0 0 0 0 0 0 0 0 0 0 0 0 0 0 0 0 0 0 0\n0 0 0 0 0 0 0 0 0 0 0 0 0 0 0 0 0 0 0 0 0 0 0 0 0 0 0 0 0 0 0 0 0 0 0 0 0 0 0 0 0 0 0 0 0\n0 0 0 0 0 0 0 0 0 0 0 0 0 0 0 0 0 0 0 0 0 0 0 0 0 0 0 0 0 0 0 0 0 0 0 0 0 0 0 0 0 0 0 0 0\n'
p247
S'GATHER 7 53\n'
p248
S''
ttRp249
sg55
g1
(g56
g35
((I7
I50
tp250
(I6
I50
tp251
ttRp252
sg60
g251
sg61
g66
sg67
I11
sg68
(lp253
sbag1
(g9
g3
NtRp254
(dp255
g12
(lp256
sg14
I0
sg15
(lp257
sg17
g217
sg33
g1
(g34
g35
(g42
S'#print "GATHER 7 10"\nid = map(int, raw_input().split(\' \'))[1]\nprint "GATHER %d %d" % (7, 55-id+9)\n'
p258
ttRp259
sg45
g1
(g46
g35
((I7
I52
tp260
ttRp261
sg49
Nsg50
g1
(g51
g35
(S'5 12 8 0 9 52 15\n0\n0 0 0 0 0 0 0 0 0 0 0 0 0 0 0 0 0 0 0 0 0 0 0 0 0 0 0 0 0 0 0 0 0 0 0 0 0 0 0 0 0 0 0 0 0\n0 0 0 0 0 0 0 0 0 0 0 0 0 0 0 0 0 0 0 0 0 0 0 0 0 0 0 0 0 0 0 0 0 0 0 0 0 0 0 0 0 0 0 0 0\n0 0 0 0 0 0 0 0 0 0 0 0 0 0 0 0 0 0 0 0 0 0 0 0 0 0 0 0 0 0 0 0 0 0 0 0 0 0 0 0 0 0 0 0 0\n0 0 0 0 0 0 0 0 0 0 0 0 0 0 0 0 0 0 0 0 0 0 0 0 0 0 0 0 0 0 0 0 0 0 0 0 0 0 0 0 0 0 0 0 0\n0 0 0 0 0 0 0 0 0 0 0 0 0 0 0 0 0 0 0 0 0 0 0 0 0 0 0 0 0 0 0 0 0 0 0 0 0 0 0 0 0 0 0 0 0\n0 0 0 0 0 0 0 0 0 0 0 0 0 0 0 5 11 8 0 0 0 0 0 0 0 0 0 0 0 0 0 0 0 0 0 0 0 0 0 0 0 0 0 0 0\n0 0 0 0 0 0 0 0 0 0 0 0 0 0 0 2 22 0 5 13 8 0 0 0 0 0 0 0 0 0 0 0 0 0 0 0 0 0 0 0 0 0 0 0 0\n0 0 0 0 0 0 0 0 0 0 0 0 0 0 0 2 28 0 0 0 0 5 12 8 0 0 0 0 0 0 0 0 0 0 0 0 0 0 0 0 0 0 0 0 0\n0 0 0 0 0 0 0 0 0 0 0 0 0 0 0 2 14 0 0 0 0 5 10 8 4 9 8 6 19 8 0 0 0 0 0 0 0 0 0 0 0 0 0 0 0\n0 0 0 0 0 0 0 0 0 0 0 0 0 0 0 2 20 0 0 0 0 0 0 0 6 21 8 0 0 0 0 0 0 0 0 0 0 0 0 0 0 0 0 0 0\n0 0 0 0 0 0 0 0 0 0 0 0 0 0 0 2 34 0 0 0 0 0 0 0 0 0 0 0 0 0 0 0 0 0 0 0 0 0 0 0 0 0 0 0 0\n0 0 0 0 0 0 0 0 0 0 0 0 0 0 0 0 0 0 0 0 0 0 0 0 0 0 0 0 0 0 0 0 0 0 0 0 0 0 0 0 0 0 0 0 0\n0 0 0 0 0 0 0 0 0 0 0 0 0 0 0 0 0 0 0 0 0 0 0 0 0 0 0 0 0 0 0 0 0 0 0 0 0 0 0 0 0 0 0 0 0\n0 0 0 0 0 0 0 0 0 0 0 0 0 0 0 0 0 0 0 0 0 0 0 0 0 0 0 0 0 0 0 0 0 0 0 0 0 0 0 0 0 0 0 0 0\n0 0 0 0 0 0 0 0 0 0 0 0 0 0 0 0 0 0 0 0 0 0 0 0 0 0 0 0 0 0 0 0 0 0 0 0 0 0 0 0 0 0 0 0 0\n'
p262
S'GATHER 7 52\n'
p263
S''
ttRp264
sg55
g1
(g56
g35
((I9
I52
tp265
(I8
I52
tp266
ttRp267
sg60
g266
sg61
g66
sg67
I12
sg68
(lp268
sbag1
(g9
g3
NtRp269
(dp270
g12
(lp271
sg14
I1
sg15
(lp272
sg17
g217
sg33
g1
(g34
g35
(g42
S'#print "GATHER 7 10"\nid = map(int, raw_input().split(\' \'))[1]\nprint "GATHER %d %d" % (7, 55-id+9)\n'
p273
ttRp274
sg45
g1
(g46
g35
((I7
I51
tp275
ttRp276
sg49
Nsg50
g1
(g51
g35
(S'5 13 8 0 8 51 15\n0\n0 0 0 0 0 0 0 0 0 0 0 0 0 0 0 0 0 0 0 0 0 0 0 0 0 0 0 0 0 0 0 0 0 0 0 0 0 0 0 0 0 0 0 0 0\n0 0 0 0 0 0 0 0 0 0 0 0 0 0 0 0 0 0 0 0 0 0 0 0 0 0 0 0 0 0 0 0 0 0 0 0 0 0 0 0 0 0 0 0 0\n0 0 0 0 0 0 0 0 0 0 0 0 0 0 0 0 0 0 0 0 0 0 0 0 0 0 0 0 0 0 0 0 0 0 0 0 0 0 0 0 0 0 0 0 0\n0 0 0 0 0 0 0 0 0 0 0 0 0 0 0 0 0 0 0 0 0 0 0 0 0 0 0 0 0 0 0 0 0 0 0 0 0 0 0 0 0 0 0 0 0\n0 0 0 0 0 0 0 0 0 0 0 0 0 0 0 0 0 0 0 0 0 0 0 0 0 0 0 0 0 0 0 0 0 0 0 0 0 0 0 0 0 0 0 0 0\n0 0 0 0 0 0 0 0 0 0 0 0 0 0 0 0 0 0 0 0 0 0 0 0 0 0 0 0 0 0 0 0 0 0 0 0 0 0 0 0 0 0 0 0 0\n0 0 0 0 0 0 0 0 0 0 0 0 0 0 0 0 0 0 5 11 8 0 0 0 0 0 0 0 0 0 0 0 0 0 0 0 0 0 0 0 0 0 0 0 0\n0 0 0 0 0 0 0 0 0 0 0 0 0 0 0 0 0 0 2 22 0 5 13 8 0 0 0 0 0 0 0 0 0 0 0 0 0 0 0 0 0 0 0 0 0\n0 0 0 0 0 0 0 0 0 0 0 0 0 0 0 0 0 0 2 28 0 0 0 0 5 12 8 0 0 0 0 0 0 0 0 0 0 0 0 0 0 0 0 0 0\n0 0 0 0 0 0 0 0 0 0 0 0 0 0 0 0 0 0 2 14 0 0 0 0 5 10 8 4 9 8 6 19 8 0 0 0 0 0 0 0 0 0 0 0 0\n0 0 0 0 0 0 0 0 0 0 0 0 0 0 0 0 0 0 2 20 0 0 0 0 0 0 0 6 21 8 0 0 0 0 0 0 0 0 0 0 0 0 0 0 0\n0 0 0 0 0 0 0 0 0 0 0 0 0 0 0 0 0 0 2 34 0 0 0 0 0 0 0 0 0 0 0 0 0 0 0 0 0 0 0 0 0 0 0 0 0\n0 0 0 0 0 0 0 0 0 0 0 0 0 0 0 0 0 0 0 0 0 0 0 0 0 0 0 0 0 0 0 0 0 0 0 0 0 0 0 0 0 0 0 0 0\n0 0 0 0 0 0 0 0 0 0 0 0 0 0 0 0 0 0 0 0 0 0 0 0 0 0 0 0 0 0 0 0 0 0 0 0 0 0 0 0 0 0 0 0 0\n0 0 0 0 0 0 0 0 0 0 0 0 0 0 0 0 0 0 0 0 0 0 0 0 0 0 0 0 0 0 0 0 0 0 0 0 0 0 0 0 0 0 0 0 0\n'
p277
S'GATHER 7 51\n'
p278
S''
ttRp279
sg55
g1
(g111
g35
(g275
ttRp280
sg60
(I8
I51
tp281
sg61
g66
sg67
I13
sg68
(lp282
sbag1
(g9
g3
NtRp283
(dp284
g12
(lp285
sg14
I0
sg15
(lp286
sg17
g217
sg33
g1
(g34
g35
(g42
S'print "MOVE 9 19"\n'
p287
ttRp288
sg45
g1
(g187
g35
((I9
I20
tp289
ttRp290
sg49
g1
(g124
g35
(S''
S''
ttRp291
sg50
g1
(g51
g35
(S'6 14 8 0 9 20 15\n3\n0 0 0 0 0 0 0 0 0 0 0 0 0 0 0 0 0 0 5 5 1 0 0 0 0 0 0 0 0 0 0 0 0 0 0 0 0 0 0 0 0 0 0 0 0\n0 0 0 0 0 0 0 0 0 0 0 0 0 0 0 0 0 0 0 0 0 0 0 0 0 0 0 0 0 0 0 0 0 0 0 0 0 0 0 0 0 0 0 0 0\n0 0 0 0 0 0 0 0 0 0 0 0 0 0 0 0 0 0 0 0 0 6 7 1 0 0 0 0 0 0 0 0 0 0 0 0 0 0 0 0 0 0 0 0 0\n0 0 0 0 0 0 0 0 0 0 0 0 0 0 0 0 0 0 6 15 1 6 18 1 6 20 1 0 0 0 0 0 0 0 0 0 0 0 0 0 0 0 0 0 0\n0 0 0 0 0 0 0 0 0 0 0 0 0 0 0 0 0 0 0 0 0 0 0 0 0 0 0 0 0 0 0 0 0 0 0 0 0 0 0 0 0 0 0 0 0\n0 0 0 0 0 0 0 0 0 0 0 0 0 0 0 0 0 0 0 0 0 0 0 0 0 0 0 0 0 0 0 0 0 0 0 0 0 0 0 0 0 0 0 0 0\n0 0 0 0 0 0 0 0 0 0 0 0 0 0 0 0 0 0 0 0 0 0 0 0 0 0 0 0 0 0 0 0 0 0 0 0 0 0 0 0 0 0 0 0 0\n0 0 0 0 0 0 0 0 0 0 0 0 0 0 0 0 0 0 6 17 8 6 14 8 0 0 0 0 0 0 0 0 0 0 0 0 0 0 0 0 0 0 0 0 0\n0 0 0 0 0 0 0 0 0 0 0 0 0 0 0 0 0 0 0 0 0 6 16 8 3 0 0 0 0 0 0 0 0 0 0 0 0 0 0 0 0 0 0 0 0\n0 0 0 0 0 0 0 0 0 0 0 0 0 0 0 0 0 0 0 0 0 0 0 0 0 0 0 3 0 0 0 0 0 0 0 0 0 0 0 0 0 0 0 0 0\n0 0 0 0 0 0 0 0 0 0 0 0 0 0 0 0 0 0 0 0 0 0 0 0 3 0 0 3 0 0 3 0 0 0 0 0 0 0 0 0 0 0 0 0 0\n0 0 0 0 0 0 0 0 0 0 0 0 0 0 0 0 0 0 0 0 0 0 0 0 0 0 0 3 0 0 0 0 0 3 0 0 0 0 0 0 0 0 0 0 0\n0 0 0 0 0 0 0 0 0 0 0 0 0 0 0 0 0 0 0 0 0 0 0 0 3 0 0 3 0 0 3 0 0 3 0 0 3 0 0 0 0 0 0 0 0\n0 0 0 0 0 0 0 0 0 0 0 0 0 0 0 0 0 0 0 0 0 0 0 0 0 0 0 3 0 0 3 0 0 0 0 0 3 0 0 3 0 0 0 0 0\n0 0 0 0 0 0 0 0 0 0 0 0 0 0 0 0 0 0 0 0 0 0 0 0 3 0 0 3 0 0 0 0 0 3 0 0 0 0 0 3 0 0 3 0 0\n'
p292
S'MOVE 9 20\n'
p293
S''
ttRp294
sg55
g1
(g206
g35
(ttRp295
sg60
(I9
I20
tp296
sg61
g134
sg67
I14
sg68
(lp297
sbag1
(g9
g3
NtRp298
(dp299
g12
(lp300
sg14
I0
sg15
(lp301
sg17
g217
sg33
g1
(g34
g35
(g42
S'print "MOVE 9 19"\n'
p302
ttRp303
sg45
g1
(g187
g35
((I9
I20
tp304
ttRp305
sg49
Nsg50
g1
(g51
g35
(S'6 16 8 0 9 21 15\n3\n0 0 0 0 0 0 0 0 0 0 0 0 0 0 0 0 0 0 0 0 0 0 0 0 0 0 0 0 0 0 0 0 0 0 0 0 0 0 0 0 0 0 0 0 0\n0 0 0 0 0 0 0 0 0 0 0 0 0 0 0 0 0 0 0 0 0 6 7 1 0 0 0 0 0 0 0 0 0 0 0 0 0 0 0 0 0 0 0 0 0\n0 0 0 0 0 0 0 0 0 0 0 0 0 0 0 0 0 0 6 15 1 6 18 1 6 20 1 0 0 0 0 0 0 0 0 0 0 0 0 0 0 0 0 0 0\n0 0 0 0 0 0 0 0 0 0 0 0 0 0 0 0 0 0 0 0 0 0 0 0 0 0 0 0 0 0 0 0 0 0 0 0 0 0 0 0 0 0 0 0 0\n0 0 0 0 0 0 0 0 0 0 0 0 0 0 0 0 0 0 0 0 0 0 0 0 0 0 0 0 0 0 0 0 0 0 0 0 0 0 0 0 0 0 0 0 0\n0 0 0 0 0 0 0 0 0 0 0 0 0 0 0 0 0 0 0 0 0 0 0 0 0 0 0 0 0 0 0 0 0 0 0 0 0 0 0 0 0 0 0 0 0\n0 0 0 0 0 0 0 0 0 0 0 0 0 0 0 0 0 0 6 17 8 6 14 8 0 0 0 0 0 0 0 0 0 0 0 0 0 0 0 0 0 0 0 0 0\n0 0 0 0 0 0 0 0 0 0 0 0 0 0 0 0 0 0 0 0 0 6 16 8 3 0 0 0 0 0 0 0 0 0 0 0 0 0 0 0 0 0 0 0 0\n0 0 0 0 0 0 0 0 0 0 0 0 0 0 0 0 0 0 0 0 0 0 0 0 0 0 0 3 0 0 0 0 0 0 0 0 0 0 0 0 0 0 0 0 0\n0 0 0 0 0 0 0 0 0 0 0 0 0 0 0 0 0 0 0 0 0 0 0 0 3 0 0 3 0 0 3 0 0 0 0 0 0 0 0 0 0 0 0 0 0\n0 0 0 0 0 0 0 0 0 0 0 0 0 0 0 0 0 0 0 0 0 0 0 0 0 0 0 3 0 0 0 0 0 3 0 0 0 0 0 0 0 0 0 0 0\n0 0 0 0 0 0 0 0 0 0 0 0 0 0 0 0 0 0 0 0 0 0 0 0 3 0 0 3 0 0 3 0 0 3 0 0 3 0 0 0 0 0 0 0 0\n0 0 0 0 0 0 0 0 0 0 0 0 0 0 0 0 0 0 0 0 0 0 0 0 0 0 0 3 0 0 3 0 0 0 0 0 3 0 0 3 0 0 0 0 0\n0 0 0 0 0 0 0 0 0 0 0 0 0 0 0 0 0 0 0 0 0 0 0 0 3 0 0 3 0 0 0 0 0 3 0 0 0 0 0 3 0 0 3 0 0\n0 0 0 0 0 0 0 0 0 0 0 0 0 0 0 0 0 0 0 0 0 0 0 0 3 0 0 3 0 0 3 0 0 3 0 0 3 0 0 0 0 0 0 0 0\n'
p306
S'MOVE 9 20\n'
p307
S''
ttRp308
sg55
g1
(g206
g35
(ttRp309
sg60
(I9
I21
tp310
sg61
g134
sg67
I16
sg68
(lp311
sbag1
(g9
g3
NtRp312
(dp313
g12
(lp314
sg14
I0
sg15
(lp315
sg17
g217
sg33
g1
(g34
g35
(g42
S'print "MOVE 9 20"\n'
p316
ttRp317
sg45
g1
(g187
g35
((I9
I20
tp318
ttRp319
sg49
Nsg50
g1
(g51
g35
(S'6 17 8 0 8 20 15\n3\n0 0 0 0 0 0 0 0 0 0 0 0 0 0 0 0 0 0 0 0 0 5 5 1 0 0 0 0 0 0 0 0 0 0 0 0 0 0 0 0 0 0 0 0 0\n0 0 0 0 0 0 0 0 0 0 0 0 0 0 0 0 0 0 0 0 0 0 0 0 0 0 0 0 0 0 0 0 0 0 0 0 0 0 0 0 0 0 0 0 0\n0 0 0 0 0 0 0 0 0 0 0 0 0 0 0 0 0 0 0 0 0 0 0 0 6 7 1 0 0 0 0 0 0 0 0 0 0 0 0 0 0 0 0 0 0\n0 0 0 0 0 0 0 0 0 0 0 0 0 0 0 0 0 0 0 0 0 6 15 1 6 18 1 6 20 1 0 0 0 0 0 0 0 0 0 0 0 0 0 0 0\n0 0 0 0 0 0 0 0 0 0 0 0 0 0 0 0 0 0 0 0 0 0 0 0 0 0 0 0 0 0 0 0 0 0 0 0 0 0 0 0 0 0 0 0 0\n0 0 0 0 0 0 0 0 0 0 0 0 0 0 0 0 0 0 0 0 0 0 0 0 0 0 0 0 0 0 0 0 0 0 0 0 0 0 0 0 0 0 0 0 0\n0 0 0 0 0 0 0 0 0 0 0 0 0 0 0 0 0 0 0 0 0 0 0 0 0 0 0 0 0 0 0 0 0 0 0 0 0 0 0 0 0 0 0 0 0\n0 0 0 0 0 0 0 0 0 0 0 0 0 0 0 0 0 0 0 0 0 6 17 8 6 14 8 0 0 0 0 0 0 0 0 0 0 0 0 0 0 0 0 0 0\n0 0 0 0 0 0 0 0 0 0 0 0 0 0 0 0 0 0 0 0 0 0 0 0 6 16 8 3 0 0 0 0 0 0 0 0 0 0 0 0 0 0 0 0 0\n0 0 0 0 0 0 0 0 0 0 0 0 0 0 0 0 0 0 0 0 0 0 0 0 0 0 0 0 0 0 3 0 0 0 0 0 0 0 0 0 0 0 0 0 0\n0 0 0 0 0 0 0 0 0 0 0 0 0 0 0 0 0 0 0 0 0 0 0 0 0 0 0 3 0 0 3 0 0 3 0 0 0 0 0 0 0 0 0 0 0\n0 0 0 0 0 0 0 0 0 0 0 0 0 0 0 0 0 0 0 0 0 0 0 0 0 0 0 0 0 0 3 0 0 0 0 0 3 0 0 0 0 0 0 0 0\n0 0 0 0 0 0 0 0 0 0 0 0 0 0 0 0 0 0 0 0 0 0 0 0 0 0 0 3 0 0 3 0 0 3 0 0 3 0 0 3 0 0 0 0 0\n0 0 0 0 0 0 0 0 0 0 0 0 0 0 0 0 0 0 0 0 0 0 0 0 0 0 0 0 0 0 3 0 0 3 0 0 0 0 0 3 0 0 3 0 0\n0 0 0 0 0 0 0 0 0 0 0 0 0 0 0 0 0 0 0 0 0 0 0 0 0 0 0 3 0 0 3 0 0 0 0 0 3 0 0 0 0 0 3 0 0\n'
p320
S'MOVE 9 20\n'
p321
S''
ttRp322
sg55
g1
(g206
g35
(ttRp323
sg60
(I8
I20
tp324
sg61
g134
sg67
I17
sg68
(lp325
sbag1
(g9
g3
NtRp326
(dp327
g12
(lp328
sg14
I0
sg15
(lp329
sg17
g217
sg33
g1
(g34
g35
(g42
S'print "BUILD TANK"\n'
p330
ttRp331
sg45
g1
(g200
g35
(S'tank'
p332
ttRp333
sg49
Nsg50
g1
(g51
g35
(S'6 19 8 0 11 53 15\n3\n0 0 0 0 0 0 0 0 0 0 0 0 0 0 0 0 0 0 0 0 0 0 0 0 0 0 0 0 0 0 0 0 0 0 0 0 0 0 0 0 0 0 0 0 0\n0 0 0 0 0 0 0 0 0 0 0 0 0 0 0 0 0 0 0 0 0 0 0 0 0 0 0 0 0 0 0 0 0 0 0 0 0 0 0 0 0 0 0 0 0\n0 0 0 0 0 0 0 0 0 0 0 0 0 0 0 0 0 0 0 0 0 0 0 0 0 0 0 0 0 0 0 0 0 0 0 0 0 0 0 0 0 0 0 0 0\n0 0 0 0 0 0 0 0 0 0 0 0 0 0 0 0 0 0 0 0 0 0 0 0 0 0 0 0 0 0 0 0 0 0 0 0 0 0 0 0 0 0 0 0 0\n0 0 0 0 0 0 0 0 0 5 11 8 0 0 0 0 0 0 0 0 0 0 0 0 0 0 0 0 0 0 0 0 0 0 0 0 0 0 0 0 0 0 0 0 0\n0 0 0 0 0 0 0 0 0 2 22 0 5 13 8 0 0 0 0 0 0 0 0 0 0 0 0 0 0 0 0 0 0 0 0 0 0 0 0 0 0 0 0 0 0\n0 0 0 0 0 0 0 0 0 2 28 0 0 0 0 5 12 8 0 0 0 0 0 0 0 0 0 0 0 0 0 0 0 0 0 0 0 0 0 0 0 0 0 0 0\n0 0 0 0 0 0 0 0 0 2 14 0 0 0 0 5 10 8 4 9 8 6 19 8 0 0 0 0 0 0 0 0 0 0 0 0 0 0 0 0 0 0 0 0 0\n0 0 0 0 0 0 0 0 0 2 20 0 0 0 0 0 0 0 6 21 8 0 0 0 0 0 0 0 0 0 0 0 0 0 0 0 0 0 0 0 0 0 0 0 0\n0 0 0 0 0 0 0 0 0 2 34 0 0 0 0 0 0 0 0 0 0 0 0 0 0 0 0 0 0 0 0 0 0 0 0 0 0 0 0 0 0 0 0 0 0\n0 0 0 0 0 0 0 0 0 0 0 0 0 0 0 0 0 0 0 0 0 0 0 0 0 0 0 0 0 0 0 0 0 0 0 0 0 0 0 0 0 0 0 0 0\n0 0 0 0 0 0 0 0 0 0 0 0 0 0 0 0 0 0 0 0 0 0 0 0 0 0 0 0 0 0 0 0 0 0 0 0 0 0 0 0 0 0 0 0 0\n0 0 0 0 0 0 0 0 0 0 0 0 0 0 0 0 0 0 0 0 0 0 0 0 0 0 0 0 0 0 0 0 0 0 0 0 0 0 0 0 0 0 0 0 0\n0 0 0 0 0 0 0 0 0 0 0 0 0 0 0 0 0 0 0 0 0 0 0 0 0 0 0 0 0 0 0 0 0 0 0 0 0 0 0 0 0 0 0 0 0\n0 0 0 0 0 0 0 0 0 0 0 0 0 0 0 0 0 0 0 0 0 0 0 0 0 0 0 0 0 0 0 0 0 0 0 0 0 0 0 0 0 0 0 0 0\n'
p334
S'BUILD TANK\n'
p335
S''
ttRp336
sg55
g1
(g206
g35
(ttRp337
sg60
(I11
I53
tp338
sg61
g134
sg67
I19
sg68
(lp339
sbag1
(g9
g3
NtRp340
(dp341
g12
(lp342
sg14
I0
sg15
(lp343
sg17
g217
sg33
g331
sg45
g1
(g200
g35
(S'tank'
p344
ttRp345
sg49
Nsg50
g1
(g51
g35
(S'6 21 8 0 10 54 15\n3\n0 0 0 0 0 0 0 0 0 0 0 0 0 0 0 0 0 0 0 0 0 0 0 0 0 0 0 0 0 0 0 0 0 0 0 0 0 0 0 0 0 0 0 0 0\n0 0 0 0 0 0 0 0 0 0 0 0 0 0 0 0 0 0 0 0 0 0 0 0 0 0 0 0 0 0 0 0 0 0 0 0 0 0 0 0 0 0 0 0 0\n0 0 0 0 0 0 0 0 0 0 0 0 0 0 0 0 0 0 0 0 0 0 0 0 0 0 0 0 0 0 0 0 0 0 0 0 0 0 0 0 0 0 0 0 0\n0 0 0 0 0 0 0 0 0 0 0 0 5 11 8 0 0 0 0 0 0 0 0 0 0 0 0 0 0 0 0 0 0 0 0 0 0 0 0 0 0 0 0 0 0\n0 0 0 0 0 0 0 0 0 0 0 0 2 22 0 5 13 8 0 0 0 0 0 0 0 0 0 0 0 0 0 0 0 0 0 0 0 0 0 0 0 0 0 0 0\n0 0 0 0 0 0 0 0 0 0 0 0 2 28 0 0 0 0 5 12 8 0 0 0 0 0 0 0 0 0 0 0 0 0 0 0 0 0 0 0 0 0 0 0 0\n0 0 0 0 0 0 0 0 0 0 0 0 2 14 0 0 0 0 5 10 8 4 9 8 6 19 8 0 0 0 0 0 0 0 0 0 0 0 0 0 0 0 0 0 0\n0 0 0 0 0 0 0 0 0 0 0 0 2 20 0 0 0 0 0 0 0 6 21 8 0 0 0 0 0 0 0 0 0 0 0 0 0 0 0 0 0 0 0 0 0\n0 0 0 0 0 0 0 0 0 0 0 0 2 34 0 0 0 0 0 0 0 0 0 0 0 0 0 0 0 0 0 0 0 0 0 0 0 0 0 0 0 0 0 0 0\n0 0 0 0 0 0 0 0 0 0 0 0 0 0 0 0 0 0 0 0 0 0 0 0 0 0 0 0 0 0 0 0 0 0 0 0 0 0 0 0 0 0 0 0 0\n0 0 0 0 0 0 0 0 0 0 0 0 0 0 0 0 0 0 0 0 0 0 0 0 0 0 0 0 0 0 0 0 0 0 0 0 0 0 0 0 0 0 0 0 0\n0 0 0 0 0 0 0 0 0 0 0 0 0 0 0 0 0 0 0 0 0 0 0 0 0 0 0 0 0 0 0 0 0 0 0 0 0 0 0 0 0 0 0 0 0\n0 0 0 0 0 0 0 0 0 0 0 0 0 0 0 0 0 0 0 0 0 0 0 0 0 0 0 0 0 0 0 0 0 0 0 0 0 0 0 0 0 0 0 0 0\n0 0 0 0 0 0 0 0 0 0 0 0 0 0 0 0 0 0 0 0 0 0 0 0 0 0 0 0 0 0 0 0 0 0 0 0 0 0 0 0 0 0 0 0 0\n0 0 0 0 0 0 0 0 0 0 0 0 0 0 0 0 0 0 0 0 0 0 0 0 0 0 0 0 0 0 0 0 0 0 0 0 0 0 0 0 0 0 0 0 0\n'
p346
S'BUILD TANK\n'
p347
S''
ttRp348
sg55
g1
(g206
g35
(ttRp349
sg60
(I10
I54
tp350
sg61
g134
sg67
I21
sg68
(lp351
sbasg67
I8
sg197
g213
sbsg33
g331
sg45
g1
(g200
g35
(S'tank'
p352
ttRp353
sg49
Nsg50
g1
(g51
g35
(S'4 9 8 0 10 53 33\n7\n1 0 0 1 0 0 1 0 0 1 0 0 1 0 0 1 0 0 0 0 0 0 0 0 0 0 0 0 0 0 0 0 0 0 0 0 0 0 0 0 0 0 0 0 0 0 0 0 3 0 0 0 0 0 3 0 0 0 0 0 3 0 0 0 0 0 0 0 0 0 0 0 0 0 0 0 0 0 0 0 0 0 0 0 0 0 0 0 0 0 0 0 0 0 0 0 0 0 0\n1 0 0 1 0 0 1 0 0 1 0 0 1 0 0 1 0 0 0 0 0 0 0 0 0 0 0 0 0 0 0 0 0 0 0 0 0 0 0 0 0 0 0 0 0 0 0 0 3 0 0 0 0 0 0 0 0 3 0 0 0 0 0 0 0 0 0 0 0 0 0 0 0 0 0 0 0 0 0 0 0 0 0 0 0 0 0 0 0 0 0 0 0 0 0 0 0 0 0\n1 0 0 1 0 0 1 0 0 1 0 0 1 0 0 1 0 0 0 0 0 0 0 0 0 0 0 0 0 0 0 0 0 0 0 0 0 0 0 0 0 0 0 0 0 0 0 0 0 0 0 3 0 0 0 0 0 3 0 0 3 0 0 3 0 0 0 0 0 0 0 0 0 0 0 0 0 0 0 0 0 0 0 0 0 0 0 0 0 0 0 0 0 0 0 0 0 0 0\n1 0 0 1 0 0 1 0 0 1 0 0 1 0 0 1 0 0 0 0 0 0 0 0 0 0 0 0 0 0 0 0 0 0 0 0 0 0 0 0 0 0 0 0 0 0 0 0 3 0 0 3 0 0 3 0 0 3 0 0 3 0 0 0 0 0 0 0 0 0 0 0 0 0 0 0 0 0 0 0 0 0 0 0 0 0 0 0 0 0 0 0 0 0 0 0 0 0 0\n1 0 0 1 0 0 1 0 0 1 0 0 1 0 0 1 0 0 0 0 0 0 0 0 0 0 0 0 0 0 0 0 0 0 0 0 0 0 0 0 0 0 0 0 0 0 0 0 0 0 0 3 0 0 3 0 0 0 0 0 0 0 0 0 0 0 0 0 0 0 0 0 0 0 0 0 0 0 0 0 0 0 0 0 0 0 0 0 0 0 0 0 0 0 0 0 0 0 0\n1 0 0 1 0 0 1 0 0 1 0 0 1 0 0 1 0 0 0 0 0 0 0 0 0 0 0 0 0 0 0 0 0 0 0 0 0 0 0 0 0 0 0 0 0 0 0 0 3 0 0 3 0 0 3 0 0 0 0 0 0 0 0 0 0 0 0 0 0 0 0 0 0 0 0 0 0 0 0 0 0 0 0 0 0 0 0 0 0 0 0 0 0 0 0 0 0 0 0\n1 0 0 1 0 0 1 0 0 1 0 0 1 0 0 1 0 0 0 0 0 0 0 0 0 0 0 0 0 0 0 0 0 0 0 0 0 0 0 0 0 0 0 0 0 0 0 0 0 0 0 3 0 0 0 0 0 0 0 0 0 0 0 0 0 0 0 0 0 0 0 0 0 0 0 0 0 0 0 0 0 0 0 0 0 0 0 0 0 0 0 0 0 0 0 0 0 0 0\n1 0 0 1 0 0 1 0 0 1 0 0 1 0 0 1 0 0 0 0 0 0 0 0 0 0 0 0 0 0 0 0 0 0 0 0 0 0 0 0 0 0 0 0 0 0 0 0 0 0 0 0 0 0 0 0 0 0 0 0 0 0 0 0 0 0 0 0 0 0 0 0 0 0 0 0 0 0 0 0 0 0 0 0 0 0 0 0 0 0 0 0 0 0 0 0 0 0 0\n1 0 0 1 0 0 1 0 0 1 0 0 1 0 0 1 0 0 0 0 0 0 0 0 0 0 0 0 0 0 0 0 0 0 0 0 0 0 0 0 0 0 0 0 0 0 0 0 0 0 0 0 0 0 0 0 0 0 0 0 0 0 0 0 0 0 0 0 0 0 0 0 0 0 0 0 0 0 0 0 0 0 0 0 0 0 0 0 0 0 0 0 0 0 0 0 0 0 0\n1 0 0 1 0 0 1 0 0 1 0 0 1 0 0 1 0 0 0 0 0 0 0 0 0 0 0 0 0 0 0 0 0 0 0 0 0 0 0 0 0 0 0 0 0 0 0 0 0 0 0 0 0 0 0 0 0 0 0 0 0 0 0 0 0 0 0 0 0 0 0 0 0 0 0 0 0 0 0 0 0 0 0 0 0 0 0 0 0 0 0 0 0 0 0 0 0 0 0\n1 0 0 1 0 0 1 0 0 1 0 0 1 0 0 1 0 0 0 0 0 0 0 0 0 0 0 0 0 0 0 0 0 0 0 0 0 0 0 0 0 0 0 0 0 0 0 0 0 0 0 0 0 0 0 0 0 0 0 0 0 0 0 0 0 0 0 0 0 0 0 0 0 0 0 0 0 0 0 0 0 0 0 0 0 0 0 0 0 0 0 0 0 0 0 0 0 0 0\n1 0 0 1 0 0 1 0 0 1 0 0 1 0 0 1 0 0 0 0 0 0 0 0 0 0 0 0 0 0 0 0 0 0 0 0 0 0 0 0 0 0 0 0 0 0 0 0 0 0 0 0 0 0 0 0 0 0 0 0 0 0 0 0 0 0 0 0 0 0 0 0 0 0 0 0 0 0 0 0 0 0 0 0 0 0 0 0 0 0 0 0 0 0 0 0 0 0 0\n1 0 0 1 0 0 1 0 0 1 0 0 1 0 0 1 0 0 0 0 0 0 0 0 0 0 0 0 0 0 0 0 0 0 0 0 0 0 0 0 0 0 0 0 0 0 0 0 0 0 0 0 0 0 0 0 0 0 0 0 0 0 0 0 0 0 0 0 0 0 0 0 0 0 0 0 0 0 0 0 0 0 0 0 0 0 0 0 0 0 0 0 0 0 0 0 0 0 0\n1 0 0 1 0 0 1 0 0 1 0 0 1 0 0 1 0 0 0 0 0 0 0 0 0 0 0 0 0 0 0 0 0 0 0 0 0 0 0 5 11 8 0 0 0 0 0 0 0 0 0 0 0 0 0 0 0 0 0 0 0 0 0 0 0 0 0 0 0 0 0 0 0 0 0 0 0 0 0 0 0 0 0 0 0 0 0 0 0 0 0 0 0 3 0 0 0 0 0\n1 0 0 1 0 0 1 0 0 1 0 0 1 0 0 1 0 0 0 0 0 0 0 0 0 0 0 0 0 0 0 0 0 0 0 0 0 0 0 2 22 0 5 13 8 0 0 0 0 0 0 0 0 0 0 0 0 0 0 0 0 0 0 0 0 0 0 0 0 0 0 0 0 0 0 0 0 0 0 0 0 0 0 0 0 0 0 0 0 0 3 0 0 3 0 0 3 0 0\n1 0 0 1 0 0 1 0 0 1 0 0 1 0 0 1 0 0 0 0 0 0 0 0 0 0 0 0 0 0 0 0 0 0 0 0 0 0 0 2 28 0 0 0 0 5 12 8 0 0 0 0 0 0 0 0 0 0 0 0 0 0 0 0 0 0 0 0 0 0 0 0 0 0 0 0 0 0 0 0 0 0 0 0 0 0 0 3 0 0 0 0 0 0 0 0 3 0 0\n1 0 0 1 0 0 1 0 0 1 0 0 1 0 0 1 0 0 0 0 0 0 0 0 0 0 0 0 0 0 0 0 0 0 0 0 0 0 0 2 14 0 0 0 0 5 10 8 4 9 8 6 19 8 0 0 0 0 0 0 0 0 0 0 0 0 0 0 0 0 0 0 0 0 0 0 0 0 0 0 0 0 0 0 3 0 0 3 0 0 3 0 0 3 0 0 3 0 0\n1 0 0 1 0 0 1 0 0 1 0 0 1 0 0 1 0 0 0 0 0 0 0 0 0 0 0 0 0 0 0 0 0 0 0 0 0 0 0 2 20 0 0 0 0 0 0 0 6 21 8 0 0 0 0 0 0 0 0 0 0 0 0 0 0 0 0 0 0 0 0 0 0 0 0 0 0 0 0 0 0 3 0 0 3 0 0 3 0 0 3 0 0 0 0 0 3 0 0\n1 0 0 1 0 0 1 0 0 1 0 0 1 0 0 1 0 0 0 0 0 0 0 0 0 0 0 0 0 0 0 0 0 0 0 0 0 0 0 2 34 0 0 0 0 0 0 0 0 0 0 0 0 0 0 0 0 0 0 0 0 0 0 0 0 0 0 0 0 0 0 0 0 0 0 0 0 0 0 0 0 0 0 0 0 0 0 0 0 0 0 0 0 0 0 0 0 0 0\n1 0 0 1 0 0 1 0 0 1 0 0 1 0 0 1 0 0 0 0 0 0 0 0 0 0 0 0 0 0 0 0 0 0 0 0 0 0 0 0 0 0 0 0 0 0 0 0 0 0 0 0 0 0 0 0 0 0 0 0 0 0 0 0 0 0 0 0 0 0 0 0 0 0 0 0 0 0 0 0 0 0 0 0 0 0 0 0 0 0 0 0 0 0 0 0 0 0 0\n1 0 0 1 0 0 1 0 0 1 0 0 1 0 0 1 0 0 0 0 0 0 0 0 0 0 0 0 0 0 0 0 0 0 0 0 0 0 0 0 0 0 0 0 0 0 0 0 0 0 0 0 0 0 0 0 0 0 0 0 0 0 0 0 0 0 0 0 0 0 0 0 0 0 0 0 0 0 0 0 0 0 0 0 0 0 0 0 0 0 0 0 0 0 0 0 0 0 0\n1 0 0 1 0 0 1 0 0 1 0 0 1 0 0 1 0 0 0 0 0 0 0 0 0 0 0 0 0 0 0 0 0 0 0 0 0 0 0 0 0 0 0 0 0 0 0 0 0 0 0 0 0 0 0 0 0 0 0 0 0 0 0 0 0 0 0 0 0 0 0 0 0 0 0 0 0 0 0 0 0 0 0 0 0 0 0 0 0 0 0 0 0 0 0 0 0 0 0\n1 0 0 1 0 0 1 0 0 1 0 0 1 0 0 1 0 0 0 0 0 0 0 0 0 0 0 0 0 0 0 0 0 0 0 0 0 0 0 0 0 0 0 0 0 0 0 0 0 0 0 0 0 0 0 0 0 0 0 0 0 0 0 0 0 0 0 0 0 0 0 0 0 0 0 0 0 0 0 0 0 0 0 0 0 0 0 0 0 0 0 0 0 0 0 0 0 0 0\n1 0 0 1 0 0 1 0 0 1 0 0 1 0 0 1 0 0 0 0 0 0 0 0 0 0 0 0 0 0 0 0 0 0 0 0 0 0 0 0 0 0 0 0 0 0 0 0 0 0 0 0 0 0 0 0 0 0 0 0 0 0 0 0 0 0 0 0 0 0 0 0 0 0 0 0 0 0 0 0 0 0 0 0 0 0 0 0 0 0 0 0 0 0 0 0 0 0 0\n1 0 0 1 0 0 1 0 0 1 0 0 1 0 0 1 0 0 0 0 0 0 0 0 0 0 0 0 0 0 0 0 0 0 0 0 0 0 0 0 0 0 0 0 0 0 0 0 0 0 0 0 0 0 0 0 0 0 0 0 0 0 0 0 0 0 0 0 0 0 0 0 0 0 0 0 0 0 0 0 0 0 0 0 0 0 0 0 0 0 0 0 0 0 0 0 0 0 0\n1 0 0 1 0 0 1 0 0 1 0 0 1 0 0 1 0 0 0 0 0 0 0 0 0 0 0 0 0 0 0 0 0 0 0 0 0 0 0 0 0 0 0 0 0 0 0 0 0 0 0 0 0 0 0 0 0 0 0 0 0 0 0 0 0 0 0 0 0 0 0 0 0 0 0 0 0 0 0 0 0 0 0 0 0 0 0 0 0 0 0 0 0 0 0 0 0 0 0\n1 0 0 1 0 0 1 0 0 1 0 0 1 0 0 1 0 0 0 0 0 0 0 0 0 0 0 0 0 0 0 0 0 0 0 0 0 0 0 0 0 0 0 0 0 0 0 0 0 0 0 0 0 0 0 0 0 0 0 0 0 0 0 0 0 0 0 0 0 0 0 0 0 0 0 0 0 0 0 0 0 0 0 0 0 0 0 0 0 0 0 0 0 0 0 0 0 0 0\n1 0 0 1 0 0 1 0 0 1 0 0 1 0 0 1 0 0 1 0 0 1 0 0 1 0 0 1 0 0 1 0 0 1 0 0 1 0 0 1 0 0 1 0 0 1 0 0 1 0 0 1 0 0 1 0 0 1 0 0 1 0 0 1 0 0 1 0 0 1 0 0 1 0 0 1 0 0 1 0 0 1 0 0 1 0 0 1 0 0 1 0 0 1 0 0 1 0 0\n1 0 0 1 0 0 1 0 0 1 0 0 1 0 0 1 0 0 1 0 0 1 0 0 1 0 0 1 0 0 1 0 0 1 0 0 1 0 0 1 0 0 1 0 0 1 0 0 1 0 0 1 0 0 1 0 0 1 0 0 1 0 0 1 0 0 1 0 0 1 0 0 1 0 0 1 0 0 1 0 0 1 0 0 1 0 0 1 0 0 1 0 0 1 0 0 1 0 0\n1 0 0 1 0 0 1 0 0 1 0 0 1 0 0 1 0 0 1 0 0 1 0 0 1 0 0 1 0 0 1 0 0 1 0 0 1 0 0 1 0 0 1 0 0 1 0 0 1 0 0 1 0 0 1 0 0 1 0 0 1 0 0 1 0 0 1 0 0 1 0 0 1 0 0 1 0 0 1 0 0 1 0 0 1 0 0 1 0 0 1 0 0 1 0 0 1 0 0\n1 0 0 1 0 0 1 0 0 1 0 0 1 0 0 1 0 0 1 0 0 1 0 0 1 0 0 1 0 0 1 0 0 1 0 0 1 0 0 1 0 0 1 0 0 1 0 0 1 0 0 1 0 0 1 0 0 1 0 0 1 0 0 1 0 0 1 0 0 1 0 0 1 0 0 1 0 0 1 0 0 1 0 0 1 0 0 1 0 0 1 0 0 1 0 0 1 0 0\n1 0 0 1 0 0 1 0 0 1 0 0 1 0 0 1 0 0 1 0 0 1 0 0 1 0 0 1 0 0 1 0 0 1 0 0 1 0 0 1 0 0 1 0 0 1 0 0 1 0 0 1 0 0 1 0 0 1 0 0 1 0 0 1 0 0 1 0 0 1 0 0 1 0 0 1 0 0 1 0 0 1 0 0 1 0 0 1 0 0 1 0 0 1 0 0 1 0 0\n1 0 0 1 0 0 1 0 0 1 0 0 1 0 0 1 0 0 1 0 0 1 0 0 1 0 0 1 0 0 1 0 0 1 0 0 1 0 0 1 0 0 1 0 0 1 0 0 1 0 0 1 0 0 1 0 0 1 0 0 1 0 0 1 0 0 1 0 0 1 0 0 1 0 0 1 0 0 1 0 0 1 0 0 1 0 0 1 0 0 1 0 0 1 0 0 1 0 0\n'
p354
S'BUILD TANK\n'
p355
S''
ttRp356
sg55
g1
(g206
g35
(ttRp357
sg60
g221
sg61
g211
sg67
I9
sg68
(lp358
sbsI10
g223
sI11
g239
sI12
g254
sI13
g269
sI14
g283
sI15
g136
sI16
g298
sI17
g312
sI18
g151
sI19
g326
sI20
g166
sI21
g340
sI22
g181
ssS'_units_and_players_counter'
p359
I22
sS'game_map'
p360
g1
(cscriptcraft.core.GameMap
GameMap
p361
c__builtin__
list
p362
(lp363
(lp364
g1
(cscriptcraft.core.Field
Field
p365
g35
(I1
I0
ttRp366
ag1
(g365
g35
(I1
I0
ttRp367
ag1
(g365
g35
(I1
I0
ttRp368
ag1
(g365
g35
(I1
I0
ttRp369
ag1
(g365
g35
(I1
I0
ttRp370
ag1
(g365
g35
(I1
I0
ttRp371
ag1
(g365
g35
(I1
I0
ttRp372
ag1
(g365
g35
(I1
I0
ttRp373
ag1
(g365
g35
(I1
I0
ttRp374
ag1
(g365
g35
(I1
I0
ttRp375
ag1
(g365
g35
(I1
I0
ttRp376
ag1
(g365
g35
(I1
I0
ttRp377
ag1
(g365
g35
(I1
I0
ttRp378
ag1
(g365
g35
(I1
I0
ttRp379
ag1
(g365
g35
(I1
I0
ttRp380
ag1
(g365
g35
(I1
I0
ttRp381
ag1
(g365
g35
(I1
I0
ttRp382
ag1
(g365
g35
(I1
I0
ttRp383
ag1
(g365
g35
(I1
I0
ttRp384
ag1
(g365
g35
(I1
I0
ttRp385
ag1
(g365
g35
(I1
I0
ttRp386
ag1
(g365
g35
(I1
I0
ttRp387
ag1
(g365
g35
(I1
I0
ttRp388
ag1
(g365
g35
(I1
I0
ttRp389
ag1
(g365
g35
(I1
I0
ttRp390
ag1
(g365
g35
(I1
I0
ttRp391
ag1
(g365
g35
(I1
I0
ttRp392
ag1
(g365
g35
(I1
I0
ttRp393
ag1
(g365
g35
(I1
I0
ttRp394
ag1
(g365
g35
(I1
I0
ttRp395
ag1
(g365
g35
(I1
I0
ttRp396
ag1
(g365
g35
(I1
I0
ttRp397
ag1
(g365
g35
(I1
I0
ttRp398
ag1
(g365
g35
(I1
I0
ttRp399
ag1
(g365
g35
(I1
I0
ttRp400
ag1
(g365
g35
(I1
I0
ttRp401
ag1
(g365
g35
(I1
I0
ttRp402
ag1
(g365
g35
(I1
I0
ttRp403
ag1
(g365
g35
(I1
I0
ttRp404
ag1
(g365
g35
(I1
I0
ttRp405
ag1
(g365
g35
(I1
I0
ttRp406
ag1
(g365
g35
(I1
I0
ttRp407
ag1
(g365
g35
(I1
I0
ttRp408
ag1
(g365
g35
(I1
I0
ttRp409
ag1
(g365
g35
(I1
I0
ttRp410
ag1
(g365
g35
(I1
I0
ttRp411
ag1
(g365
g35
(I1
I0
ttRp412
ag1
(g365
g35
(I1
I0
ttRp413
ag1
(g365
g35
(I1
I0
ttRp414
ag1
(g365
g35
(I1
I0
ttRp415
ag1
(g365
g35
(I1
I0
ttRp416
ag1
(g365
g35
(I1
I0
ttRp417
ag1
(g365
g35
(I1
I0
ttRp418
ag1
(g365
g35
(I1
I0
ttRp419
ag1
(g365
g35
(I1
I0
ttRp420
ag1
(g365
g35
(I1
I0
ttRp421
ag1
(g365
g35
(I1
I0
ttRp422
ag1
(g365
g35
(I1
I0
ttRp423
ag1
(g365
g35
(I1
I0
ttRp424
ag1
(g365
g35
(I1
I0
ttRp425
ag1
(g365
g35
(I1
I0
ttRp426
ag1
(g365
g35
(I1
I0
ttRp427
ag1
(g365
g35
(I1
I0
ttRp428
ag1
(g365
g35
(I1
I0
ttRp429
aa(lp430
g1
(g365
g35
(I1
I0
ttRp431
ag1
(g365
g35
(I1
I0
ttRp432
ag1
(g365
g35
(I1
I0
ttRp433
ag1
(g365
g35
(I1
I0
ttRp434
ag1
(g365
g35
(I1
I0
ttRp435
ag1
(g365
g35
(I1
I0
ttRp436
ag1
(g365
g35
(I1
I0
ttRp437
ag1
(g365
g35
(I1
I0
ttRp438
ag1
(g365
g35
(I1
I0
ttRp439
ag1
(g365
g35
(I1
I0
ttRp440
ag1
(g365
g35
(I1
I0
ttRp441
ag1
(g365
g35
(I1
I0
ttRp442
ag1
(g365
g35
(I1
I0
ttRp443
ag1
(g365
g35
(I1
I0
ttRp444
ag1
(g365
g35
(I1
I0
ttRp445
ag1
(g365
g35
(I1
I0
ttRp446
ag1
(g365
g35
(I1
I0
ttRp447
ag1
(g365
g35
(I1
I0
ttRp448
ag1
(g365
g35
(I1
I0
ttRp449
ag1
(g365
g35
(I1
I0
ttRp450
ag1
(g365
g35
(I1
I0
ttRp451
ag1
(g365
g35
(I1
I0
ttRp452
ag1
(g365
g35
(I1
I0
ttRp453
ag1
(g365
g35
(I1
I0
ttRp454
ag1
(g365
g35
(I1
I0
ttRp455
ag1
(g365
g35
(I1
I0
ttRp456
ag1
(g365
g35
(I1
I0
ttRp457
ag1
(g365
g35
(I1
I0
ttRp458
ag1
(g365
g35
(I1
I0
ttRp459
ag1
(g365
g35
(I1
I0
ttRp460
ag1
(g365
g35
(I1
I0
ttRp461
ag1
(g365
g35
(I1
I0
ttRp462
ag1
(g365
g35
(I1
I0
ttRp463
ag1
(g365
g35
(I1
I0
ttRp464
ag1
(g365
g35
(I1
I0
ttRp465
ag1
(g365
g35
(I1
I0
ttRp466
ag1
(g365
g35
(I1
I0
ttRp467
ag1
(g365
g35
(I1
I0
ttRp468
ag1
(g365
g35
(I1
I0
ttRp469
ag1
(g365
g35
(I1
I0
ttRp470
ag1
(g365
g35
(I1
I0
ttRp471
ag1
(g365
g35
(I1
I0
ttRp472
ag1
(g365
g35
(I1
I0
ttRp473
ag1
(g365
g35
(I1
I0
ttRp474
ag1
(g365
g35
(I1
I0
ttRp475
ag1
(g365
g35
(I1
I0
ttRp476
ag1
(g365
g35
(I1
I0
ttRp477
ag1
(g365
g35
(I1
I0
ttRp478
ag1
(g365
g35
(I1
I0
ttRp479
ag1
(g365
g35
(I1
I0
ttRp480
ag1
(g365
g35
(I1
I0
ttRp481
ag1
(g365
g35
(I1
I0
ttRp482
ag1
(g365
g35
(I1
I0
ttRp483
ag1
(g365
g35
(I1
I0
ttRp484
ag1
(g365
g35
(I1
I0
ttRp485
ag1
(g365
g35
(I1
I0
ttRp486
ag1
(g365
g35
(I1
I0
ttRp487
ag1
(g365
g35
(I1
I0
ttRp488
ag1
(g365
g35
(I1
I0
ttRp489
ag1
(g365
g35
(I1
I0
ttRp490
ag1
(g365
g35
(I1
I0
ttRp491
ag1
(g365
g35
(I1
I0
ttRp492
ag1
(g365
g35
(I1
I0
ttRp493
ag1
(g365
g35
(I1
I0
ttRp494
aa(lp495
g1
(g365
g35
(I1
I0
ttRp496
ag1
(g365
g35
(I1
I0
ttRp497
ag1
(g365
g35
(I1
I0
ttRp498
ag1
(g365
g35
(I1
I0
ttRp499
ag1
(g365
g35
(I1
I0
ttRp500
ag1
(g365
g35
(I1
I0
ttRp501
ag1
(g365
g35
(I1
I0
ttRp502
ag1
(g365
g35
(I1
I0
ttRp503
ag1
(g365
g35
(I1
I0
ttRp504
ag1
(g365
g35
(I1
I0
ttRp505
ag1
(g365
g35
(I1
I0
ttRp506
ag1
(g365
g35
(I1
I0
ttRp507
ag1
(g365
g35
(I1
I0
ttRp508
ag1
(g365
g35
(I1
I0
ttRp509
ag1
(g365
g35
(I1
I0
ttRp510
ag1
(g365
g35
(I1
I0
ttRp511
ag1
(g365
g35
(I1
I0
ttRp512
ag1
(g365
g35
(I1
I0
ttRp513
ag1
(g365
g35
(I1
I0
ttRp514
ag1
(g365
g35
(I1
I0
ttRp515
ag1
(g365
g35
(I1
I0
ttRp516
ag1
(g365
g35
(I1
I0
ttRp517
ag1
(g365
g35
(I1
I0
ttRp518
ag1
(g365
g35
(I1
I0
ttRp519
ag1
(g365
g35
(I1
I0
ttRp520
ag1
(g365
g35
(I1
I0
ttRp521
ag1
(g365
g35
(I1
I0
ttRp522
ag1
(g365
g35
(I1
I0
ttRp523
ag1
(g365
g35
(I1
I0
ttRp524
ag1
(g365
g35
(I1
I0
ttRp525
ag1
(g365
g35
(I1
I0
ttRp526
ag1
(g365
g35
(I1
I0
ttRp527
ag1
(g365
g35
(I1
I0
ttRp528
ag1
(g365
g35
(I1
I0
ttRp529
ag1
(g365
g35
(I1
I0
ttRp530
ag1
(g365
g35
(I1
I0
ttRp531
ag1
(g365
g35
(I1
I0
ttRp532
ag1
(g365
g35
(I1
I0
ttRp533
ag1
(g365
g35
(I1
I0
ttRp534
ag1
(g365
g35
(I1
I0
ttRp535
ag1
(g365
g35
(I1
I0
ttRp536
ag1
(g365
g35
(I1
I0
ttRp537
ag1
(g365
g35
(I1
I0
ttRp538
ag1
(g365
g35
(I1
I0
ttRp539
ag1
(g365
g35
(I1
I0
ttRp540
ag1
(g365
g35
(I1
I0
ttRp541
ag1
(g365
g35
(I1
I0
ttRp542
ag1
(g365
g35
(I1
I0
ttRp543
ag1
(g365
g35
(I1
I0
ttRp544
ag1
(g365
g35
(I1
I0
ttRp545
ag1
(g365
g35
(I1
I0
ttRp546
ag1
(g365
g35
(I1
I0
ttRp547
ag1
(g365
g35
(I1
I0
ttRp548
ag1
(g365
g35
(I1
I0
ttRp549
ag1
(g365
g35
(I1
I0
ttRp550
ag1
(g365
g35
(I1
I0
ttRp551
ag1
(g365
g35
(I1
I0
ttRp552
ag1
(g365
g35
(I1
I0
ttRp553
ag1
(g365
g35
(I1
I0
ttRp554
ag1
(g365
g35
(I1
I0
ttRp555
ag1
(g365
g35
(I1
I0
ttRp556
ag1
(g365
g35
(I1
I0
ttRp557
ag1
(g365
g35
(I1
I0
ttRp558
ag1
(g365
g35
(I1
I0
ttRp559
aa(lp560
g1
(g365
g35
(I1
I0
ttRp561
ag1
(g365
g35
(I1
I0
ttRp562
ag1
(g365
g35
(I1
I0
ttRp563
ag1
(g365
g35
(I1
I0
ttRp564
ag1
(g365
g35
(I1
I0
ttRp565
ag1
(g365
g35
(I1
I0
ttRp566
ag1
(g365
g35
(I1
I0
ttRp567
ag1
(g365
g35
(I1
I0
ttRp568
ag1
(g365
g35
(I1
I0
ttRp569
ag1
(g365
g35
(I1
I0
ttRp570
ag1
(g365
g35
(I1
I0
ttRp571
ag1
(g365
g35
(I1
I0
ttRp572
ag1
(g365
g35
(I1
I0
ttRp573
ag1
(g365
g35
(I1
I0
ttRp574
ag1
(g365
g35
(I1
I0
ttRp575
ag1
(g365
g35
(I1
I0
ttRp576
ag1
(g365
g35
(I1
I0
ttRp577
ag1
(g365
g35
(I1
I0
ttRp578
ag1
(g365
g35
(I1
I0
ttRp579
ag1
(g365
g35
(I1
I0
ttRp580
ag1
(g365
g35
(I1
I0
ttRp581
ag1
(g365
g35
(I1
I0
ttRp582
ag1
(g365
g35
(I1
I0
ttRp583
ag1
(g365
g35
(I1
I0
ttRp584
ag1
(g365
g35
(I1
I0
ttRp585
ag1
(g365
g35
(I1
I0
ttRp586
ag1
(g365
g35
(I1
I0
ttRp587
ag1
(g365
g35
(I1
I0
ttRp588
ag1
(g365
g35
(I1
I0
ttRp589
ag1
(g365
g35
(I1
I0
ttRp590
ag1
(g365
g35
(I1
I0
ttRp591
ag1
(g365
g35
(I1
I0
ttRp592
ag1
(g365
g35
(I1
I0
ttRp593
ag1
(g365
g35
(I1
I0
ttRp594
ag1
(g365
g35
(I1
I0
ttRp595
ag1
(g365
g35
(I1
I0
ttRp596
ag1
(g365
g35
(I1
I0
ttRp597
ag1
(g365
g35
(I1
I0
ttRp598
ag1
(g365
g35
(I1
I0
ttRp599
ag1
(g365
g35
(I1
I0
ttRp600
ag1
(g365
g35
(I1
I0
ttRp601
ag1
(g365
g35
(I1
I0
ttRp602
ag1
(g365
g35
(I1
I0
ttRp603
ag1
(g365
g35
(I1
I0
ttRp604
ag1
(g365
g35
(I1
I0
ttRp605
ag1
(g365
g35
(I1
I0
ttRp606
ag1
(g365
g35
(I1
I0
ttRp607
ag1
(g365
g35
(I1
I0
ttRp608
ag1
(g365
g35
(I1
I0
ttRp609
ag1
(g365
g35
(I1
I0
ttRp610
ag1
(g365
g35
(I1
I0
ttRp611
ag1
(g365
g35
(I1
I0
ttRp612
ag1
(g365
g35
(I1
I0
ttRp613
ag1
(g365
g35
(I1
I0
ttRp614
ag1
(g365
g35
(I1
I0
ttRp615
ag1
(g365
g35
(I1
I0
ttRp616
ag1
(g365
g35
(I1
I0
ttRp617
ag1
(g365
g35
(I1
I0
ttRp618
ag1
(g365
g35
(I1
I0
ttRp619
ag1
(g365
g35
(I1
I0
ttRp620
ag1
(g365
g35
(I1
I0
ttRp621
ag1
(g365
g35
(I1
I0
ttRp622
ag1
(g365
g35
(I1
I0
ttRp623
ag1
(g365
g35
(I1
I0
ttRp624
aa(lp625
g1
(g365
g35
(I1
I0
ttRp626
ag1
(g365
g35
(I1
I0
ttRp627
ag1
(g365
g35
(I1
I0
ttRp628
ag1
(g365
g35
(I1
I0
ttRp629
ag1
(g365
g35
(I1
I0
ttRp630
ag1
(g365
g35
(I1
I0
ttRp631
ag1
(g365
g35
(I1
I0
ttRp632
ag1
(g365
g35
(I1
I0
ttRp633
ag1
(g365
g35
(I1
I0
ttRp634
ag1
(g365
g35
(I1
I0
ttRp635
ag1
(g365
g35
(I1
I0
ttRp636
ag1
(g365
g35
(I1
I0
ttRp637
ag1
(g365
g35
(I1
I0
ttRp638
ag1
(g365
g35
(I1
I0
ttRp639
ag1
(g365
g35
(I1
I0
ttRp640
ag1
(g365
g35
(I1
I0
ttRp641
ag1
(g365
g35
(I1
I0
ttRp642
ag1
(g365
g35
(I1
I0
ttRp643
ag1
(g365
g35
(I1
I0
ttRp644
ag1
(g365
g35
(I1
I0
ttRp645
ag1
(g365
g35
(I1
I0
ttRp646
ag1
(g365
g35
(I1
I0
ttRp647
ag1
(g365
g35
(I1
I0
ttRp648
ag1
(g365
g35
(I1
I0
ttRp649
ag1
(g365
g35
(I1
I0
ttRp650
ag1
(g365
g35
(I1
I0
ttRp651
ag1
(g365
g35
(I1
I0
ttRp652
ag1
(g365
g35
(I1
I0
ttRp653
ag1
(g365
g35
(I1
I0
ttRp654
ag1
(g365
g35
(I1
I0
ttRp655
ag1
(g365
g35
(I1
I0
ttRp656
ag1
(g365
g35
(I1
I0
ttRp657
ag1
(g365
g35
(I1
I0
ttRp658
ag1
(g365
g35
(I1
I0
ttRp659
ag1
(g365
g35
(I1
I0
ttRp660
ag1
(g365
g35
(I1
I0
ttRp661
ag1
(g365
g35
(I1
I0
ttRp662
ag1
(g365
g35
(I1
I0
ttRp663
ag1
(g365
g35
(I1
I0
ttRp664
ag1
(g365
g35
(I1
I0
ttRp665
ag1
(g365
g35
(I1
I0
ttRp666
ag1
(g365
g35
(I1
I0
ttRp667
ag1
(g365
g35
(I1
I0
ttRp668
ag1
(g365
g35
(I1
I0
ttRp669
ag1
(g365
g35
(I1
I0
ttRp670
ag1
(g365
g35
(I1
I0
ttRp671
ag1
(g365
g35
(I1
I0
ttRp672
ag1
(g365
g35
(I1
I0
ttRp673
ag1
(g365
g35
(I1
I0
ttRp674
ag1
(g365
g35
(I1
I0
ttRp675
ag1
(g365
g35
(I1
I0
ttRp676
ag1
(g365
g35
(I1
I0
ttRp677
ag1
(g365
g35
(I1
I0
ttRp678
ag1
(g365
g35
(I1
I0
ttRp679
ag1
(g365
g35
(I1
I0
ttRp680
ag1
(g365
g35
(I1
I0
ttRp681
ag1
(g365
g35
(I1
I0
ttRp682
ag1
(g365
g35
(I1
I0
ttRp683
ag1
(g365
g35
(I1
I0
ttRp684
ag1
(g365
g35
(I1
I0
ttRp685
ag1
(g365
g35
(I1
I0
ttRp686
ag1
(g365
g35
(I1
I0
ttRp687
ag1
(g365
g35
(I1
I0
ttRp688
ag1
(g365
g35
(I1
I0
ttRp689
aa(lp690
g1
(g365
g35
(I1
I0
ttRp691
ag1
(g365
g35
(I1
I0
ttRp692
ag1
(g365
g35
(I1
I0
ttRp693
ag1
(g365
g35
(I1
I0
ttRp694
ag1
(g365
g35
(I1
I0
ttRp695
ag1
(g365
g35
(I1
I0
ttRp696
ag1
(g365
g35
(I1
I0
ttRp697
ag1
(g365
g35
(I1
I0
ttRp698
ag1
(g365
g35
(I1
I0
ttRp699
ag1
(g365
g35
(I1
I0
ttRp700
ag1
(g365
g35
(I1
I0
ttRp701
ag1
(g365
g35
(I1
I0
ttRp702
ag1
(g365
g35
(I1
I0
ttRp703
ag1
(g365
g35
(I1
I0
ttRp704
ag1
(g365
g35
(I1
I0
ttRp705
ag1
(g365
g35
(I1
I0
ttRp706
ag1
(g365
g35
(I1
I0
ttRp707
ag1
(g365
g35
(I1
I0
ttRp708
ag1
(g365
g35
(I1
I0
ttRp709
ag1
(g365
g35
(I1
I0
ttRp710
ag1
(g365
g35
(I1
I0
ttRp711
ag1
(g365
g35
(I1
I0
ttRp712
ag1
(g365
g35
(I1
I0
ttRp713
ag1
(g365
g35
(I1
I0
ttRp714
ag1
(g365
g35
(I1
I0
ttRp715
ag1
(g365
g35
(I1
I0
ttRp716
ag1
(g365
g35
(I1
I0
ttRp717
ag1
(g365
g35
(I1
I0
ttRp718
ag1
(g365
g35
(I1
I0
ttRp719
ag1
(g365
g35
(I1
I0
ttRp720
ag1
(g365
g35
(I1
I0
ttRp721
ag1
(g365
g35
(I1
I0
ttRp722
ag1
(g365
g35
(I1
I0
ttRp723
ag1
(g365
g35
(I1
I0
ttRp724
ag1
(g365
g35
(I1
I0
ttRp725
ag1
(g365
g35
(I1
I0
ttRp726
ag1
(g365
g35
(I1
I0
ttRp727
ag1
(g365
g35
(I1
I0
ttRp728
ag1
(g365
g35
(I1
I0
ttRp729
ag1
(g365
g35
(I1
I0
ttRp730
ag1
(g365
g35
(I1
I0
ttRp731
ag1
(g365
g35
(I1
I0
ttRp732
ag1
(g365
g35
(I1
I0
ttRp733
ag1
(g365
g35
(I1
I0
ttRp734
ag1
(g365
g35
(I1
I0
ttRp735
ag1
(g365
g35
(I1
I0
ttRp736
ag1
(g365
g35
(I1
I0
ttRp737
ag1
(g365
g35
(I1
I0
ttRp738
ag1
(g365
g35
(I1
I0
ttRp739
ag1
(g365
g35
(I1
I0
ttRp740
ag1
(g365
g35
(I1
I0
ttRp741
ag1
(g365
g35
(I1
I0
ttRp742
ag1
(g365
g35
(I1
I0
ttRp743
ag1
(g365
g35
(I1
I0
ttRp744
ag1
(g365
g35
(I1
I0
ttRp745
ag1
(g365
g35
(I1
I0
ttRp746
ag1
(g365
g35
(I1
I0
ttRp747
ag1
(g365
g35
(I1
I0
ttRp748
ag1
(g365
g35
(I1
I0
ttRp749
ag1
(g365
g35
(I1
I0
ttRp750
ag1
(g365
g35
(I1
I0
ttRp751
ag1
(g365
g35
(I1
I0
ttRp752
ag1
(g365
g35
(I1
I0
ttRp753
ag1
(g365
g35
(I1
I0
ttRp754
aa(lp755
g1
(g365
g35
(I1
I0
ttRp756
ag1
(g365
g35
(I1
I0
ttRp757
ag1
(g365
g35
(I1
I0
ttRp758
ag1
(g365
g35
(I1
I0
ttRp759
ag1
(g365
g35
(I1
I0
ttRp760
ag1
(g365
g35
(I1
I0
ttRp761
ag1
(g365
g35
(I1
I0
ttRp762
ag1
(g365
g35
(I1
I0
ttRp763
ag1
(g365
g35
(I1
I0
ttRp764
ag1
(g365
g35
(I1
I0
ttRp765
ag1
(g365
g35
(I1
I0
ttRp766
ag1
(g365
g35
(I1
I0
ttRp767
ag1
(g365
g35
(I1
I0
ttRp768
ag1
(g365
g35
(I1
I0
ttRp769
ag1
(g365
g35
(I1
I0
ttRp770
ag1
(g365
g35
(I1
I0
ttRp771
ag1
(g365
g35
(I1
I0
ttRp772
ag1
(g365
g35
(I1
I0
ttRp773
ag1
(g365
g35
(I1
I0
ttRp774
ag1
(g365
g35
(I1
I0
ttRp775
ag1
(g365
g35
(I1
I0
ttRp776
ag1
(g365
g35
(I1
I0
ttRp777
ag1
(g365
g35
(I1
I0
ttRp778
ag1
(g365
g35
(I1
I0
ttRp779
ag1
(g365
g35
(I1
I0
ttRp780
ag1
(g365
g35
(I1
I0
ttRp781
ag1
(g365
g35
(I1
I0
ttRp782
ag1
(g365
g35
(I1
I0
ttRp783
ag1
(g365
g35
(I1
I0
ttRp784
ag1
(g365
g35
(I1
I0
ttRp785
ag1
(g365
g35
(I1
I0
ttRp786
ag1
(g365
g35
(I1
I0
ttRp787
ag1
(g365
g35
(I1
I0
ttRp788
ag1
(g365
g35
(I1
I0
ttRp789
ag1
(g365
g35
(I1
I0
ttRp790
ag1
(g365
g35
(I1
I0
ttRp791
ag1
(g365
g35
(I1
I0
ttRp792
ag1
(g365
g35
(I1
I0
ttRp793
ag1
(g365
g35
(I1
I0
ttRp794
ag1
(g365
g35
(I1
I0
ttRp795
ag1
(g365
g35
(I1
I0
ttRp796
ag1
(g365
g35
(I1
I0
ttRp797
ag1
(g365
g35
(I1
I0
ttRp798
ag1
(g365
g35
(I1
I0
ttRp799
ag1
(g365
g35
(I1
I0
ttRp800
ag1
(g365
g35
(I1
I0
ttRp801
ag1
(g365
g35
(I1
I0
ttRp802
ag1
(g365
g35
(I1
I0
ttRp803
ag1
(g365
g35
(I1
I0
ttRp804
ag1
(g365
g35
(I1
I0
ttRp805
ag1
(g365
g35
(I1
I11
ttRp806
ag1
(g365
g35
(I1
I0
ttRp807
ag1
(g365
g35
(I1
I0
ttRp808
ag1
(g365
g35
(I1
I0
ttRp809
ag1
(g365
g35
(I1
I0
ttRp810
ag1
(g365
g35
(I1
I0
ttRp811
ag1
(g365
g35
(I1
I0
ttRp812
ag1
(g365
g35
(I1
I0
ttRp813
ag1
(g365
g35
(I1
I0
ttRp814
ag1
(g365
g35
(I1
I0
ttRp815
ag1
(g365
g35
(I1
I0
ttRp816
ag1
(g365
g35
(I1
I0
ttRp817
ag1
(g365
g35
(I1
I0
ttRp818
ag1
(g365
g35
(I1
I0
ttRp819
aa(lp820
g1
(g365
g35
(I1
I0
ttRp821
ag1
(g365
g35
(I1
I0
ttRp822
ag1
(g365
g35
(I1
I0
ttRp823
ag1
(g365
g35
(I1
I0
ttRp824
ag1
(g365
g35
(I1
I0
ttRp825
ag1
(g365
g35
(I1
I0
ttRp826
ag1
(g365
g35
(I1
I0
ttRp827
ag1
(g365
g35
(I1
I0
ttRp828
ag1
(g365
g35
(I1
I-33
ttRp829
ag1
(g365
g35
(I1
I-25
ttRp830
ag1
(g365
g35
(I1
I-24
ttRp831
ag1
(g365
g35
(I1
I-21
ttRp832
ag1
(g365
g35
(I1
I-21
ttRp833
ag1
(g365
g35
(I1
I5
ttRp834
ag1
(g365
g35
(I1
I0
ttRp835
ag1
(g365
g35
(I1
I0
ttRp836
ag1
(g365
g35
(I1
I0
ttRp837
ag1
(g365
g35
(I1
I0
ttRp838
ag1
(g365
g35
(I1
I0
ttRp839
ag1
(g365
g35
(I1
I0
ttRp840
ag1
(g365
g35
(I1
I0
ttRp841
ag1
(g365
g35
(I1
I0
ttRp842
ag1
(g365
g35
(I1
I0
ttRp843
ag1
(g365
g35
(I1
I0
ttRp844
ag1
(g365
g35
(I1
I0
ttRp845
ag1
(g365
g35
(I1
I0
ttRp846
ag1
(g365
g35
(I1
I0
ttRp847
ag1
(g365
g35
(I1
I0
ttRp848
ag1
(g365
g35
(I1
I0
ttRp849
ag1
(g365
g35
(I1
I0
ttRp850
ag1
(g365
g35
(I1
I0
ttRp851
ag1
(g365
g35
(I1
I0
ttRp852
ag1
(g365
g35
(I1
I0
ttRp853
ag1
(g365
g35
(I1
I0
ttRp854
ag1
(g365
g35
(I1
I0
ttRp855
ag1
(g365
g35
(I1
I0
ttRp856
ag1
(g365
g35
(I1
I0
ttRp857
ag1
(g365
g35
(I1
I0
ttRp858
ag1
(g365
g35
(I1
I0
ttRp859
ag1
(g365
g35
(I1
I0
ttRp860
ag1
(g365
g35
(I1
I0
ttRp861
ag1
(g365
g35
(I1
I0
ttRp862
ag1
(g365
g35
(I1
I0
ttRp863
ag1
(g365
g35
(I1
I0
ttRp864
ag1
(g365
g35
(I1
I0
ttRp865
ag1
(g365
g35
(I1
I0
ttRp866
ag1
(g365
g35
(I1
I0
ttRp867
ag1
(g365
g35
(I1
I0
ttRp868
ag1
(g365
g35
(I1
I0
ttRp869
ag1
(g365
g35
(I1
I0
ttRp870
ag1
(g365
g35
(I1
I0
ttRp871
ag1
(g365
g35
(I1
I-23
ttRp872
ag1
(g365
g35
(I1
I-30
ttRp873
ag1
(g365
g35
(I1
I-16
ttRp874
ag1
(g365
g35
(I1
I-22
ttRp875
ag1
(g365
g35
(I1
I-36
ttRp876
ag1
(g365
g35
(I1
I0
ttRp877
ag1
(g365
g35
(I1
I0
ttRp878
ag1
(g365
g35
(I1
I0
ttRp879
ag1
(g365
g35
(I1
I0
ttRp880
ag1
(g365
g35
(I1
I0
ttRp881
ag1
(g365
g35
(I1
I0
ttRp882
ag1
(g365
g35
(I1
I0
ttRp883
ag1
(g365
g35
(I1
I0
ttRp884
aa(lp885
g1
(g365
g35
(I1
I0
ttRp886
ag1
(g365
g35
(I1
I0
ttRp887
ag1
(g365
g35
(I1
I0
ttRp888
ag1
(g365
g35
(I1
I0
ttRp889
ag1
(g365
g35
(I1
I0
ttRp890
ag1
(g365
g35
(I1
I0
ttRp891
ag1
(g365
g35
(I1
I0
ttRp892
ag1
(g365
g35
(I1
I0
ttRp893
ag1
(g365
g35
(I1
I0
ttRp894
ag1
(g365
g35
(I1
I6
ttRp895
ag1
(g365
g35
(I1
I0
ttRp896
ag1
(g365
g35
(I1
I0
ttRp897
ag1
(g365
g35
(I1
I0
ttRp898
ag1
(g365
g35
(I1
I0
ttRp899
ag1
(g365
g35
(I1
I0
ttRp900
ag1
(g365
g35
(I1
I0
ttRp901
ag1
(g365
g35
(I1
I15
ttRp902
ag1
(g365
g35
(I1
I0
ttRp903
ag1
(g365
g35
(I1
I0
ttRp904
ag1
(g365
g35
(I1
I0
ttRp905
ag1
(g365
g35
(I1
I17
ttRp906
ag1
(g365
g35
(I1
I0
ttRp907
ag1
(g365
g35
(I1
I0
ttRp908
ag1
(g365
g35
(I1
I0
ttRp909
ag1
(g365
g35
(I1
I0
ttRp910
ag1
(g365
g35
(I1
I0
ttRp911
ag1
(g365
g35
(I1
I0
ttRp912
ag1
(g365
g35
(I1
I0
ttRp913
ag1
(g365
g35
(I1
I0
ttRp914
ag1
(g365
g35
(I1
I0
ttRp915
ag1
(g365
g35
(I1
I0
ttRp916
ag1
(g365
g35
(I1
I0
ttRp917
ag1
(g365
g35
(I1
I0
ttRp918
ag1
(g365
g35
(I1
I0
ttRp919
ag1
(g365
g35
(I1
I0
ttRp920
ag1
(g365
g35
(I1
I0
ttRp921
ag1
(g365
g35
(I1
I0
ttRp922
ag1
(g365
g35
(I1
I0
ttRp923
ag1
(g365
g35
(I1
I0
ttRp924
ag1
(g365
g35
(I1
I0
ttRp925
ag1
(g365
g35
(I1
I0
ttRp926
ag1
(g365
g35
(I1
I0
ttRp927
ag1
(g365
g35
(I1
I0
ttRp928
ag1
(g365
g35
(I1
I0
ttRp929
ag1
(g365
g35
(I1
I0
ttRp930
ag1
(g365
g35
(I1
I0
ttRp931
ag1
(g365
g35
(I1
I0
ttRp932
ag1
(g365
g35
(I1
I0
ttRp933
ag1
(g365
g35
(I1
I0
ttRp934
ag1
(g365
g35
(I1
I0
ttRp935
ag1
(g365
g35
(I1
I0
ttRp936
ag1
(g365
g35
(I1
I13
ttRp937
ag1
(g365
g35
(I1
I12
ttRp938
ag1
(g365
g35
(I1
I0
ttRp939
ag1
(g365
g35
(I1
I0
ttRp940
ag1
(g365
g35
(I1
I0
ttRp941
ag1
(g365
g35
(I1
I0
ttRp942
ag1
(g365
g35
(I1
I0
ttRp943
ag1
(g365
g35
(I1
I0
ttRp944
ag1
(g365
g35
(I1
I0
ttRp945
ag1
(g365
g35
(I1
I0
ttRp946
ag1
(g365
g35
(I1
I0
ttRp947
ag1
(g365
g35
(I1
I0
ttRp948
ag1
(g365
g35
(I1
I0
ttRp949
aa(lp950
g1
(g365
g35
(I1
I0
ttRp951
ag1
(g365
g35
(I1
I0
ttRp952
ag1
(g365
g35
(I1
I0
ttRp953
ag1
(g365
g35
(I1
I0
ttRp954
ag1
(g365
g35
(I1
I0
ttRp955
ag1
(g365
g35
(I1
I0
ttRp956
ag1
(g365
g35
(I1
I0
ttRp957
ag1
(g365
g35
(I1
I0
ttRp958
ag1
(g365
g35
(I1
I0
ttRp959
ag1
(g365
g35
(I1
I0
ttRp960
ag1
(g365
g35
(I1
I4
ttRp961
ag1
(g365
g35
(I1
I0
ttRp962
ag1
(g365
g35
(I1
I0
ttRp963
ag1
(g365
g35
(I1
I22
ttRp964
ag1
(g365
g35
(I1
I0
ttRp965
ag1
(g365
g35
(I1
I7
ttRp966
ag1
(g365
g35
(I1
I18
ttRp967
ag1
(g365
g35
(I1
I0
ttRp968
ag1
(g365
g35
(I1
I0
ttRp969
ag1
(g365
g35
(I1
I0
ttRp970
ag1
(g365
g35
(I1
I14
ttRp971
ag1
(g365
g35
(I1
I16
ttRp972
ag1
(g365
g35
(I1
I0
ttRp973
ag1
(g365
g35
(I1
I0
ttRp974
ag1
(g365
g35
(I1
I0
ttRp975
ag1
(g365
g35
(I1
I0
ttRp976
ag1
(g365
g35
(I1
I0
ttRp977
ag1
(g365
g35
(I1
I0
ttRp978
ag1
(g365
g35
(I1
I0
ttRp979
ag1
(g365
g35
(I1
I0
ttRp980
ag1
(g365
g35
(I1
I0
ttRp981
ag1
(g365
g35
(I1
I0
ttRp982
ag1
(g365
g35
(I1
I0
ttRp983
ag1
(g365
g35
(I1
I0
ttRp984
ag1
(g365
g35
(I1
I0
ttRp985
ag1
(g365
g35
(I1
I0
ttRp986
ag1
(g365
g35
(I1
I0
ttRp987
ag1
(g365
g35
(I1
I0
ttRp988
ag1
(g365
g35
(I1
I0
ttRp989
ag1
(g365
g35
(I1
I0
ttRp990
ag1
(g365
g35
(I1
I0
ttRp991
ag1
(g365
g35
(I1
I0
ttRp992
ag1
(g365
g35
(I1
I0
ttRp993
ag1
(g365
g35
(I1
I0
ttRp994
ag1
(g365
g35
(I1
I0
ttRp995
ag1
(g365
g35
(I1
I0
ttRp996
ag1
(g365
g35
(I1
I0
ttRp997
ag1
(g365
g35
(I1
I0
ttRp998
ag1
(g365
g35
(I1
I0
ttRp999
ag1
(g365
g35
(I1
I0
ttRp1000
ag1
(g365
g35
(I1
I0
ttRp1001
ag1
(g365
g35
(I1
I0
ttRp1002
ag1
(g365
g35
(I1
I0
ttRp1003
ag1
(g365
g35
(I1
I10
ttRp1004
ag1
(g365
g35
(I1
I0
ttRp1005
ag1
(g365
g35
(I1
I0
ttRp1006
ag1
(g365
g35
(I1
I0
ttRp1007
ag1
(g365
g35
(I1
I0
ttRp1008
ag1
(g365
g35
(I1
I0
ttRp1009
ag1
(g365
g35
(I1
I0
ttRp1010
ag1
(g365
g35
(I1
I0
ttRp1011
ag1
(g365
g35
(I1
I0
ttRp1012
ag1
(g365
g35
(I1
I0
ttRp1013
ag1
(g365
g35
(I1
I0
ttRp1014
aa(lp1015
g1
(g365
g35
(I1
I0
ttRp1016
ag1
(g365
g35
(I1
I0
ttRp1017
ag1
(g365
g35
(I1
I0
ttRp1018
ag1
(g365
g35
(I1
I0
ttRp1019
ag1
(g365
g35
(I1
I0
ttRp1020
ag1
(g365
g35
(I1
I0
ttRp1021
ag1
(g365
g35
(I1
I0
ttRp1022
ag1
(g365
g35
(I1
I0
ttRp1023
ag1
(g365
g35
(I1
I0
ttRp1024
ag1
(g365
g35
(I1
I0
ttRp1025
ag1
(g365
g35
(I1
I2
ttRp1026
ag1
(g365
g35
(I1
I0
ttRp1027
ag1
(g365
g35
(I1
I3
ttRp1028
ag1
(g365
g35
(I1
I0
ttRp1029
ag1
(g365
g35
(I1
I0
ttRp1030
ag1
(g365
g35
(I1
I0
ttRp1031
ag1
(g365
g35
(I1
I20
ttRp1032
ag1
(g365
g35
(I1
I0
ttRp1033
ag1
(g365
g35
(I1
I0
ttRp1034
ag1
(g365
g35
(I1
I0
ttRp1035
ag1
(g365
g35
(I1
I0
ttRp1036
ag1
(g365
g35
(I1
I-1
ttRp1037
ag1
(g365
g35
(I1
I0
ttRp1038
ag1
(g365
g35
(I1
I-1
ttRp1039
ag1
(g365
g35
(I1
I0
ttRp1040
ag1
(g365
g35
(I1
I-1
ttRp1041
ag1
(g365
g35
(I1
I0
ttRp1042
ag1
(g365
g35
(I1
I-1
ttRp1043
ag1
(g365
g35
(I1
I-1
ttRp1044
ag1
(g365
g35
(I1
I0
ttRp1045
ag1
(g365
g35
(I1
I0
ttRp1046
ag1
(g365
g35
(I1
I-1
ttRp1047
ag1
(g365
g35
(I1
I-1
ttRp1048
ag1
(g365
g35
(I1
I-1
ttRp1049
ag1
(g365
g35
(I1
I0
ttRp1050
ag1
(g365
g35
(I1
I-1
ttRp1051
ag1
(g365
g35
(I1
I-1
ttRp1052
ag1
(g365
g35
(I1
I-1
ttRp1053
ag1
(g365
g35
(I1
I-1
ttRp1054
ag1
(g365
g35
(I1
I0
ttRp1055
ag1
(g365
g35
(I1
I-1
ttRp1056
ag1
(g365
g35
(I1
I0
ttRp1057
ag1
(g365
g35
(I1
I-1
ttRp1058
ag1
(g365
g35
(I1
I0
ttRp1059
ag1
(g365
g35
(I1
I0
ttRp1060
ag1
(g365
g35
(I1
I0
ttRp1061
ag1
(g365
g35
(I1
I0
ttRp1062
ag1
(g365
g35
(I1
I0
ttRp1063
ag1
(g365
g35
(I1
I0
ttRp1064
ag1
(g365
g35
(I1
I0
ttRp1065
ag1
(g365
g35
(I1
I0
ttRp1066
ag1
(g365
g35
(I1
I0
ttRp1067
ag1
(g365
g35
(I1
I0
ttRp1068
ag1
(g365
g35
(I1
I9
ttRp1069
ag1
(g365
g35
(I1
I21
ttRp1070
ag1
(g365
g35
(I1
I0
ttRp1071
ag1
(g365
g35
(I1
I0
ttRp1072
ag1
(g365
g35
(I1
I0
ttRp1073
ag1
(g365
g35
(I1
I0
ttRp1074
ag1
(g365
g35
(I1
I0
ttRp1075
ag1
(g365
g35
(I1
I0
ttRp1076
ag1
(g365
g35
(I1
I0
ttRp1077
ag1
(g365
g35
(I1
I0
ttRp1078
ag1
(g365
g35
(I1
I0
ttRp1079
aa(lp1080
g1
(g365
g35
(I1
I0
ttRp1081
ag1
(g365
g35
(I1
I0
ttRp1082
ag1
(g365
g35
(I1
I0
ttRp1083
ag1
(g365
g35
(I1
I0
ttRp1084
ag1
(g365
g35
(I1
I0
ttRp1085
ag1
(g365
g35
(I1
I0
ttRp1086
ag1
(g365
g35
(I1
I0
ttRp1087
ag1
(g365
g35
(I1
I0
ttRp1088
ag1
(g365
g35
(I1
I0
ttRp1089
ag1
(g365
g35
(I1
I0
ttRp1090
ag1
(g365
g35
(I1
I0
ttRp1091
ag1
(g365
g35
(I1
I0
ttRp1092
ag1
(g365
g35
(I1
I0
ttRp1093
ag1
(g365
g35
(I1
I0
ttRp1094
ag1
(g365
g35
(I1
I0
ttRp1095
ag1
(g365
g35
(I1
I0
ttRp1096
ag1
(g365
g35
(I1
I0
ttRp1097
ag1
(g365
g35
(I1
I0
ttRp1098
ag1
(g365
g35
(I1
I0
ttRp1099
ag1
(g365
g35
(I1
I0
ttRp1100
ag1
(g365
g35
(I1
I0
ttRp1101
ag1
(g365
g35
(I1
I0
ttRp1102
ag1
(g365
g35
(I1
I-1
ttRp1103
ag1
(g365
g35
(I1
I-1
ttRp1104
ag1
(g365
g35
(I1
I-1
ttRp1105
ag1
(g365
g35
(I1
I-1
ttRp1106
ag1
(g365
g35
(I1
I-1
ttRp1107
ag1
(g365
g35
(I1
I-1
ttRp1108
ag1
(g365
g35
(I1
I-1
ttRp1109
ag1
(g365
g35
(I1
I0
ttRp1110
ag1
(g365
g35
(I1
I0
ttRp1111
ag1
(g365
g35
(I1
I0
ttRp1112
ag1
(g365
g35
(I1
I-1
ttRp1113
ag1
(g365
g35
(I1
I0
ttRp1114
ag1
(g365
g35
(I1
I-1
ttRp1115
ag1
(g365
g35
(I1
I0
ttRp1116
ag1
(g365
g35
(I1
I-1
ttRp1117
ag1
(g365
g35
(I1
I0
ttRp1118
ag1
(g365
g35
(I1
I0
ttRp1119
ag1
(g365
g35
(I1
I-1
ttRp1120
ag1
(g365
g35
(I1
I-1
ttRp1121
ag1
(g365
g35
(I1
I-1
ttRp1122
ag1
(g365
g35
(I1
I-1
ttRp1123
ag1
(g365
g35
(I1
I-1
ttRp1124
ag1
(g365
g35
(I1
I0
ttRp1125
ag1
(g365
g35
(I1
I0
ttRp1126
ag1
(g365
g35
(I1
I0
ttRp1127
ag1
(g365
g35
(I1
I0
ttRp1128
ag1
(g365
g35
(I1
I0
ttRp1129
ag1
(g365
g35
(I1
I0
ttRp1130
ag1
(g365
g35
(I1
I0
ttRp1131
ag1
(g365
g35
(I1
I0
ttRp1132
ag1
(g365
g35
(I1
I0
ttRp1133
ag1
(g365
g35
(I1
I19
ttRp1134
ag1
(g365
g35
(I1
I0
ttRp1135
ag1
(g365
g35
(I1
I0
ttRp1136
ag1
(g365
g35
(I1
I0
ttRp1137
ag1
(g365
g35
(I1
I0
ttRp1138
ag1
(g365
g35
(I1
I0
ttRp1139
ag1
(g365
g35
(I1
I0
ttRp1140
ag1
(g365
g35
(I1
I0
ttRp1141
ag1
(g365
g35
(I1
I0
ttRp1142
ag1
(g365
g35
(I1
I0
ttRp1143
ag1
(g365
g35
(I1
I0
ttRp1144
aa(lp1145
g1
(g365
g35
(I1
I0
ttRp1146
ag1
(g365
g35
(I1
I0
ttRp1147
ag1
(g365
g35
(I1
I0
ttRp1148
ag1
(g365
g35
(I1
I0
ttRp1149
ag1
(g365
g35
(I1
I0
ttRp1150
ag1
(g365
g35
(I1
I0
ttRp1151
ag1
(g365
g35
(I1
I0
ttRp1152
ag1
(g365
g35
(I1
I0
ttRp1153
ag1
(g365
g35
(I1
I0
ttRp1154
ag1
(g365
g35
(I1
I0
ttRp1155
ag1
(g365
g35
(I1
I0
ttRp1156
ag1
(g365
g35
(I1
I0
ttRp1157
ag1
(g365
g35
(I1
I0
ttRp1158
ag1
(g365
g35
(I1
I0
ttRp1159
ag1
(g365
g35
(I1
I0
ttRp1160
ag1
(g365
g35
(I1
I0
ttRp1161
ag1
(g365
g35
(I1
I0
ttRp1162
ag1
(g365
g35
(I1
I0
ttRp1163
ag1
(g365
g35
(I1
I0
ttRp1164
ag1
(g365
g35
(I1
I0
ttRp1165
ag1
(g365
g35
(I1
I0
ttRp1166
ag1
(g365
g35
(I1
I0
ttRp1167
ag1
(g365
g35
(I1
I0
ttRp1168
ag1
(g365
g35
(I1
I-1
ttRp1169
ag1
(g365
g35
(I1
I0
ttRp1170
ag1
(g365
g35
(I1
I-1
ttRp1171
ag1
(g365
g35
(I1
I-1
ttRp1172
ag1
(g365
g35
(I1
I0
ttRp1173
ag1
(g365
g35
(I1
I-1
ttRp1174
ag1
(g365
g35
(I1
I-1
ttRp1175
ag1
(g365
g35
(I1
I-1
ttRp1176
ag1
(g365
g35
(I1
I-1
ttRp1177
ag1
(g365
g35
(I1
I-1
ttRp1178
ag1
(g365
g35
(I1
I0
ttRp1179
ag1
(g365
g35
(I1
I-1
ttRp1180
ag1
(g365
g35
(I1
I-1
ttRp1181
ag1
(g365
g35
(I1
I0
ttRp1182
ag1
(g365
g35
(I1
I-1
ttRp1183
ag1
(g365
g35
(I1
I0
ttRp1184
ag1
(g365
g35
(I1
I0
ttRp1185
ag1
(g365
g35
(I1
I-1
ttRp1186
ag1
(g365
g35
(I1
I-1
ttRp1187
ag1
(g365
g35
(I1
I-1
ttRp1188
ag1
(g365
g35
(I1
I0
ttRp1189
ag1
(g365
g35
(I1
I0
ttRp1190
ag1
(g365
g35
(I1
I0
ttRp1191
ag1
(g365
g35
(I1
I0
ttRp1192
ag1
(g365
g35
(I1
I0
ttRp1193
ag1
(g365
g35
(I1
I0
ttRp1194
ag1
(g365
g35
(I1
I0
ttRp1195
ag1
(g365
g35
(I1
I0
ttRp1196
ag1
(g365
g35
(I1
I0
ttRp1197
ag1
(g365
g35
(I1
I0
ttRp1198
ag1
(g365
g35
(I1
I0
ttRp1199
ag1
(g365
g35
(I1
I0
ttRp1200
ag1
(g365
g35
(I1
I0
ttRp1201
ag1
(g365
g35
(I1
I0
ttRp1202
ag1
(g365
g35
(I1
I0
ttRp1203
ag1
(g365
g35
(I1
I0
ttRp1204
ag1
(g365
g35
(I1
I0
ttRp1205
ag1
(g365
g35
(I1
I0
ttRp1206
ag1
(g365
g35
(I1
I0
ttRp1207
ag1
(g365
g35
(I1
I0
ttRp1208
ag1
(g365
g35
(I1
I0
ttRp1209
aa(lp1210
g1
(g365
g35
(I1
I0
ttRp1211
ag1
(g365
g35
(I1
I0
ttRp1212
ag1
(g365
g35
(I1
I0
ttRp1213
ag1
(g365
g35
(I1
I0
ttRp1214
ag1
(g365
g35
(I1
I0
ttRp1215
ag1
(g365
g35
(I1
I0
ttRp1216
ag1
(g365
g35
(I1
I0
ttRp1217
ag1
(g365
g35
(I1
I0
ttRp1218
ag1
(g365
g35
(I1
I0
ttRp1219
ag1
(g365
g35
(I1
I0
ttRp1220
ag1
(g365
g35
(I1
I0
ttRp1221
ag1
(g365
g35
(I1
I0
ttRp1222
ag1
(g365
g35
(I1
I0
ttRp1223
ag1
(g365
g35
(I1
I0
ttRp1224
ag1
(g365
g35
(I1
I0
ttRp1225
ag1
(g365
g35
(I1
I0
ttRp1226
ag1
(g365
g35
(I1
I0
ttRp1227
ag1
(g365
g35
(I1
I0
ttRp1228
ag1
(g365
g35
(I1
I0
ttRp1229
ag1
(g365
g35
(I1
I0
ttRp1230
ag1
(g365
g35
(I1
I0
ttRp1231
ag1
(g365
g35
(I1
I0
ttRp1232
ag1
(g365
g35
(I1
I0
ttRp1233
ag1
(g365
g35
(I1
I0
ttRp1234
ag1
(g365
g35
(I1
I-1
ttRp1235
ag1
(g365
g35
(I1
I-1
ttRp1236
ag1
(g365
g35
(I1
I0
ttRp1237
ag1
(g365
g35
(I1
I-1
ttRp1238
ag1
(g365
g35
(I1
I-1
ttRp1239
ag1
(g365
g35
(I1
I-1
ttRp1240
ag1
(g365
g35
(I1
I-1
ttRp1241
ag1
(g365
g35
(I1
I-1
ttRp1242
ag1
(g365
g35
(I1
I0
ttRp1243
ag1
(g365
g35
(I1
I-1
ttRp1244
ag1
(g365
g35
(I1
I-1
ttRp1245
ag1
(g365
g35
(I1
I0
ttRp1246
ag1
(g365
g35
(I1
I-1
ttRp1247
ag1
(g365
g35
(I1
I0
ttRp1248
ag1
(g365
g35
(I1
I-1
ttRp1249
ag1
(g365
g35
(I1
I-1
ttRp1250
ag1
(g365
g35
(I1
I-1
ttRp1251
ag1
(g365
g35
(I1
I0
ttRp1252
ag1
(g365
g35
(I1
I0
ttRp1253
ag1
(g365
g35
(I1
I0
ttRp1254
ag1
(g365
g35
(I1
I0
ttRp1255
ag1
(g365
g35
(I1
I0
ttRp1256
ag1
(g365
g35
(I1
I0
ttRp1257
ag1
(g365
g35
(I1
I0
ttRp1258
ag1
(g365
g35
(I1
I0
ttRp1259
ag1
(g365
g35
(I1
I0
ttRp1260
ag1
(g365
g35
(I1
I0
ttRp1261
ag1
(g365
g35
(I1
I0
ttRp1262
ag1
(g365
g35
(I1
I0
ttRp1263
ag1
(g365
g35
(I1
I0
ttRp1264
ag1
(g365
g35
(I1
I0
ttRp1265
ag1
(g365
g35
(I1
I0
ttRp1266
ag1
(g365
g35
(I1
I0
ttRp1267
ag1
(g365
g35
(I1
I0
ttRp1268
ag1
(g365
g35
(I1
I0
ttRp1269
ag1
(g365
g35
(I1
I0
ttRp1270
ag1
(g365
g35
(I1
I0
ttRp1271
ag1
(g365
g35
(I1
I0
ttRp1272
ag1
(g365
g35
(I1
I0
ttRp1273
ag1
(g365
g35
(I1
I0
ttRp1274
aa(lp1275
g1
(g365
g35
(I1
I0
ttRp1276
ag1
(g365
g35
(I1
I0
ttRp1277
ag1
(g365
g35
(I1
I0
ttRp1278
ag1
(g365
g35
(I1
I0
ttRp1279
ag1
(g365
g35
(I1
I0
ttRp1280
ag1
(g365
g35
(I1
I0
ttRp1281
ag1
(g365
g35
(I1
I0
ttRp1282
ag1
(g365
g35
(I1
I0
ttRp1283
ag1
(g365
g35
(I1
I0
ttRp1284
ag1
(g365
g35
(I1
I0
ttRp1285
ag1
(g365
g35
(I1
I0
ttRp1286
ag1
(g365
g35
(I1
I0
ttRp1287
ag1
(g365
g35
(I1
I0
ttRp1288
ag1
(g365
g35
(I1
I0
ttRp1289
ag1
(g365
g35
(I1
I0
ttRp1290
ag1
(g365
g35
(I1
I0
ttRp1291
ag1
(g365
g35
(I1
I0
ttRp1292
ag1
(g365
g35
(I1
I0
ttRp1293
ag1
(g365
g35
(I1
I0
ttRp1294
ag1
(g365
g35
(I1
I0
ttRp1295
ag1
(g365
g35
(I1
I0
ttRp1296
ag1
(g365
g35
(I1
I0
ttRp1297
ag1
(g365
g35
(I1
I0
ttRp1298
ag1
(g365
g35
(I1
I0
ttRp1299
ag1
(g365
g35
(I1
I0
ttRp1300
ag1
(g365
g35
(I1
I-1
ttRp1301
ag1
(g365
g35
(I1
I-1
ttRp1302
ag1
(g365
g35
(I1
I0
ttRp1303
ag1
(g365
g35
(I1
I-1
ttRp1304
ag1
(g365
g35
(I1
I0
ttRp1305
ag1
(g365
g35
(I1
I-1
ttRp1306
ag1
(g365
g35
(I1
I-1
ttRp1307
ag1
(g365
g35
(I1
I0
ttRp1308
ag1
(g365
g35
(I1
I-1
ttRp1309
ag1
(g365
g35
(I1
I-1
ttRp1310
ag1
(g365
g35
(I1
I0
ttRp1311
ag1
(g365
g35
(I1
I-1
ttRp1312
ag1
(g365
g35
(I1
I-1
ttRp1313
ag1
(g365
g35
(I1
I0
ttRp1314
ag1
(g365
g35
(I1
I-1
ttRp1315
ag1
(g365
g35
(I1
I-1
ttRp1316
ag1
(g365
g35
(I1
I0
ttRp1317
ag1
(g365
g35
(I1
I0
ttRp1318
ag1
(g365
g35
(I1
I0
ttRp1319
ag1
(g365
g35
(I1
I0
ttRp1320
ag1
(g365
g35
(I1
I0
ttRp1321
ag1
(g365
g35
(I1
I0
ttRp1322
ag1
(g365
g35
(I1
I0
ttRp1323
ag1
(g365
g35
(I1
I0
ttRp1324
ag1
(g365
g35
(I1
I0
ttRp1325
ag1
(g365
g35
(I1
I0
ttRp1326
ag1
(g365
g35
(I1
I0
ttRp1327
ag1
(g365
g35
(I1
I0
ttRp1328
ag1
(g365
g35
(I1
I0
ttRp1329
ag1
(g365
g35
(I1
I0
ttRp1330
ag1
(g365
g35
(I1
I0
ttRp1331
ag1
(g365
g35
(I1
I0
ttRp1332
ag1
(g365
g35
(I1
I0
ttRp1333
ag1
(g365
g35
(I1
I0
ttRp1334
ag1
(g365
g35
(I1
I0
ttRp1335
ag1
(g365
g35
(I1
I0
ttRp1336
ag1
(g365
g35
(I1
I0
ttRp1337
ag1
(g365
g35
(I1
I0
ttRp1338
ag1
(g365
g35
(I1
I0
ttRp1339
aa(lp1340
g1
(g365
g35
(I1
I0
ttRp1341
ag1
(g365
g35
(I1
I0
ttRp1342
ag1
(g365
g35
(I1
I0
ttRp1343
ag1
(g365
g35
(I1
I0
ttRp1344
ag1
(g365
g35
(I1
I0
ttRp1345
ag1
(g365
g35
(I1
I0
ttRp1346
ag1
(g365
g35
(I1
I0
ttRp1347
ag1
(g365
g35
(I1
I0
ttRp1348
ag1
(g365
g35
(I1
I0
ttRp1349
ag1
(g365
g35
(I1
I0
ttRp1350
ag1
(g365
g35
(I1
I0
ttRp1351
ag1
(g365
g35
(I1
I0
ttRp1352
ag1
(g365
g35
(I1
I0
ttRp1353
ag1
(g365
g35
(I1
I0
ttRp1354
ag1
(g365
g35
(I1
I0
ttRp1355
ag1
(g365
g35
(I1
I0
ttRp1356
ag1
(g365
g35
(I1
I0
ttRp1357
ag1
(g365
g35
(I1
I0
ttRp1358
ag1
(g365
g35
(I1
I0
ttRp1359
ag1
(g365
g35
(I1
I0
ttRp1360
ag1
(g365
g35
(I1
I0
ttRp1361
ag1
(g365
g35
(I1
I0
ttRp1362
ag1
(g365
g35
(I1
I0
ttRp1363
ag1
(g365
g35
(I1
I0
ttRp1364
ag1
(g365
g35
(I1
I0
ttRp1365
ag1
(g365
g35
(I1
I0
ttRp1366
ag1
(g365
g35
(I1
I-1
ttRp1367
ag1
(g365
g35
(I1
I-1
ttRp1368
ag1
(g365
g35
(I1
I0
ttRp1369
ag1
(g365
g35
(I1
I0
ttRp1370
ag1
(g365
g35
(I1
I-1
ttRp1371
ag1
(g365
g35
(I1
I-1
ttRp1372
ag1
(g365
g35
(I1
I-1
ttRp1373
ag1
(g365
g35
(I1
I-1
ttRp1374
ag1
(g365
g35
(I1
I0
ttRp1375
ag1
(g365
g35
(I1
I0
ttRp1376
ag1
(g365
g35
(I1
I-1
ttRp1377
ag1
(g365
g35
(I1
I0
ttRp1378
ag1
(g365
g35
(I1
I0
ttRp1379
ag1
(g365
g35
(I1
I-1
ttRp1380
ag1
(g365
g35
(I1
I0
ttRp1381
ag1
(g365
g35
(I1
I0
ttRp1382
ag1
(g365
g35
(I1
I0
ttRp1383
ag1
(g365
g35
(I1
I0
ttRp1384
ag1
(g365
g35
(I1
I0
ttRp1385
ag1
(g365
g35
(I1
I0
ttRp1386
ag1
(g365
g35
(I1
I0
ttRp1387
ag1
(g365
g35
(I1
I0
ttRp1388
ag1
(g365
g35
(I1
I0
ttRp1389
ag1
(g365
g35
(I1
I0
ttRp1390
ag1
(g365
g35
(I1
I0
ttRp1391
ag1
(g365
g35
(I1
I0
ttRp1392
ag1
(g365
g35
(I1
I0
ttRp1393
ag1
(g365
g35
(I1
I0
ttRp1394
ag1
(g365
g35
(I1
I0
ttRp1395
ag1
(g365
g35
(I1
I0
ttRp1396
ag1
(g365
g35
(I1
I0
ttRp1397
ag1
(g365
g35
(I1
I0
ttRp1398
ag1
(g365
g35
(I1
I0
ttRp1399
ag1
(g365
g35
(I1
I0
ttRp1400
ag1
(g365
g35
(I1
I0
ttRp1401
ag1
(g365
g35
(I1
I0
ttRp1402
ag1
(g365
g35
(I1
I0
ttRp1403
ag1
(g365
g35
(I1
I0
ttRp1404
aa(lp1405
g1
(g365
g35
(I1
I0
ttRp1406
ag1
(g365
g35
(I1
I0
ttRp1407
ag1
(g365
g35
(I1
I0
ttRp1408
ag1
(g365
g35
(I1
I0
ttRp1409
ag1
(g365
g35
(I1
I0
ttRp1410
ag1
(g365
g35
(I1
I0
ttRp1411
ag1
(g365
g35
(I1
I0
ttRp1412
ag1
(g365
g35
(I1
I0
ttRp1413
ag1
(g365
g35
(I1
I0
ttRp1414
ag1
(g365
g35
(I1
I0
ttRp1415
ag1
(g365
g35
(I1
I0
ttRp1416
ag1
(g365
g35
(I1
I0
ttRp1417
ag1
(g365
g35
(I1
I0
ttRp1418
ag1
(g365
g35
(I1
I0
ttRp1419
ag1
(g365
g35
(I1
I0
ttRp1420
ag1
(g365
g35
(I1
I0
ttRp1421
ag1
(g365
g35
(I1
I0
ttRp1422
ag1
(g365
g35
(I1
I0
ttRp1423
ag1
(g365
g35
(I1
I0
ttRp1424
ag1
(g365
g35
(I1
I0
ttRp1425
ag1
(g365
g35
(I1
I0
ttRp1426
ag1
(g365
g35
(I1
I0
ttRp1427
ag1
(g365
g35
(I1
I0
ttRp1428
ag1
(g365
g35
(I1
I0
ttRp1429
ag1
(g365
g35
(I1
I0
ttRp1430
ag1
(g365
g35
(I1
I0
ttRp1431
ag1
(g365
g35
(I1
I0
ttRp1432
ag1
(g365
g35
(I1
I-1
ttRp1433
ag1
(g365
g35
(I1
I0
ttRp1434
ag1
(g365
g35
(I1
I0
ttRp1435
ag1
(g365
g35
(I1
I-1
ttRp1436
ag1
(g365
g35
(I1
I-1
ttRp1437
ag1
(g365
g35
(I1
I0
ttRp1438
ag1
(g365
g35
(I1
I-1
ttRp1439
ag1
(g365
g35
(I1
I-1
ttRp1440
ag1
(g365
g35
(I1
I0
ttRp1441
ag1
(g365
g35
(I1
I-1
ttRp1442
ag1
(g365
g35
(I1
I0
ttRp1443
ag1
(g365
g35
(I1
I0
ttRp1444
ag1
(g365
g35
(I1
I0
ttRp1445
ag1
(g365
g35
(I1
I0
ttRp1446
ag1
(g365
g35
(I1
I0
ttRp1447
ag1
(g365
g35
(I1
I0
ttRp1448
ag1
(g365
g35
(I1
I0
ttRp1449
ag1
(g365
g35
(I1
I0
ttRp1450
ag1
(g365
g35
(I1
I0
ttRp1451
ag1
(g365
g35
(I1
I0
ttRp1452
ag1
(g365
g35
(I1
I0
ttRp1453
ag1
(g365
g35
(I1
I0
ttRp1454
ag1
(g365
g35
(I1
I0
ttRp1455
ag1
(g365
g35
(I1
I0
ttRp1456
ag1
(g365
g35
(I1
I0
ttRp1457
ag1
(g365
g35
(I1
I0
ttRp1458
ag1
(g365
g35
(I1
I0
ttRp1459
ag1
(g365
g35
(I1
I0
ttRp1460
ag1
(g365
g35
(I1
I0
ttRp1461
ag1
(g365
g35
(I1
I0
ttRp1462
ag1
(g365
g35
(I1
I0
ttRp1463
ag1
(g365
g35
(I1
I0
ttRp1464
ag1
(g365
g35
(I1
I0
ttRp1465
ag1
(g365
g35
(I1
I0
ttRp1466
ag1
(g365
g35
(I1
I0
ttRp1467
ag1
(g365
g35
(I1
I0
ttRp1468
ag1
(g365
g35
(I1
I0
ttRp1469
aa(lp1470
g1
(g365
g35
(I1
I0
ttRp1471
ag1
(g365
g35
(I1
I0
ttRp1472
ag1
(g365
g35
(I1
I0
ttRp1473
ag1
(g365
g35
(I1
I0
ttRp1474
ag1
(g365
g35
(I1
I0
ttRp1475
ag1
(g365
g35
(I1
I0
ttRp1476
ag1
(g365
g35
(I1
I0
ttRp1477
ag1
(g365
g35
(I1
I0
ttRp1478
ag1
(g365
g35
(I1
I0
ttRp1479
ag1
(g365
g35
(I1
I0
ttRp1480
ag1
(g365
g35
(I1
I0
ttRp1481
ag1
(g365
g35
(I1
I0
ttRp1482
ag1
(g365
g35
(I1
I0
ttRp1483
ag1
(g365
g35
(I1
I0
ttRp1484
ag1
(g365
g35
(I1
I0
ttRp1485
ag1
(g365
g35
(I1
I0
ttRp1486
ag1
(g365
g35
(I1
I0
ttRp1487
ag1
(g365
g35
(I1
I0
ttRp1488
ag1
(g365
g35
(I1
I0
ttRp1489
ag1
(g365
g35
(I1
I0
ttRp1490
ag1
(g365
g35
(I1
I0
ttRp1491
ag1
(g365
g35
(I1
I0
ttRp1492
ag1
(g365
g35
(I1
I0
ttRp1493
ag1
(g365
g35
(I1
I0
ttRp1494
ag1
(g365
g35
(I1
I0
ttRp1495
ag1
(g365
g35
(I1
I0
ttRp1496
ag1
(g365
g35
(I1
I0
ttRp1497
ag1
(g365
g35
(I1
I0
ttRp1498
ag1
(g365
g35
(I1
I0
ttRp1499
ag1
(g365
g35
(I1
I0
ttRp1500
ag1
(g365
g35
(I1
I0
ttRp1501
ag1
(g365
g35
(I1
I0
ttRp1502
ag1
(g365
g35
(I1
I-1
ttRp1503
ag1
(g365
g35
(I1
I-1
ttRp1504
ag1
(g365
g35
(I1
I-1
ttRp1505
ag1
(g365
g35
(I1
I-1
ttRp1506
ag1
(g365
g35
(I1
I0
ttRp1507
ag1
(g365
g35
(I1
I0
ttRp1508
ag1
(g365
g35
(I1
I0
ttRp1509
ag1
(g365
g35
(I1
I0
ttRp1510
ag1
(g365
g35
(I1
I0
ttRp1511
ag1
(g365
g35
(I1
I0
ttRp1512
ag1
(g365
g35
(I1
I0
ttRp1513
ag1
(g365
g35
(I1
I0
ttRp1514
ag1
(g365
g35
(I1
I0
ttRp1515
ag1
(g365
g35
(I1
I0
ttRp1516
ag1
(g365
g35
(I1
I0
ttRp1517
ag1
(g365
g35
(I1
I0
ttRp1518
ag1
(g365
g35
(I1
I0
ttRp1519
ag1
(g365
g35
(I1
I0
ttRp1520
ag1
(g365
g35
(I1
I0
ttRp1521
ag1
(g365
g35
(I1
I0
ttRp1522
ag1
(g365
g35
(I1
I0
ttRp1523
ag1
(g365
g35
(I1
I0
ttRp1524
ag1
(g365
g35
(I1
I0
ttRp1525
ag1
(g365
g35
(I1
I0
ttRp1526
ag1
(g365
g35
(I1
I0
ttRp1527
ag1
(g365
g35
(I1
I0
ttRp1528
ag1
(g365
g35
(I1
I0
ttRp1529
ag1
(g365
g35
(I1
I0
ttRp1530
ag1
(g365
g35
(I1
I0
ttRp1531
ag1
(g365
g35
(I1
I0
ttRp1532
ag1
(g365
g35
(I1
I0
ttRp1533
ag1
(g365
g35
(I1
I0
ttRp1534
aa(lp1535
g1
(g365
g35
(I1
I0
ttRp1536
ag1
(g365
g35
(I1
I0
ttRp1537
ag1
(g365
g35
(I1
I0
ttRp1538
ag1
(g365
g35
(I1
I0
ttRp1539
ag1
(g365
g35
(I1
I0
ttRp1540
ag1
(g365
g35
(I1
I0
ttRp1541
ag1
(g365
g35
(I1
I0
ttRp1542
ag1
(g365
g35
(I1
I0
ttRp1543
ag1
(g365
g35
(I1
I0
ttRp1544
ag1
(g365
g35
(I1
I0
ttRp1545
ag1
(g365
g35
(I1
I0
ttRp1546
ag1
(g365
g35
(I1
I0
ttRp1547
ag1
(g365
g35
(I1
I0
ttRp1548
ag1
(g365
g35
(I1
I0
ttRp1549
ag1
(g365
g35
(I1
I0
ttRp1550
ag1
(g365
g35
(I1
I0
ttRp1551
ag1
(g365
g35
(I1
I0
ttRp1552
ag1
(g365
g35
(I1
I0
ttRp1553
ag1
(g365
g35
(I1
I0
ttRp1554
ag1
(g365
g35
(I1
I0
ttRp1555
ag1
(g365
g35
(I1
I0
ttRp1556
ag1
(g365
g35
(I1
I0
ttRp1557
ag1
(g365
g35
(I1
I0
ttRp1558
ag1
(g365
g35
(I1
I0
ttRp1559
ag1
(g365
g35
(I1
I0
ttRp1560
ag1
(g365
g35
(I1
I0
ttRp1561
ag1
(g365
g35
(I1
I0
ttRp1562
ag1
(g365
g35
(I1
I0
ttRp1563
ag1
(g365
g35
(I1
I0
ttRp1564
ag1
(g365
g35
(I1
I-1
ttRp1565
ag1
(g365
g35
(I1
I0
ttRp1566
ag1
(g365
g35
(I1
I-1
ttRp1567
ag1
(g365
g35
(I1
I-1
ttRp1568
ag1
(g365
g35
(I1
I-1
ttRp1569
ag1
(g365
g35
(I1
I-1
ttRp1570
ag1
(g365
g35
(I1
I-1
ttRp1571
ag1
(g365
g35
(I1
I0
ttRp1572
ag1
(g365
g35
(I1
I0
ttRp1573
ag1
(g365
g35
(I1
I0
ttRp1574
ag1
(g365
g35
(I1
I0
ttRp1575
ag1
(g365
g35
(I1
I0
ttRp1576
ag1
(g365
g35
(I1
I0
ttRp1577
ag1
(g365
g35
(I1
I0
ttRp1578
ag1
(g365
g35
(I1
I0
ttRp1579
ag1
(g365
g35
(I1
I0
ttRp1580
ag1
(g365
g35
(I1
I0
ttRp1581
ag1
(g365
g35
(I1
I0
ttRp1582
ag1
(g365
g35
(I1
I0
ttRp1583
ag1
(g365
g35
(I1
I0
ttRp1584
ag1
(g365
g35
(I1
I0
ttRp1585
ag1
(g365
g35
(I1
I0
ttRp1586
ag1
(g365
g35
(I1
I0
ttRp1587
ag1
(g365
g35
(I1
I0
ttRp1588
ag1
(g365
g35
(I1
I0
ttRp1589
ag1
(g365
g35
(I1
I0
ttRp1590
ag1
(g365
g35
(I1
I0
ttRp1591
ag1
(g365
g35
(I1
I0
ttRp1592
ag1
(g365
g35
(I1
I0
ttRp1593
ag1
(g365
g35
(I1
I0
ttRp1594
ag1
(g365
g35
(I1
I0
ttRp1595
ag1
(g365
g35
(I1
I0
ttRp1596
ag1
(g365
g35
(I1
I0
ttRp1597
ag1
(g365
g35
(I1
I0
ttRp1598
ag1
(g365
g35
(I1
I0
ttRp1599
aa(lp1600
g1
(g365
g35
(I1
I0
ttRp1601
ag1
(g365
g35
(I1
I0
ttRp1602
ag1
(g365
g35
(I1
I0
ttRp1603
ag1
(g365
g35
(I1
I0
ttRp1604
ag1
(g365
g35
(I1
I0
ttRp1605
ag1
(g365
g35
(I1
I0
ttRp1606
ag1
(g365
g35
(I1
I0
ttRp1607
ag1
(g365
g35
(I1
I0
ttRp1608
ag1
(g365
g35
(I1
I0
ttRp1609
ag1
(g365
g35
(I1
I0
ttRp1610
ag1
(g365
g35
(I1
I0
ttRp1611
ag1
(g365
g35
(I1
I0
ttRp1612
ag1
(g365
g35
(I1
I0
ttRp1613
ag1
(g365
g35
(I1
I0
ttRp1614
ag1
(g365
g35
(I1
I0
ttRp1615
ag1
(g365
g35
(I1
I0
ttRp1616
ag1
(g365
g35
(I1
I0
ttRp1617
ag1
(g365
g35
(I1
I0
ttRp1618
ag1
(g365
g35
(I1
I0
ttRp1619
ag1
(g365
g35
(I1
I0
ttRp1620
ag1
(g365
g35
(I1
I0
ttRp1621
ag1
(g365
g35
(I1
I0
ttRp1622
ag1
(g365
g35
(I1
I0
ttRp1623
ag1
(g365
g35
(I1
I0
ttRp1624
ag1
(g365
g35
(I1
I0
ttRp1625
ag1
(g365
g35
(I1
I0
ttRp1626
ag1
(g365
g35
(I1
I0
ttRp1627
ag1
(g365
g35
(I1
I0
ttRp1628
ag1
(g365
g35
(I1
I0
ttRp1629
ag1
(g365
g35
(I1
I0
ttRp1630
ag1
(g365
g35
(I1
I-1
ttRp1631
ag1
(g365
g35
(I1
I-1
ttRp1632
ag1
(g365
g35
(I1
I-1
ttRp1633
ag1
(g365
g35
(I1
I-1
ttRp1634
ag1
(g365
g35
(I1
I-1
ttRp1635
ag1
(g365
g35
(I1
I0
ttRp1636
ag1
(g365
g35
(I1
I0
ttRp1637
ag1
(g365
g35
(I1
I0
ttRp1638
ag1
(g365
g35
(I1
I0
ttRp1639
ag1
(g365
g35
(I1
I0
ttRp1640
ag1
(g365
g35
(I1
I0
ttRp1641
ag1
(g365
g35
(I1
I0
ttRp1642
ag1
(g365
g35
(I1
I0
ttRp1643
ag1
(g365
g35
(I1
I0
ttRp1644
ag1
(g365
g35
(I1
I0
ttRp1645
ag1
(g365
g35
(I1
I0
ttRp1646
ag1
(g365
g35
(I1
I0
ttRp1647
ag1
(g365
g35
(I1
I0
ttRp1648
ag1
(g365
g35
(I1
I0
ttRp1649
ag1
(g365
g35
(I1
I0
ttRp1650
ag1
(g365
g35
(I1
I0
ttRp1651
ag1
(g365
g35
(I1
I0
ttRp1652
ag1
(g365
g35
(I1
I0
ttRp1653
ag1
(g365
g35
(I1
I0
ttRp1654
ag1
(g365
g35
(I1
I0
ttRp1655
ag1
(g365
g35
(I1
I0
ttRp1656
ag1
(g365
g35
(I1
I0
ttRp1657
ag1
(g365
g35
(I1
I0
ttRp1658
ag1
(g365
g35
(I1
I0
ttRp1659
ag1
(g365
g35
(I1
I0
ttRp1660
ag1
(g365
g35
(I1
I0
ttRp1661
ag1
(g365
g35
(I1
I0
ttRp1662
ag1
(g365
g35
(I1
I0
ttRp1663
ag1
(g365
g35
(I1
I0
ttRp1664
aa(lp1665
g1
(g365
g35
(I1
I0
ttRp1666
ag1
(g365
g35
(I1
I0
ttRp1667
ag1
(g365
g35
(I1
I0
ttRp1668
ag1
(g365
g35
(I1
I0
ttRp1669
ag1
(g365
g35
(I1
I0
ttRp1670
ag1
(g365
g35
(I1
I0
ttRp1671
ag1
(g365
g35
(I1
I0
ttRp1672
ag1
(g365
g35
(I1
I0
ttRp1673
ag1
(g365
g35
(I1
I0
ttRp1674
ag1
(g365
g35
(I1
I0
ttRp1675
ag1
(g365
g35
(I1
I0
ttRp1676
ag1
(g365
g35
(I1
I0
ttRp1677
ag1
(g365
g35
(I1
I0
ttRp1678
ag1
(g365
g35
(I1
I0
ttRp1679
ag1
(g365
g35
(I1
I0
ttRp1680
ag1
(g365
g35
(I1
I0
ttRp1681
ag1
(g365
g35
(I1
I0
ttRp1682
ag1
(g365
g35
(I1
I0
ttRp1683
ag1
(g365
g35
(I1
I0
ttRp1684
ag1
(g365
g35
(I1
I0
ttRp1685
ag1
(g365
g35
(I1
I0
ttRp1686
ag1
(g365
g35
(I1
I0
ttRp1687
ag1
(g365
g35
(I1
I0
ttRp1688
ag1
(g365
g35
(I1
I0
ttRp1689
ag1
(g365
g35
(I1
I0
ttRp1690
ag1
(g365
g35
(I1
I0
ttRp1691
ag1
(g365
g35
(I1
I0
ttRp1692
ag1
(g365
g35
(I1
I0
ttRp1693
ag1
(g365
g35
(I1
I0
ttRp1694
ag1
(g365
g35
(I1
I0
ttRp1695
ag1
(g365
g35
(I1
I0
ttRp1696
ag1
(g365
g35
(I1
I-1
ttRp1697
ag1
(g365
g35
(I1
I-1
ttRp1698
ag1
(g365
g35
(I1
I-1
ttRp1699
ag1
(g365
g35
(I1
I-1
ttRp1700
ag1
(g365
g35
(I1
I0
ttRp1701
ag1
(g365
g35
(I1
I0
ttRp1702
ag1
(g365
g35
(I1
I0
ttRp1703
ag1
(g365
g35
(I1
I0
ttRp1704
ag1
(g365
g35
(I1
I0
ttRp1705
ag1
(g365
g35
(I1
I0
ttRp1706
ag1
(g365
g35
(I1
I0
ttRp1707
ag1
(g365
g35
(I1
I0
ttRp1708
ag1
(g365
g35
(I1
I0
ttRp1709
ag1
(g365
g35
(I1
I0
ttRp1710
ag1
(g365
g35
(I1
I0
ttRp1711
ag1
(g365
g35
(I1
I0
ttRp1712
ag1
(g365
g35
(I1
I0
ttRp1713
ag1
(g365
g35
(I1
I0
ttRp1714
ag1
(g365
g35
(I1
I0
ttRp1715
ag1
(g365
g35
(I1
I0
ttRp1716
ag1
(g365
g35
(I1
I0
ttRp1717
ag1
(g365
g35
(I1
I0
ttRp1718
ag1
(g365
g35
(I1
I0
ttRp1719
ag1
(g365
g35
(I1
I0
ttRp1720
ag1
(g365
g35
(I1
I0
ttRp1721
ag1
(g365
g35
(I1
I0
ttRp1722
ag1
(g365
g35
(I1
I0
ttRp1723
ag1
(g365
g35
(I1
I0
ttRp1724
ag1
(g365
g35
(I1
I0
ttRp1725
ag1
(g365
g35
(I1
I0
ttRp1726
ag1
(g365
g35
(I1
I0
ttRp1727
ag1
(g365
g35
(I1
I0
ttRp1728
ag1
(g365
g35
(I1
I0
ttRp1729
aa(lp1730
g1
(g365
g35
(I1
I0
ttRp1731
ag1
(g365
g35
(I1
I0
ttRp1732
ag1
(g365
g35
(I1
I0
ttRp1733
ag1
(g365
g35
(I1
I0
ttRp1734
ag1
(g365
g35
(I1
I0
ttRp1735
ag1
(g365
g35
(I1
I0
ttRp1736
ag1
(g365
g35
(I1
I0
ttRp1737
ag1
(g365
g35
(I1
I0
ttRp1738
ag1
(g365
g35
(I1
I0
ttRp1739
ag1
(g365
g35
(I1
I0
ttRp1740
ag1
(g365
g35
(I1
I0
ttRp1741
ag1
(g365
g35
(I1
I0
ttRp1742
ag1
(g365
g35
(I1
I0
ttRp1743
ag1
(g365
g35
(I1
I0
ttRp1744
ag1
(g365
g35
(I1
I0
ttRp1745
ag1
(g365
g35
(I1
I0
ttRp1746
ag1
(g365
g35
(I1
I0
ttRp1747
ag1
(g365
g35
(I1
I0
ttRp1748
ag1
(g365
g35
(I1
I0
ttRp1749
ag1
(g365
g35
(I1
I0
ttRp1750
ag1
(g365
g35
(I1
I0
ttRp1751
ag1
(g365
g35
(I1
I0
ttRp1752
ag1
(g365
g35
(I1
I0
ttRp1753
ag1
(g365
g35
(I1
I0
ttRp1754
ag1
(g365
g35
(I1
I0
ttRp1755
ag1
(g365
g35
(I1
I0
ttRp1756
ag1
(g365
g35
(I1
I0
ttRp1757
ag1
(g365
g35
(I1
I0
ttRp1758
ag1
(g365
g35
(I1
I0
ttRp1759
ag1
(g365
g35
(I1
I0
ttRp1760
ag1
(g365
g35
(I1
I0
ttRp1761
ag1
(g365
g35
(I1
I0
ttRp1762
ag1
(g365
g35
(I1
I0
ttRp1763
ag1
(g365
g35
(I1
I0
ttRp1764
ag1
(g365
g35
(I1
I0
ttRp1765
ag1
(g365
g35
(I1
I0
ttRp1766
ag1
(g365
g35
(I1
I0
ttRp1767
ag1
(g365
g35
(I1
I0
ttRp1768
ag1
(g365
g35
(I1
I0
ttRp1769
ag1
(g365
g35
(I1
I0
ttRp1770
ag1
(g365
g35
(I1
I0
ttRp1771
ag1
(g365
g35
(I1
I0
ttRp1772
ag1
(g365
g35
(I1
I0
ttRp1773
ag1
(g365
g35
(I1
I0
ttRp1774
ag1
(g365
g35
(I1
I0
ttRp1775
ag1
(g365
g35
(I1
I0
ttRp1776
ag1
(g365
g35
(I1
I0
ttRp1777
ag1
(g365
g35
(I1
I0
ttRp1778
ag1
(g365
g35
(I1
I0
ttRp1779
ag1
(g365
g35
(I1
I0
ttRp1780
ag1
(g365
g35
(I1
I0
ttRp1781
ag1
(g365
g35
(I1
I0
ttRp1782
ag1
(g365
g35
(I1
I0
ttRp1783
ag1
(g365
g35
(I1
I0
ttRp1784
ag1
(g365
g35
(I1
I-1
ttRp1785
ag1
(g365
g35
(I1
I0
ttRp1786
ag1
(g365
g35
(I1
I0
ttRp1787
ag1
(g365
g35
(I1
I0
ttRp1788
ag1
(g365
g35
(I1
I0
ttRp1789
ag1
(g365
g35
(I1
I0
ttRp1790
ag1
(g365
g35
(I1
I0
ttRp1791
ag1
(g365
g35
(I1
I0
ttRp1792
ag1
(g365
g35
(I1
I0
ttRp1793
ag1
(g365
g35
(I1
I0
ttRp1794
aa(lp1795
g1
(g365
g35
(I1
I0
ttRp1796
ag1
(g365
g35
(I1
I0
ttRp1797
ag1
(g365
g35
(I1
I0
ttRp1798
ag1
(g365
g35
(I1
I0
ttRp1799
ag1
(g365
g35
(I1
I0
ttRp1800
ag1
(g365
g35
(I1
I0
ttRp1801
ag1
(g365
g35
(I1
I0
ttRp1802
ag1
(g365
g35
(I1
I0
ttRp1803
ag1
(g365
g35
(I1
I0
ttRp1804
ag1
(g365
g35
(I1
I0
ttRp1805
ag1
(g365
g35
(I1
I-1
ttRp1806
ag1
(g365
g35
(I1
I0
ttRp1807
ag1
(g365
g35
(I1
I0
ttRp1808
ag1
(g365
g35
(I1
I0
ttRp1809
ag1
(g365
g35
(I1
I0
ttRp1810
ag1
(g365
g35
(I1
I0
ttRp1811
ag1
(g365
g35
(I1
I0
ttRp1812
ag1
(g365
g35
(I1
I0
ttRp1813
ag1
(g365
g35
(I1
I0
ttRp1814
ag1
(g365
g35
(I1
I0
ttRp1815
ag1
(g365
g35
(I1
I0
ttRp1816
ag1
(g365
g35
(I1
I0
ttRp1817
ag1
(g365
g35
(I1
I0
ttRp1818
ag1
(g365
g35
(I1
I0
ttRp1819
ag1
(g365
g35
(I1
I0
ttRp1820
ag1
(g365
g35
(I1
I0
ttRp1821
ag1
(g365
g35
(I1
I0
ttRp1822
ag1
(g365
g35
(I1
I0
ttRp1823
ag1
(g365
g35
(I1
I0
ttRp1824
ag1
(g365
g35
(I1
I0
ttRp1825
ag1
(g365
g35
(I1
I0
ttRp1826
ag1
(g365
g35
(I1
I0
ttRp1827
ag1
(g365
g35
(I1
I0
ttRp1828
ag1
(g365
g35
(I1
I0
ttRp1829
ag1
(g365
g35
(I1
I0
ttRp1830
ag1
(g365
g35
(I1
I0
ttRp1831
ag1
(g365
g35
(I1
I0
ttRp1832
ag1
(g365
g35
(I1
I0
ttRp1833
ag1
(g365
g35
(I1
I0
ttRp1834
ag1
(g365
g35
(I1
I0
ttRp1835
ag1
(g365
g35
(I1
I0
ttRp1836
ag1
(g365
g35
(I1
I0
ttRp1837
ag1
(g365
g35
(I1
I0
ttRp1838
ag1
(g365
g35
(I1
I0
ttRp1839
ag1
(g365
g35
(I1
I0
ttRp1840
ag1
(g365
g35
(I1
I0
ttRp1841
ag1
(g365
g35
(I1
I0
ttRp1842
ag1
(g365
g35
(I1
I0
ttRp1843
ag1
(g365
g35
(I1
I0
ttRp1844
ag1
(g365
g35
(I1
I0
ttRp1845
ag1
(g365
g35
(I1
I0
ttRp1846
ag1
(g365
g35
(I1
I0
ttRp1847
ag1
(g365
g35
(I1
I0
ttRp1848
ag1
(g365
g35
(I1
I-1
ttRp1849
ag1
(g365
g35
(I1
I-1
ttRp1850
ag1
(g365
g35
(I1
I0
ttRp1851
ag1
(g365
g35
(I1
I0
ttRp1852
ag1
(g365
g35
(I1
I0
ttRp1853
ag1
(g365
g35
(I1
I0
ttRp1854
ag1
(g365
g35
(I1
I0
ttRp1855
ag1
(g365
g35
(I1
I0
ttRp1856
ag1
(g365
g35
(I1
I0
ttRp1857
ag1
(g365
g35
(I1
I0
ttRp1858
ag1
(g365
g35
(I1
I0
ttRp1859
aa(lp1860
g1
(g365
g35
(I1
I0
ttRp1861
ag1
(g365
g35
(I1
I0
ttRp1862
ag1
(g365
g35
(I1
I0
ttRp1863
ag1
(g365
g35
(I1
I0
ttRp1864
ag1
(g365
g35
(I1
I0
ttRp1865
ag1
(g365
g35
(I1
I0
ttRp1866
ag1
(g365
g35
(I1
I0
ttRp1867
ag1
(g365
g35
(I1
I0
ttRp1868
ag1
(g365
g35
(I1
I0
ttRp1869
ag1
(g365
g35
(I1
I0
ttRp1870
ag1
(g365
g35
(I1
I0
ttRp1871
ag1
(g365
g35
(I1
I-1
ttRp1872
ag1
(g365
g35
(I1
I-1
ttRp1873
ag1
(g365
g35
(I1
I0
ttRp1874
ag1
(g365
g35
(I1
I0
ttRp1875
ag1
(g365
g35
(I1
I0
ttRp1876
ag1
(g365
g35
(I1
I0
ttRp1877
ag1
(g365
g35
(I1
I0
ttRp1878
ag1
(g365
g35
(I1
I0
ttRp1879
ag1
(g365
g35
(I1
I0
ttRp1880
ag1
(g365
g35
(I1
I0
ttRp1881
ag1
(g365
g35
(I1
I0
ttRp1882
ag1
(g365
g35
(I1
I0
ttRp1883
ag1
(g365
g35
(I1
I0
ttRp1884
ag1
(g365
g35
(I1
I0
ttRp1885
ag1
(g365
g35
(I1
I0
ttRp1886
ag1
(g365
g35
(I1
I0
ttRp1887
ag1
(g365
g35
(I1
I0
ttRp1888
ag1
(g365
g35
(I1
I0
ttRp1889
ag1
(g365
g35
(I1
I0
ttRp1890
ag1
(g365
g35
(I1
I0
ttRp1891
ag1
(g365
g35
(I1
I0
ttRp1892
ag1
(g365
g35
(I1
I0
ttRp1893
ag1
(g365
g35
(I1
I0
ttRp1894
ag1
(g365
g35
(I1
I0
ttRp1895
ag1
(g365
g35
(I1
I0
ttRp1896
ag1
(g365
g35
(I1
I0
ttRp1897
ag1
(g365
g35
(I1
I0
ttRp1898
ag1
(g365
g35
(I1
I0
ttRp1899
ag1
(g365
g35
(I1
I0
ttRp1900
ag1
(g365
g35
(I1
I0
ttRp1901
ag1
(g365
g35
(I1
I0
ttRp1902
ag1
(g365
g35
(I1
I0
ttRp1903
ag1
(g365
g35
(I1
I0
ttRp1904
ag1
(g365
g35
(I1
I0
ttRp1905
ag1
(g365
g35
(I1
I0
ttRp1906
ag1
(g365
g35
(I1
I0
ttRp1907
ag1
(g365
g35
(I1
I0
ttRp1908
ag1
(g365
g35
(I1
I0
ttRp1909
ag1
(g365
g35
(I1
I0
ttRp1910
ag1
(g365
g35
(I1
I0
ttRp1911
ag1
(g365
g35
(I1
I0
ttRp1912
ag1
(g365
g35
(I1
I-1
ttRp1913
ag1
(g365
g35
(I1
I-1
ttRp1914
ag1
(g365
g35
(I1
I-1
ttRp1915
ag1
(g365
g35
(I1
I0
ttRp1916
ag1
(g365
g35
(I1
I0
ttRp1917
ag1
(g365
g35
(I1
I0
ttRp1918
ag1
(g365
g35
(I1
I0
ttRp1919
ag1
(g365
g35
(I1
I0
ttRp1920
ag1
(g365
g35
(I1
I0
ttRp1921
ag1
(g365
g35
(I1
I0
ttRp1922
ag1
(g365
g35
(I1
I0
ttRp1923
ag1
(g365
g35
(I1
I0
ttRp1924
aa(lp1925
g1
(g365
g35
(I1
I0
ttRp1926
ag1
(g365
g35
(I1
I0
ttRp1927
ag1
(g365
g35
(I1
I0
ttRp1928
ag1
(g365
g35
(I1
I0
ttRp1929
ag1
(g365
g35
(I1
I0
ttRp1930
ag1
(g365
g35
(I1
I0
ttRp1931
ag1
(g365
g35
(I1
I0
ttRp1932
ag1
(g365
g35
(I1
I0
ttRp1933
ag1
(g365
g35
(I1
I0
ttRp1934
ag1
(g365
g35
(I1
I0
ttRp1935
ag1
(g365
g35
(I1
I-1
ttRp1936
ag1
(g365
g35
(I1
I-1
ttRp1937
ag1
(g365
g35
(I1
I-1
ttRp1938
ag1
(g365
g35
(I1
I0
ttRp1939
ag1
(g365
g35
(I1
I0
ttRp1940
ag1
(g365
g35
(I1
I0
ttRp1941
ag1
(g365
g35
(I1
I0
ttRp1942
ag1
(g365
g35
(I1
I0
ttRp1943
ag1
(g365
g35
(I1
I0
ttRp1944
ag1
(g365
g35
(I1
I0
ttRp1945
ag1
(g365
g35
(I1
I0
ttRp1946
ag1
(g365
g35
(I1
I0
ttRp1947
ag1
(g365
g35
(I1
I0
ttRp1948
ag1
(g365
g35
(I1
I0
ttRp1949
ag1
(g365
g35
(I1
I0
ttRp1950
ag1
(g365
g35
(I1
I0
ttRp1951
ag1
(g365
g35
(I1
I0
ttRp1952
ag1
(g365
g35
(I1
I0
ttRp1953
ag1
(g365
g35
(I1
I0
ttRp1954
ag1
(g365
g35
(I1
I0
ttRp1955
ag1
(g365
g35
(I1
I0
ttRp1956
ag1
(g365
g35
(I1
I0
ttRp1957
ag1
(g365
g35
(I1
I0
ttRp1958
ag1
(g365
g35
(I1
I0
ttRp1959
ag1
(g365
g35
(I1
I0
ttRp1960
ag1
(g365
g35
(I1
I0
ttRp1961
ag1
(g365
g35
(I1
I0
ttRp1962
ag1
(g365
g35
(I1
I0
ttRp1963
ag1
(g365
g35
(I1
I0
ttRp1964
ag1
(g365
g35
(I1
I0
ttRp1965
ag1
(g365
g35
(I1
I0
ttRp1966
ag1
(g365
g35
(I1
I0
ttRp1967
ag1
(g365
g35
(I1
I0
ttRp1968
ag1
(g365
g35
(I1
I0
ttRp1969
ag1
(g365
g35
(I1
I0
ttRp1970
ag1
(g365
g35
(I1
I0
ttRp1971
ag1
(g365
g35
(I1
I0
ttRp1972
ag1
(g365
g35
(I1
I0
ttRp1973
ag1
(g365
g35
(I1
I0
ttRp1974
ag1
(g365
g35
(I1
I0
ttRp1975
ag1
(g365
g35
(I1
I0
ttRp1976
ag1
(g365
g35
(I1
I-1
ttRp1977
ag1
(g365
g35
(I1
I0
ttRp1978
ag1
(g365
g35
(I1
I-1
ttRp1979
ag1
(g365
g35
(I1
I-1
ttRp1980
ag1
(g365
g35
(I1
I0
ttRp1981
ag1
(g365
g35
(I1
I0
ttRp1982
ag1
(g365
g35
(I1
I0
ttRp1983
ag1
(g365
g35
(I1
I0
ttRp1984
ag1
(g365
g35
(I1
I0
ttRp1985
ag1
(g365
g35
(I1
I0
ttRp1986
ag1
(g365
g35
(I1
I0
ttRp1987
ag1
(g365
g35
(I1
I0
ttRp1988
ag1
(g365
g35
(I1
I0
ttRp1989
aa(lp1990
g1
(g365
g35
(I1
I0
ttRp1991
ag1
(g365
g35
(I1
I0
ttRp1992
ag1
(g365
g35
(I1
I0
ttRp1993
ag1
(g365
g35
(I1
I0
ttRp1994
ag1
(g365
g35
(I1
I0
ttRp1995
ag1
(g365
g35
(I1
I0
ttRp1996
ag1
(g365
g35
(I1
I0
ttRp1997
ag1
(g365
g35
(I1
I0
ttRp1998
ag1
(g365
g35
(I1
I0
ttRp1999
ag1
(g365
g35
(I1
I0
ttRp2000
ag1
(g365
g35
(I1
I0
ttRp2001
ag1
(g365
g35
(I1
I0
ttRp2002
ag1
(g365
g35
(I1
I-1
ttRp2003
ag1
(g365
g35
(I1
I-1
ttRp2004
ag1
(g365
g35
(I1
I-1
ttRp2005
ag1
(g365
g35
(I1
I0
ttRp2006
ag1
(g365
g35
(I1
I0
ttRp2007
ag1
(g365
g35
(I1
I0
ttRp2008
ag1
(g365
g35
(I1
I0
ttRp2009
ag1
(g365
g35
(I1
I0
ttRp2010
ag1
(g365
g35
(I1
I0
ttRp2011
ag1
(g365
g35
(I1
I0
ttRp2012
ag1
(g365
g35
(I1
I0
ttRp2013
ag1
(g365
g35
(I1
I0
ttRp2014
ag1
(g365
g35
(I1
I0
ttRp2015
ag1
(g365
g35
(I1
I0
ttRp2016
ag1
(g365
g35
(I1
I0
ttRp2017
ag1
(g365
g35
(I1
I0
ttRp2018
ag1
(g365
g35
(I1
I0
ttRp2019
ag1
(g365
g35
(I1
I0
ttRp2020
ag1
(g365
g35
(I1
I0
ttRp2021
ag1
(g365
g35
(I1
I0
ttRp2022
ag1
(g365
g35
(I1
I0
ttRp2023
ag1
(g365
g35
(I1
I0
ttRp2024
ag1
(g365
g35
(I1
I0
ttRp2025
ag1
(g365
g35
(I1
I0
ttRp2026
ag1
(g365
g35
(I1
I0
ttRp2027
ag1
(g365
g35
(I1
I0
ttRp2028
ag1
(g365
g35
(I1
I0
ttRp2029
ag1
(g365
g35
(I1
I0
ttRp2030
ag1
(g365
g35
(I1
I0
ttRp2031
ag1
(g365
g35
(I1
I0
ttRp2032
ag1
(g365
g35
(I1
I0
ttRp2033
ag1
(g365
g35
(I1
I0
ttRp2034
ag1
(g365
g35
(I1
I0
ttRp2035
ag1
(g365
g35
(I1
I0
ttRp2036
ag1
(g365
g35
(I1
I0
ttRp2037
ag1
(g365
g35
(I1
I0
ttRp2038
ag1
(g365
g35
(I1
I0
ttRp2039
ag1
(g365
g35
(I1
I0
ttRp2040
ag1
(g365
g35
(I1
I-1
ttRp2041
ag1
(g365
g35
(I1
I-1
ttRp2042
ag1
(g365
g35
(I1
I0
ttRp2043
ag1
(g365
g35
(I1
I-1
ttRp2044
ag1
(g365
g35
(I1
I0
ttRp2045
ag1
(g365
g35
(I1
I0
ttRp2046
ag1
(g365
g35
(I1
I0
ttRp2047
ag1
(g365
g35
(I1
I0
ttRp2048
ag1
(g365
g35
(I1
I0
ttRp2049
ag1
(g365
g35
(I1
I0
ttRp2050
ag1
(g365
g35
(I1
I0
ttRp2051
ag1
(g365
g35
(I1
I0
ttRp2052
ag1
(g365
g35
(I1
I0
ttRp2053
ag1
(g365
g35
(I1
I0
ttRp2054
aa(lp2055
g1
(g365
g35
(I1
I0
ttRp2056
ag1
(g365
g35
(I1
I0
ttRp2057
ag1
(g365
g35
(I1
I0
ttRp2058
ag1
(g365
g35
(I1
I0
ttRp2059
ag1
(g365
g35
(I1
I0
ttRp2060
ag1
(g365
g35
(I1
I0
ttRp2061
ag1
(g365
g35
(I1
I0
ttRp2062
ag1
(g365
g35
(I1
I0
ttRp2063
ag1
(g365
g35
(I1
I0
ttRp2064
ag1
(g365
g35
(I1
I0
ttRp2065
ag1
(g365
g35
(I1
I-1
ttRp2066
ag1
(g365
g35
(I1
I0
ttRp2067
ag1
(g365
g35
(I1
I0
ttRp2068
ag1
(g365
g35
(I1
I-1
ttRp2069
ag1
(g365
g35
(I1
I-1
ttRp2070
ag1
(g365
g35
(I1
I-1
ttRp2071
ag1
(g365
g35
(I1
I0
ttRp2072
ag1
(g365
g35
(I1
I0
ttRp2073
ag1
(g365
g35
(I1
I0
ttRp2074
ag1
(g365
g35
(I1
I0
ttRp2075
ag1
(g365
g35
(I1
I0
ttRp2076
ag1
(g365
g35
(I1
I0
ttRp2077
ag1
(g365
g35
(I1
I0
ttRp2078
ag1
(g365
g35
(I1
I0
ttRp2079
ag1
(g365
g35
(I1
I0
ttRp2080
ag1
(g365
g35
(I1
I0
ttRp2081
ag1
(g365
g35
(I1
I0
ttRp2082
ag1
(g365
g35
(I1
I0
ttRp2083
ag1
(g365
g35
(I1
I0
ttRp2084
ag1
(g365
g35
(I1
I0
ttRp2085
ag1
(g365
g35
(I1
I0
ttRp2086
ag1
(g365
g35
(I1
I0
ttRp2087
ag1
(g365
g35
(I1
I0
ttRp2088
ag1
(g365
g35
(I1
I0
ttRp2089
ag1
(g365
g35
(I1
I0
ttRp2090
ag1
(g365
g35
(I1
I0
ttRp2091
ag1
(g365
g35
(I1
I0
ttRp2092
ag1
(g365
g35
(I1
I0
ttRp2093
ag1
(g365
g35
(I1
I0
ttRp2094
ag1
(g365
g35
(I1
I0
ttRp2095
ag1
(g365
g35
(I1
I0
ttRp2096
ag1
(g365
g35
(I1
I0
ttRp2097
ag1
(g365
g35
(I1
I0
ttRp2098
ag1
(g365
g35
(I1
I0
ttRp2099
ag1
(g365
g35
(I1
I0
ttRp2100
ag1
(g365
g35
(I1
I0
ttRp2101
ag1
(g365
g35
(I1
I0
ttRp2102
ag1
(g365
g35
(I1
I0
ttRp2103
ag1
(g365
g35
(I1
I0
ttRp2104
ag1
(g365
g35
(I1
I0
ttRp2105
ag1
(g365
g35
(I1
I0
ttRp2106
ag1
(g365
g35
(I1
I-1
ttRp2107
ag1
(g365
g35
(I1
I-1
ttRp2108
ag1
(g365
g35
(I1
I-1
ttRp2109
ag1
(g365
g35
(I1
I-1
ttRp2110
ag1
(g365
g35
(I1
I0
ttRp2111
ag1
(g365
g35
(I1
I0
ttRp2112
ag1
(g365
g35
(I1
I0
ttRp2113
ag1
(g365
g35
(I1
I0
ttRp2114
ag1
(g365
g35
(I1
I0
ttRp2115
ag1
(g365
g35
(I1
I0
ttRp2116
ag1
(g365
g35
(I1
I0
ttRp2117
ag1
(g365
g35
(I1
I0
ttRp2118
ag1
(g365
g35
(I1
I0
ttRp2119
aa(lp2120
g1
(g365
g35
(I1
I0
ttRp2121
ag1
(g365
g35
(I1
I0
ttRp2122
ag1
(g365
g35
(I1
I0
ttRp2123
ag1
(g365
g35
(I1
I0
ttRp2124
ag1
(g365
g35
(I1
I0
ttRp2125
ag1
(g365
g35
(I1
I0
ttRp2126
ag1
(g365
g35
(I1
I0
ttRp2127
ag1
(g365
g35
(I1
I0
ttRp2128
ag1
(g365
g35
(I1
I0
ttRp2129
ag1
(g365
g35
(I1
I0
ttRp2130
ag1
(g365
g35
(I1
I0
ttRp2131
ag1
(g365
g35
(I1
I-1
ttRp2132
ag1
(g365
g35
(I1
I-1
ttRp2133
ag1
(g365
g35
(I1
I-1
ttRp2134
ag1
(g365
g35
(I1
I-1
ttRp2135
ag1
(g365
g35
(I1
I-1
ttRp2136
ag1
(g365
g35
(I1
I-1
ttRp2137
ag1
(g365
g35
(I1
I0
ttRp2138
ag1
(g365
g35
(I1
I0
ttRp2139
ag1
(g365
g35
(I1
I0
ttRp2140
ag1
(g365
g35
(I1
I0
ttRp2141
ag1
(g365
g35
(I1
I0
ttRp2142
ag1
(g365
g35
(I1
I0
ttRp2143
ag1
(g365
g35
(I1
I0
ttRp2144
ag1
(g365
g35
(I1
I0
ttRp2145
ag1
(g365
g35
(I1
I0
ttRp2146
ag1
(g365
g35
(I1
I0
ttRp2147
ag1
(g365
g35
(I1
I0
ttRp2148
ag1
(g365
g35
(I1
I0
ttRp2149
ag1
(g365
g35
(I1
I0
ttRp2150
ag1
(g365
g35
(I1
I0
ttRp2151
ag1
(g365
g35
(I1
I0
ttRp2152
ag1
(g365
g35
(I1
I0
ttRp2153
ag1
(g365
g35
(I1
I0
ttRp2154
ag1
(g365
g35
(I1
I0
ttRp2155
ag1
(g365
g35
(I1
I0
ttRp2156
ag1
(g365
g35
(I1
I0
ttRp2157
ag1
(g365
g35
(I1
I0
ttRp2158
ag1
(g365
g35
(I1
I0
ttRp2159
ag1
(g365
g35
(I1
I0
ttRp2160
ag1
(g365
g35
(I1
I0
ttRp2161
ag1
(g365
g35
(I1
I0
ttRp2162
ag1
(g365
g35
(I1
I0
ttRp2163
ag1
(g365
g35
(I1
I0
ttRp2164
ag1
(g365
g35
(I1
I0
ttRp2165
ag1
(g365
g35
(I1
I0
ttRp2166
ag1
(g365
g35
(I1
I0
ttRp2167
ag1
(g365
g35
(I1
I0
ttRp2168
ag1
(g365
g35
(I1
I-1
ttRp2169
ag1
(g365
g35
(I1
I-1
ttRp2170
ag1
(g365
g35
(I1
I-1
ttRp2171
ag1
(g365
g35
(I1
I-1
ttRp2172
ag1
(g365
g35
(I1
I-1
ttRp2173
ag1
(g365
g35
(I1
I0
ttRp2174
ag1
(g365
g35
(I1
I-1
ttRp2175
ag1
(g365
g35
(I1
I0
ttRp2176
ag1
(g365
g35
(I1
I0
ttRp2177
ag1
(g365
g35
(I1
I0
ttRp2178
ag1
(g365
g35
(I1
I0
ttRp2179
ag1
(g365
g35
(I1
I0
ttRp2180
ag1
(g365
g35
(I1
I0
ttRp2181
ag1
(g365
g35
(I1
I0
ttRp2182
ag1
(g365
g35
(I1
I0
ttRp2183
ag1
(g365
g35
(I1
I0
ttRp2184
aa(lp2185
g1
(g365
g35
(I1
I0
ttRp2186
ag1
(g365
g35
(I1
I0
ttRp2187
ag1
(g365
g35
(I1
I0
ttRp2188
ag1
(g365
g35
(I1
I0
ttRp2189
ag1
(g365
g35
(I1
I0
ttRp2190
ag1
(g365
g35
(I1
I0
ttRp2191
ag1
(g365
g35
(I1
I0
ttRp2192
ag1
(g365
g35
(I1
I0
ttRp2193
ag1
(g365
g35
(I1
I0
ttRp2194
ag1
(g365
g35
(I1
I0
ttRp2195
ag1
(g365
g35
(I1
I-1
ttRp2196
ag1
(g365
g35
(I1
I0
ttRp2197
ag1
(g365
g35
(I1
I-1
ttRp2198
ag1
(g365
g35
(I1
I0
ttRp2199
ag1
(g365
g35
(I1
I-1
ttRp2200
ag1
(g365
g35
(I1
I0
ttRp2201
ag1
(g365
g35
(I1
I-1
ttRp2202
ag1
(g365
g35
(I1
I-1
ttRp2203
ag1
(g365
g35
(I1
I0
ttRp2204
ag1
(g365
g35
(I1
I0
ttRp2205
ag1
(g365
g35
(I1
I0
ttRp2206
ag1
(g365
g35
(I1
I0
ttRp2207
ag1
(g365
g35
(I1
I0
ttRp2208
ag1
(g365
g35
(I1
I0
ttRp2209
ag1
(g365
g35
(I1
I0
ttRp2210
ag1
(g365
g35
(I1
I0
ttRp2211
ag1
(g365
g35
(I1
I0
ttRp2212
ag1
(g365
g35
(I1
I0
ttRp2213
ag1
(g365
g35
(I1
I0
ttRp2214
ag1
(g365
g35
(I1
I0
ttRp2215
ag1
(g365
g35
(I1
I0
ttRp2216
ag1
(g365
g35
(I1
I0
ttRp2217
ag1
(g365
g35
(I1
I0
ttRp2218
ag1
(g365
g35
(I1
I0
ttRp2219
ag1
(g365
g35
(I1
I0
ttRp2220
ag1
(g365
g35
(I1
I0
ttRp2221
ag1
(g365
g35
(I1
I0
ttRp2222
ag1
(g365
g35
(I1
I0
ttRp2223
ag1
(g365
g35
(I1
I0
ttRp2224
ag1
(g365
g35
(I1
I0
ttRp2225
ag1
(g365
g35
(I1
I0
ttRp2226
ag1
(g365
g35
(I1
I0
ttRp2227
ag1
(g365
g35
(I1
I0
ttRp2228
ag1
(g365
g35
(I1
I0
ttRp2229
ag1
(g365
g35
(I1
I0
ttRp2230
ag1
(g365
g35
(I1
I0
ttRp2231
ag1
(g365
g35
(I1
I0
ttRp2232
ag1
(g365
g35
(I1
I0
ttRp2233
ag1
(g365
g35
(I1
I0
ttRp2234
ag1
(g365
g35
(I1
I-1
ttRp2235
ag1
(g365
g35
(I1
I0
ttRp2236
ag1
(g365
g35
(I1
I0
ttRp2237
ag1
(g365
g35
(I1
I0
ttRp2238
ag1
(g365
g35
(I1
I-1
ttRp2239
ag1
(g365
g35
(I1
I0
ttRp2240
ag1
(g365
g35
(I1
I0
ttRp2241
ag1
(g365
g35
(I1
I0
ttRp2242
ag1
(g365
g35
(I1
I0
ttRp2243
ag1
(g365
g35
(I1
I0
ttRp2244
ag1
(g365
g35
(I1
I0
ttRp2245
ag1
(g365
g35
(I1
I0
ttRp2246
ag1
(g365
g35
(I1
I0
ttRp2247
ag1
(g365
g35
(I1
I0
ttRp2248
ag1
(g365
g35
(I1
I0
ttRp2249
aa(lp2250
g1
(g365
g35
(I1
I0
ttRp2251
ag1
(g365
g35
(I1
I0
ttRp2252
ag1
(g365
g35
(I1
I0
ttRp2253
ag1
(g365
g35
(I1
I0
ttRp2254
ag1
(g365
g35
(I1
I0
ttRp2255
ag1
(g365
g35
(I1
I0
ttRp2256
ag1
(g365
g35
(I1
I0
ttRp2257
ag1
(g365
g35
(I1
I0
ttRp2258
ag1
(g365
g35
(I1
I0
ttRp2259
ag1
(g365
g35
(I1
I0
ttRp2260
ag1
(g365
g35
(I1
I-1
ttRp2261
ag1
(g365
g35
(I1
I0
ttRp2262
ag1
(g365
g35
(I1
I-1
ttRp2263
ag1
(g365
g35
(I1
I-1
ttRp2264
ag1
(g365
g35
(I1
I-1
ttRp2265
ag1
(g365
g35
(I1
I0
ttRp2266
ag1
(g365
g35
(I1
I0
ttRp2267
ag1
(g365
g35
(I1
I-1
ttRp2268
ag1
(g365
g35
(I1
I-1
ttRp2269
ag1
(g365
g35
(I1
I0
ttRp2270
ag1
(g365
g35
(I1
I0
ttRp2271
ag1
(g365
g35
(I1
I0
ttRp2272
ag1
(g365
g35
(I1
I0
ttRp2273
ag1
(g365
g35
(I1
I0
ttRp2274
ag1
(g365
g35
(I1
I0
ttRp2275
ag1
(g365
g35
(I1
I0
ttRp2276
ag1
(g365
g35
(I1
I0
ttRp2277
ag1
(g365
g35
(I1
I0
ttRp2278
ag1
(g365
g35
(I1
I0
ttRp2279
ag1
(g365
g35
(I1
I0
ttRp2280
ag1
(g365
g35
(I1
I0
ttRp2281
ag1
(g365
g35
(I1
I0
ttRp2282
ag1
(g365
g35
(I1
I0
ttRp2283
ag1
(g365
g35
(I1
I0
ttRp2284
ag1
(g365
g35
(I1
I0
ttRp2285
ag1
(g365
g35
(I1
I0
ttRp2286
ag1
(g365
g35
(I1
I0
ttRp2287
ag1
(g365
g35
(I1
I0
ttRp2288
ag1
(g365
g35
(I1
I0
ttRp2289
ag1
(g365
g35
(I1
I0
ttRp2290
ag1
(g365
g35
(I1
I0
ttRp2291
ag1
(g365
g35
(I1
I0
ttRp2292
ag1
(g365
g35
(I1
I0
ttRp2293
ag1
(g365
g35
(I1
I0
ttRp2294
ag1
(g365
g35
(I1
I0
ttRp2295
ag1
(g365
g35
(I1
I0
ttRp2296
ag1
(g365
g35
(I1
I-1
ttRp2297
ag1
(g365
g35
(I1
I0
ttRp2298
ag1
(g365
g35
(I1
I-1
ttRp2299
ag1
(g365
g35
(I1
I-1
ttRp2300
ag1
(g365
g35
(I1
I-1
ttRp2301
ag1
(g365
g35
(I1
I0
ttRp2302
ag1
(g365
g35
(I1
I-1
ttRp2303
ag1
(g365
g35
(I1
I-1
ttRp2304
ag1
(g365
g35
(I1
I-1
ttRp2305
ag1
(g365
g35
(I1
I0
ttRp2306
ag1
(g365
g35
(I1
I0
ttRp2307
ag1
(g365
g35
(I1
I0
ttRp2308
ag1
(g365
g35
(I1
I0
ttRp2309
ag1
(g365
g35
(I1
I0
ttRp2310
ag1
(g365
g35
(I1
I0
ttRp2311
ag1
(g365
g35
(I1
I0
ttRp2312
ag1
(g365
g35
(I1
I0
ttRp2313
ag1
(g365
g35
(I1
I0
ttRp2314
aa(lp2315
g1
(g365
g35
(I1
I0
ttRp2316
ag1
(g365
g35
(I1
I0
ttRp2317
ag1
(g365
g35
(I1
I0
ttRp2318
ag1
(g365
g35
(I1
I0
ttRp2319
ag1
(g365
g35
(I1
I0
ttRp2320
ag1
(g365
g35
(I1
I0
ttRp2321
ag1
(g365
g35
(I1
I0
ttRp2322
ag1
(g365
g35
(I1
I0
ttRp2323
ag1
(g365
g35
(I1
I0
ttRp2324
ag1
(g365
g35
(I1
I0
ttRp2325
ag1
(g365
g35
(I1
I0
ttRp2326
ag1
(g365
g35
(I1
I-1
ttRp2327
ag1
(g365
g35
(I1
I-1
ttRp2328
ag1
(g365
g35
(I1
I-1
ttRp2329
ag1
(g365
g35
(I1
I-1
ttRp2330
ag1
(g365
g35
(I1
I-1
ttRp2331
ag1
(g365
g35
(I1
I0
ttRp2332
ag1
(g365
g35
(I1
I0
ttRp2333
ag1
(g365
g35
(I1
I-1
ttRp2334
ag1
(g365
g35
(I1
I0
ttRp2335
ag1
(g365
g35
(I1
I0
ttRp2336
ag1
(g365
g35
(I1
I0
ttRp2337
ag1
(g365
g35
(I1
I0
ttRp2338
ag1
(g365
g35
(I1
I0
ttRp2339
ag1
(g365
g35
(I1
I0
ttRp2340
ag1
(g365
g35
(I1
I0
ttRp2341
ag1
(g365
g35
(I1
I0
ttRp2342
ag1
(g365
g35
(I1
I0
ttRp2343
ag1
(g365
g35
(I1
I0
ttRp2344
ag1
(g365
g35
(I1
I0
ttRp2345
ag1
(g365
g35
(I1
I0
ttRp2346
ag1
(g365
g35
(I1
I0
ttRp2347
ag1
(g365
g35
(I1
I0
ttRp2348
ag1
(g365
g35
(I1
I0
ttRp2349
ag1
(g365
g35
(I1
I0
ttRp2350
ag1
(g365
g35
(I1
I0
ttRp2351
ag1
(g365
g35
(I1
I0
ttRp2352
ag1
(g365
g35
(I1
I0
ttRp2353
ag1
(g365
g35
(I1
I0
ttRp2354
ag1
(g365
g35
(I1
I0
ttRp2355
ag1
(g365
g35
(I1
I0
ttRp2356
ag1
(g365
g35
(I1
I0
ttRp2357
ag1
(g365
g35
(I1
I0
ttRp2358
ag1
(g365
g35
(I1
I0
ttRp2359
ag1
(g365
g35
(I1
I0
ttRp2360
ag1
(g365
g35
(I1
I0
ttRp2361
ag1
(g365
g35
(I1
I-1
ttRp2362
ag1
(g365
g35
(I1
I0
ttRp2363
ag1
(g365
g35
(I1
I-1
ttRp2364
ag1
(g365
g35
(I1
I0
ttRp2365
ag1
(g365
g35
(I1
I-1
ttRp2366
ag1
(g365
g35
(I1
I-1
ttRp2367
ag1
(g365
g35
(I1
I0
ttRp2368
ag1
(g365
g35
(I1
I-1
ttRp2369
ag1
(g365
g35
(I1
I-1
ttRp2370
ag1
(g365
g35
(I1
I0
ttRp2371
ag1
(g365
g35
(I1
I0
ttRp2372
ag1
(g365
g35
(I1
I0
ttRp2373
ag1
(g365
g35
(I1
I0
ttRp2374
ag1
(g365
g35
(I1
I0
ttRp2375
ag1
(g365
g35
(I1
I0
ttRp2376
ag1
(g365
g35
(I1
I0
ttRp2377
ag1
(g365
g35
(I1
I0
ttRp2378
ag1
(g365
g35
(I1
I0
ttRp2379
aa(lp2380
g1
(g365
g35
(I1
I0
ttRp2381
ag1
(g365
g35
(I1
I0
ttRp2382
ag1
(g365
g35
(I1
I0
ttRp2383
ag1
(g365
g35
(I1
I0
ttRp2384
ag1
(g365
g35
(I1
I0
ttRp2385
ag1
(g365
g35
(I1
I0
ttRp2386
ag1
(g365
g35
(I1
I0
ttRp2387
ag1
(g365
g35
(I1
I0
ttRp2388
ag1
(g365
g35
(I1
I0
ttRp2389
ag1
(g365
g35
(I1
I0
ttRp2390
ag1
(g365
g35
(I1
I0
ttRp2391
ag1
(g365
g35
(I1
I0
ttRp2392
ag1
(g365
g35
(I1
I-1
ttRp2393
ag1
(g365
g35
(I1
I-1
ttRp2394
ag1
(g365
g35
(I1
I-1
ttRp2395
ag1
(g365
g35
(I1
I0
ttRp2396
ag1
(g365
g35
(I1
I-1
ttRp2397
ag1
(g365
g35
(I1
I-1
ttRp2398
ag1
(g365
g35
(I1
I-1
ttRp2399
ag1
(g365
g35
(I1
I0
ttRp2400
ag1
(g365
g35
(I1
I-1
ttRp2401
ag1
(g365
g35
(I1
I0
ttRp2402
ag1
(g365
g35
(I1
I0
ttRp2403
ag1
(g365
g35
(I1
I0
ttRp2404
ag1
(g365
g35
(I1
I0
ttRp2405
ag1
(g365
g35
(I1
I0
ttRp2406
ag1
(g365
g35
(I1
I0
ttRp2407
ag1
(g365
g35
(I1
I0
ttRp2408
ag1
(g365
g35
(I1
I0
ttRp2409
ag1
(g365
g35
(I1
I0
ttRp2410
ag1
(g365
g35
(I1
I0
ttRp2411
ag1
(g365
g35
(I1
I0
ttRp2412
ag1
(g365
g35
(I1
I0
ttRp2413
ag1
(g365
g35
(I1
I0
ttRp2414
ag1
(g365
g35
(I1
I0
ttRp2415
ag1
(g365
g35
(I1
I0
ttRp2416
ag1
(g365
g35
(I1
I0
ttRp2417
ag1
(g365
g35
(I1
I0
ttRp2418
ag1
(g365
g35
(I1
I0
ttRp2419
ag1
(g365
g35
(I1
I0
ttRp2420
ag1
(g365
g35
(I1
I0
ttRp2421
ag1
(g365
g35
(I1
I0
ttRp2422
ag1
(g365
g35
(I1
I0
ttRp2423
ag1
(g365
g35
(I1
I0
ttRp2424
ag1
(g365
g35
(I1
I-1
ttRp2425
ag1
(g365
g35
(I1
I-1
ttRp2426
ag1
(g365
g35
(I1
I-1
ttRp2427
ag1
(g365
g35
(I1
I0
ttRp2428
ag1
(g365
g35
(I1
I0
ttRp2429
ag1
(g365
g35
(I1
I-1
ttRp2430
ag1
(g365
g35
(I1
I-1
ttRp2431
ag1
(g365
g35
(I1
I-1
ttRp2432
ag1
(g365
g35
(I1
I-1
ttRp2433
ag1
(g365
g35
(I1
I-1
ttRp2434
ag1
(g365
g35
(I1
I0
ttRp2435
ag1
(g365
g35
(I1
I0
ttRp2436
ag1
(g365
g35
(I1
I0
ttRp2437
ag1
(g365
g35
(I1
I0
ttRp2438
ag1
(g365
g35
(I1
I0
ttRp2439
ag1
(g365
g35
(I1
I0
ttRp2440
ag1
(g365
g35
(I1
I0
ttRp2441
ag1
(g365
g35
(I1
I0
ttRp2442
ag1
(g365
g35
(I1
I0
ttRp2443
ag1
(g365
g35
(I1
I0
ttRp2444
aa(lp2445
g1
(g365
g35
(I1
I0
ttRp2446
ag1
(g365
g35
(I1
I0
ttRp2447
ag1
(g365
g35
(I1
I0
ttRp2448
ag1
(g365
g35
(I1
I0
ttRp2449
ag1
(g365
g35
(I1
I0
ttRp2450
ag1
(g365
g35
(I1
I0
ttRp2451
ag1
(g365
g35
(I1
I0
ttRp2452
ag1
(g365
g35
(I1
I0
ttRp2453
ag1
(g365
g35
(I1
I0
ttRp2454
ag1
(g365
g35
(I1
I0
ttRp2455
ag1
(g365
g35
(I1
I-1
ttRp2456
ag1
(g365
g35
(I1
I-1
ttRp2457
ag1
(g365
g35
(I1
I-1
ttRp2458
ag1
(g365
g35
(I1
I-1
ttRp2459
ag1
(g365
g35
(I1
I-1
ttRp2460
ag1
(g365
g35
(I1
I-1
ttRp2461
ag1
(g365
g35
(I1
I-1
ttRp2462
ag1
(g365
g35
(I1
I-1
ttRp2463
ag1
(g365
g35
(I1
I-1
ttRp2464
ag1
(g365
g35
(I1
I-1
ttRp2465
ag1
(g365
g35
(I1
I-1
ttRp2466
ag1
(g365
g35
(I1
I0
ttRp2467
ag1
(g365
g35
(I1
I0
ttRp2468
ag1
(g365
g35
(I1
I0
ttRp2469
ag1
(g365
g35
(I1
I0
ttRp2470
ag1
(g365
g35
(I1
I0
ttRp2471
ag1
(g365
g35
(I1
I0
ttRp2472
ag1
(g365
g35
(I1
I0
ttRp2473
ag1
(g365
g35
(I1
I0
ttRp2474
ag1
(g365
g35
(I1
I0
ttRp2475
ag1
(g365
g35
(I1
I0
ttRp2476
ag1
(g365
g35
(I1
I0
ttRp2477
ag1
(g365
g35
(I1
I0
ttRp2478
ag1
(g365
g35
(I1
I0
ttRp2479
ag1
(g365
g35
(I1
I0
ttRp2480
ag1
(g365
g35
(I1
I0
ttRp2481
ag1
(g365
g35
(I1
I0
ttRp2482
ag1
(g365
g35
(I1
I0
ttRp2483
ag1
(g365
g35
(I1
I0
ttRp2484
ag1
(g365
g35
(I1
I0
ttRp2485
ag1
(g365
g35
(I1
I0
ttRp2486
ag1
(g365
g35
(I1
I0
ttRp2487
ag1
(g365
g35
(I1
I0
ttRp2488
ag1
(g365
g35
(I1
I0
ttRp2489
ag1
(g365
g35
(I1
I-1
ttRp2490
ag1
(g365
g35
(I1
I0
ttRp2491
ag1
(g365
g35
(I1
I-1
ttRp2492
ag1
(g365
g35
(I1
I-1
ttRp2493
ag1
(g365
g35
(I1
I-1
ttRp2494
ag1
(g365
g35
(I1
I-1
ttRp2495
ag1
(g365
g35
(I1
I-1
ttRp2496
ag1
(g365
g35
(I1
I-1
ttRp2497
ag1
(g365
g35
(I1
I-1
ttRp2498
ag1
(g365
g35
(I1
I-1
ttRp2499
ag1
(g365
g35
(I1
I-1
ttRp2500
ag1
(g365
g35
(I1
I0
ttRp2501
ag1
(g365
g35
(I1
I0
ttRp2502
ag1
(g365
g35
(I1
I0
ttRp2503
ag1
(g365
g35
(I1
I0
ttRp2504
ag1
(g365
g35
(I1
I0
ttRp2505
ag1
(g365
g35
(I1
I0
ttRp2506
ag1
(g365
g35
(I1
I0
ttRp2507
ag1
(g365
g35
(I1
I0
ttRp2508
ag1
(g365
g35
(I1
I0
ttRp2509
aa(lp2510
g1
(g365
g35
(I1
I0
ttRp2511
ag1
(g365
g35
(I1
I0
ttRp2512
ag1
(g365
g35
(I1
I0
ttRp2513
ag1
(g365
g35
(I1
I0
ttRp2514
ag1
(g365
g35
(I1
I0
ttRp2515
ag1
(g365
g35
(I1
I0
ttRp2516
ag1
(g365
g35
(I1
I0
ttRp2517
ag1
(g365
g35
(I1
I0
ttRp2518
ag1
(g365
g35
(I1
I0
ttRp2519
ag1
(g365
g35
(I1
I0
ttRp2520
ag1
(g365
g35
(I1
I-1
ttRp2521
ag1
(g365
g35
(I1
I0
ttRp2522
ag1
(g365
g35
(I1
I-1
ttRp2523
ag1
(g365
g35
(I1
I-1
ttRp2524
ag1
(g365
g35
(I1
I-1
ttRp2525
ag1
(g365
g35
(I1
I-1
ttRp2526
ag1
(g365
g35
(I1
I0
ttRp2527
ag1
(g365
g35
(I1
I0
ttRp2528
ag1
(g365
g35
(I1
I-1
ttRp2529
ag1
(g365
g35
(I1
I-1
ttRp2530
ag1
(g365
g35
(I1
I-1
ttRp2531
ag1
(g365
g35
(I1
I-1
ttRp2532
ag1
(g365
g35
(I1
I0
ttRp2533
ag1
(g365
g35
(I1
I0
ttRp2534
ag1
(g365
g35
(I1
I0
ttRp2535
ag1
(g365
g35
(I1
I0
ttRp2536
ag1
(g365
g35
(I1
I0
ttRp2537
ag1
(g365
g35
(I1
I0
ttRp2538
ag1
(g365
g35
(I1
I0
ttRp2539
ag1
(g365
g35
(I1
I0
ttRp2540
ag1
(g365
g35
(I1
I0
ttRp2541
ag1
(g365
g35
(I1
I0
ttRp2542
ag1
(g365
g35
(I1
I0
ttRp2543
ag1
(g365
g35
(I1
I0
ttRp2544
ag1
(g365
g35
(I1
I0
ttRp2545
ag1
(g365
g35
(I1
I0
ttRp2546
ag1
(g365
g35
(I1
I0
ttRp2547
ag1
(g365
g35
(I1
I0
ttRp2548
ag1
(g365
g35
(I1
I0
ttRp2549
ag1
(g365
g35
(I1
I0
ttRp2550
ag1
(g365
g35
(I1
I0
ttRp2551
ag1
(g365
g35
(I1
I0
ttRp2552
ag1
(g365
g35
(I1
I0
ttRp2553
ag1
(g365
g35
(I1
I-1
ttRp2554
ag1
(g365
g35
(I1
I-1
ttRp2555
ag1
(g365
g35
(I1
I-1
ttRp2556
ag1
(g365
g35
(I1
I-1
ttRp2557
ag1
(g365
g35
(I1
I-1
ttRp2558
ag1
(g365
g35
(I1
I0
ttRp2559
ag1
(g365
g35
(I1
I-1
ttRp2560
ag1
(g365
g35
(I1
I0
ttRp2561
ag1
(g365
g35
(I1
I0
ttRp2562
ag1
(g365
g35
(I1
I-1
ttRp2563
ag1
(g365
g35
(I1
I-1
ttRp2564
ag1
(g365
g35
(I1
I-1
ttRp2565
ag1
(g365
g35
(I1
I0
ttRp2566
ag1
(g365
g35
(I1
I0
ttRp2567
ag1
(g365
g35
(I1
I0
ttRp2568
ag1
(g365
g35
(I1
I0
ttRp2569
ag1
(g365
g35
(I1
I0
ttRp2570
ag1
(g365
g35
(I1
I0
ttRp2571
ag1
(g365
g35
(I1
I0
ttRp2572
ag1
(g365
g35
(I1
I0
ttRp2573
ag1
(g365
g35
(I1
I0
ttRp2574
aa(lp2575
g1
(g365
g35
(I1
I0
ttRp2576
ag1
(g365
g35
(I1
I0
ttRp2577
ag1
(g365
g35
(I1
I0
ttRp2578
ag1
(g365
g35
(I1
I0
ttRp2579
ag1
(g365
g35
(I1
I0
ttRp2580
ag1
(g365
g35
(I1
I0
ttRp2581
ag1
(g365
g35
(I1
I0
ttRp2582
ag1
(g365
g35
(I1
I0
ttRp2583
ag1
(g365
g35
(I1
I0
ttRp2584
ag1
(g365
g35
(I1
I0
ttRp2585
ag1
(g365
g35
(I1
I-1
ttRp2586
ag1
(g365
g35
(I1
I0
ttRp2587
ag1
(g365
g35
(I1
I0
ttRp2588
ag1
(g365
g35
(I1
I-1
ttRp2589
ag1
(g365
g35
(I1
I-1
ttRp2590
ag1
(g365
g35
(I1
I-1
ttRp2591
ag1
(g365
g35
(I1
I0
ttRp2592
ag1
(g365
g35
(I1
I0
ttRp2593
ag1
(g365
g35
(I1
I-1
ttRp2594
ag1
(g365
g35
(I1
I-1
ttRp2595
ag1
(g365
g35
(I1
I0
ttRp2596
ag1
(g365
g35
(I1
I0
ttRp2597
ag1
(g365
g35
(I1
I0
ttRp2598
ag1
(g365
g35
(I1
I0
ttRp2599
ag1
(g365
g35
(I1
I0
ttRp2600
ag1
(g365
g35
(I1
I0
ttRp2601
ag1
(g365
g35
(I1
I0
ttRp2602
ag1
(g365
g35
(I1
I0
ttRp2603
ag1
(g365
g35
(I1
I0
ttRp2604
ag1
(g365
g35
(I1
I0
ttRp2605
ag1
(g365
g35
(I1
I0
ttRp2606
ag1
(g365
g35
(I1
I0
ttRp2607
ag1
(g365
g35
(I1
I0
ttRp2608
ag1
(g365
g35
(I1
I0
ttRp2609
ag1
(g365
g35
(I1
I0
ttRp2610
ag1
(g365
g35
(I1
I0
ttRp2611
ag1
(g365
g35
(I1
I0
ttRp2612
ag1
(g365
g35
(I1
I0
ttRp2613
ag1
(g365
g35
(I1
I0
ttRp2614
ag1
(g365
g35
(I1
I0
ttRp2615
ag1
(g365
g35
(I1
I0
ttRp2616
ag1
(g365
g35
(I1
I0
ttRp2617
ag1
(g365
g35
(I1
I0
ttRp2618
ag1
(g365
g35
(I1
I0
ttRp2619
ag1
(g365
g35
(I1
I-1
ttRp2620
ag1
(g365
g35
(I1
I-1
ttRp2621
ag1
(g365
g35
(I1
I-1
ttRp2622
ag1
(g365
g35
(I1
I0
ttRp2623
ag1
(g365
g35
(I1
I-1
ttRp2624
ag1
(g365
g35
(I1
I-1
ttRp2625
ag1
(g365
g35
(I1
I-1
ttRp2626
ag1
(g365
g35
(I1
I-1
ttRp2627
ag1
(g365
g35
(I1
I-1
ttRp2628
ag1
(g365
g35
(I1
I0
ttRp2629
ag1
(g365
g35
(I1
I-1
ttRp2630
ag1
(g365
g35
(I1
I0
ttRp2631
ag1
(g365
g35
(I1
I0
ttRp2632
ag1
(g365
g35
(I1
I0
ttRp2633
ag1
(g365
g35
(I1
I0
ttRp2634
ag1
(g365
g35
(I1
I0
ttRp2635
ag1
(g365
g35
(I1
I0
ttRp2636
ag1
(g365
g35
(I1
I0
ttRp2637
ag1
(g365
g35
(I1
I0
ttRp2638
ag1
(g365
g35
(I1
I0
ttRp2639
aa(lp2640
g1
(g365
g35
(I1
I0
ttRp2641
ag1
(g365
g35
(I1
I0
ttRp2642
ag1
(g365
g35
(I1
I0
ttRp2643
ag1
(g365
g35
(I1
I0
ttRp2644
ag1
(g365
g35
(I1
I0
ttRp2645
ag1
(g365
g35
(I1
I0
ttRp2646
ag1
(g365
g35
(I1
I0
ttRp2647
ag1
(g365
g35
(I1
I0
ttRp2648
ag1
(g365
g35
(I1
I0
ttRp2649
ag1
(g365
g35
(I1
I0
ttRp2650
ag1
(g365
g35
(I1
I0
ttRp2651
ag1
(g365
g35
(I1
I-1
ttRp2652
ag1
(g365
g35
(I1
I-1
ttRp2653
ag1
(g365
g35
(I1
I-1
ttRp2654
ag1
(g365
g35
(I1
I0
ttRp2655
ag1
(g365
g35
(I1
I0
ttRp2656
ag1
(g365
g35
(I1
I-1
ttRp2657
ag1
(g365
g35
(I1
I-1
ttRp2658
ag1
(g365
g35
(I1
I0
ttRp2659
ag1
(g365
g35
(I1
I-1
ttRp2660
ag1
(g365
g35
(I1
I0
ttRp2661
ag1
(g365
g35
(I1
I0
ttRp2662
ag1
(g365
g35
(I1
I0
ttRp2663
ag1
(g365
g35
(I1
I0
ttRp2664
ag1
(g365
g35
(I1
I0
ttRp2665
ag1
(g365
g35
(I1
I0
ttRp2666
ag1
(g365
g35
(I1
I0
ttRp2667
ag1
(g365
g35
(I1
I0
ttRp2668
ag1
(g365
g35
(I1
I0
ttRp2669
ag1
(g365
g35
(I1
I0
ttRp2670
ag1
(g365
g35
(I1
I0
ttRp2671
ag1
(g365
g35
(I1
I0
ttRp2672
ag1
(g365
g35
(I1
I0
ttRp2673
ag1
(g365
g35
(I1
I0
ttRp2674
ag1
(g365
g35
(I1
I0
ttRp2675
ag1
(g365
g35
(I1
I0
ttRp2676
ag1
(g365
g35
(I1
I0
ttRp2677
ag1
(g365
g35
(I1
I0
ttRp2678
ag1
(g365
g35
(I1
I0
ttRp2679
ag1
(g365
g35
(I1
I0
ttRp2680
ag1
(g365
g35
(I1
I0
ttRp2681
ag1
(g365
g35
(I1
I0
ttRp2682
ag1
(g365
g35
(I1
I0
ttRp2683
ag1
(g365
g35
(I1
I0
ttRp2684
ag1
(g365
g35
(I1
I0
ttRp2685
ag1
(g365
g35
(I1
I0
ttRp2686
ag1
(g365
g35
(I1
I-1
ttRp2687
ag1
(g365
g35
(I1
I0
ttRp2688
ag1
(g365
g35
(I1
I-1
ttRp2689
ag1
(g365
g35
(I1
I-1
ttRp2690
ag1
(g365
g35
(I1
I-1
ttRp2691
ag1
(g365
g35
(I1
I-1
ttRp2692
ag1
(g365
g35
(I1
I0
ttRp2693
ag1
(g365
g35
(I1
I-1
ttRp2694
ag1
(g365
g35
(I1
I-1
ttRp2695
ag1
(g365
g35
(I1
I0
ttRp2696
ag1
(g365
g35
(I1
I0
ttRp2697
ag1
(g365
g35
(I1
I0
ttRp2698
ag1
(g365
g35
(I1
I0
ttRp2699
ag1
(g365
g35
(I1
I0
ttRp2700
ag1
(g365
g35
(I1
I0
ttRp2701
ag1
(g365
g35
(I1
I0
ttRp2702
ag1
(g365
g35
(I1
I0
ttRp2703
ag1
(g365
g35
(I1
I0
ttRp2704
aa(lp2705
g1
(g365
g35
(I1
I0
ttRp2706
ag1
(g365
g35
(I1
I0
ttRp2707
ag1
(g365
g35
(I1
I0
ttRp2708
ag1
(g365
g35
(I1
I0
ttRp2709
ag1
(g365
g35
(I1
I0
ttRp2710
ag1
(g365
g35
(I1
I0
ttRp2711
ag1
(g365
g35
(I1
I0
ttRp2712
ag1
(g365
g35
(I1
I0
ttRp2713
ag1
(g365
g35
(I1
I0
ttRp2714
ag1
(g365
g35
(I1
I0
ttRp2715
ag1
(g365
g35
(I1
I-1
ttRp2716
ag1
(g365
g35
(I1
I0
ttRp2717
ag1
(g365
g35
(I1
I0
ttRp2718
ag1
(g365
g35
(I1
I0
ttRp2719
ag1
(g365
g35
(I1
I-1
ttRp2720
ag1
(g365
g35
(I1
I0
ttRp2721
ag1
(g365
g35
(I1
I-1
ttRp2722
ag1
(g365
g35
(I1
I-1
ttRp2723
ag1
(g365
g35
(I1
I0
ttRp2724
ag1
(g365
g35
(I1
I0
ttRp2725
ag1
(g365
g35
(I1
I0
ttRp2726
ag1
(g365
g35
(I1
I0
ttRp2727
ag1
(g365
g35
(I1
I0
ttRp2728
ag1
(g365
g35
(I1
I0
ttRp2729
ag1
(g365
g35
(I1
I0
ttRp2730
ag1
(g365
g35
(I1
I0
ttRp2731
ag1
(g365
g35
(I1
I0
ttRp2732
ag1
(g365
g35
(I1
I0
ttRp2733
ag1
(g365
g35
(I1
I0
ttRp2734
ag1
(g365
g35
(I1
I0
ttRp2735
ag1
(g365
g35
(I1
I0
ttRp2736
ag1
(g365
g35
(I1
I0
ttRp2737
ag1
(g365
g35
(I1
I0
ttRp2738
ag1
(g365
g35
(I1
I0
ttRp2739
ag1
(g365
g35
(I1
I0
ttRp2740
ag1
(g365
g35
(I1
I0
ttRp2741
ag1
(g365
g35
(I1
I0
ttRp2742
ag1
(g365
g35
(I1
I0
ttRp2743
ag1
(g365
g35
(I1
I0
ttRp2744
ag1
(g365
g35
(I1
I0
ttRp2745
ag1
(g365
g35
(I1
I0
ttRp2746
ag1
(g365
g35
(I1
I0
ttRp2747
ag1
(g365
g35
(I1
I0
ttRp2748
ag1
(g365
g35
(I1
I0
ttRp2749
ag1
(g365
g35
(I1
I0
ttRp2750
ag1
(g365
g35
(I1
I0
ttRp2751
ag1
(g365
g35
(I1
I-1
ttRp2752
ag1
(g365
g35
(I1
I-1
ttRp2753
ag1
(g365
g35
(I1
I0
ttRp2754
ag1
(g365
g35
(I1
I0
ttRp2755
ag1
(g365
g35
(I1
I-1
ttRp2756
ag1
(g365
g35
(I1
I-1
ttRp2757
ag1
(g365
g35
(I1
I-1
ttRp2758
ag1
(g365
g35
(I1
I0
ttRp2759
ag1
(g365
g35
(I1
I-1
ttRp2760
ag1
(g365
g35
(I1
I0
ttRp2761
ag1
(g365
g35
(I1
I0
ttRp2762
ag1
(g365
g35
(I1
I0
ttRp2763
ag1
(g365
g35
(I1
I0
ttRp2764
ag1
(g365
g35
(I1
I0
ttRp2765
ag1
(g365
g35
(I1
I0
ttRp2766
ag1
(g365
g35
(I1
I0
ttRp2767
ag1
(g365
g35
(I1
I0
ttRp2768
ag1
(g365
g35
(I1
I0
ttRp2769
aa(lp2770
g1
(g365
g35
(I1
I0
ttRp2771
ag1
(g365
g35
(I1
I0
ttRp2772
ag1
(g365
g35
(I1
I0
ttRp2773
ag1
(g365
g35
(I1
I0
ttRp2774
ag1
(g365
g35
(I1
I0
ttRp2775
ag1
(g365
g35
(I1
I0
ttRp2776
ag1
(g365
g35
(I1
I0
ttRp2777
ag1
(g365
g35
(I1
I0
ttRp2778
ag1
(g365
g35
(I1
I0
ttRp2779
ag1
(g365
g35
(I1
I0
ttRp2780
ag1
(g365
g35
(I1
I-1
ttRp2781
ag1
(g365
g35
(I1
I-1
ttRp2782
ag1
(g365
g35
(I1
I-1
ttRp2783
ag1
(g365
g35
(I1
I-1
ttRp2784
ag1
(g365
g35
(I1
I0
ttRp2785
ag1
(g365
g35
(I1
I-1
ttRp2786
ag1
(g365
g35
(I1
I-1
ttRp2787
ag1
(g365
g35
(I1
I-1
ttRp2788
ag1
(g365
g35
(I1
I0
ttRp2789
ag1
(g365
g35
(I1
I0
ttRp2790
ag1
(g365
g35
(I1
I0
ttRp2791
ag1
(g365
g35
(I1
I0
ttRp2792
ag1
(g365
g35
(I1
I0
ttRp2793
ag1
(g365
g35
(I1
I0
ttRp2794
ag1
(g365
g35
(I1
I0
ttRp2795
ag1
(g365
g35
(I1
I0
ttRp2796
ag1
(g365
g35
(I1
I0
ttRp2797
ag1
(g365
g35
(I1
I0
ttRp2798
ag1
(g365
g35
(I1
I0
ttRp2799
ag1
(g365
g35
(I1
I0
ttRp2800
ag1
(g365
g35
(I1
I0
ttRp2801
ag1
(g365
g35
(I1
I0
ttRp2802
ag1
(g365
g35
(I1
I0
ttRp2803
ag1
(g365
g35
(I1
I0
ttRp2804
ag1
(g365
g35
(I1
I0
ttRp2805
ag1
(g365
g35
(I1
I0
ttRp2806
ag1
(g365
g35
(I1
I0
ttRp2807
ag1
(g365
g35
(I1
I0
ttRp2808
ag1
(g365
g35
(I1
I0
ttRp2809
ag1
(g365
g35
(I1
I0
ttRp2810
ag1
(g365
g35
(I1
I0
ttRp2811
ag1
(g365
g35
(I1
I0
ttRp2812
ag1
(g365
g35
(I1
I0
ttRp2813
ag1
(g365
g35
(I1
I0
ttRp2814
ag1
(g365
g35
(I1
I0
ttRp2815
ag1
(g365
g35
(I1
I0
ttRp2816
ag1
(g365
g35
(I1
I0
ttRp2817
ag1
(g365
g35
(I1
I-1
ttRp2818
ag1
(g365
g35
(I1
I0
ttRp2819
ag1
(g365
g35
(I1
I-1
ttRp2820
ag1
(g365
g35
(I1
I-1
ttRp2821
ag1
(g365
g35
(I1
I-1
ttRp2822
ag1
(g365
g35
(I1
I-1
ttRp2823
ag1
(g365
g35
(I1
I-1
ttRp2824
ag1
(g365
g35
(I1
I-1
ttRp2825
ag1
(g365
g35
(I1
I0
ttRp2826
ag1
(g365
g35
(I1
I0
ttRp2827
ag1
(g365
g35
(I1
I0
ttRp2828
ag1
(g365
g35
(I1
I0
ttRp2829
ag1
(g365
g35
(I1
I0
ttRp2830
ag1
(g365
g35
(I1
I0
ttRp2831
ag1
(g365
g35
(I1
I0
ttRp2832
ag1
(g365
g35
(I1
I0
ttRp2833
ag1
(g365
g35
(I1
I0
ttRp2834
aa(lp2835
g1
(g365
g35
(I1
I0
ttRp2836
ag1
(g365
g35
(I1
I0
ttRp2837
ag1
(g365
g35
(I1
I0
ttRp2838
ag1
(g365
g35
(I1
I0
ttRp2839
ag1
(g365
g35
(I1
I0
ttRp2840
ag1
(g365
g35
(I1
I0
ttRp2841
ag1
(g365
g35
(I1
I0
ttRp2842
ag1
(g365
g35
(I1
I0
ttRp2843
ag1
(g365
g35
(I1
I0
ttRp2844
ag1
(g365
g35
(I1
I0
ttRp2845
ag1
(g365
g35
(I1
I-1
ttRp2846
ag1
(g365
g35
(I1
I-1
ttRp2847
ag1
(g365
g35
(I1
I-1
ttRp2848
ag1
(g365
g35
(I1
I0
ttRp2849
ag1
(g365
g35
(I1
I-1
ttRp2850
ag1
(g365
g35
(I1
I-1
ttRp2851
ag1
(g365
g35
(I1
I0
ttRp2852
ag1
(g365
g35
(I1
I0
ttRp2853
ag1
(g365
g35
(I1
I0
ttRp2854
ag1
(g365
g35
(I1
I0
ttRp2855
ag1
(g365
g35
(I1
I0
ttRp2856
ag1
(g365
g35
(I1
I0
ttRp2857
ag1
(g365
g35
(I1
I0
ttRp2858
ag1
(g365
g35
(I1
I0
ttRp2859
ag1
(g365
g35
(I1
I0
ttRp2860
ag1
(g365
g35
(I1
I0
ttRp2861
ag1
(g365
g35
(I1
I0
ttRp2862
ag1
(g365
g35
(I1
I0
ttRp2863
ag1
(g365
g35
(I1
I0
ttRp2864
ag1
(g365
g35
(I1
I0
ttRp2865
ag1
(g365
g35
(I1
I0
ttRp2866
ag1
(g365
g35
(I1
I0
ttRp2867
ag1
(g365
g35
(I1
I0
ttRp2868
ag1
(g365
g35
(I1
I0
ttRp2869
ag1
(g365
g35
(I1
I0
ttRp2870
ag1
(g365
g35
(I1
I0
ttRp2871
ag1
(g365
g35
(I1
I0
ttRp2872
ag1
(g365
g35
(I1
I0
ttRp2873
ag1
(g365
g35
(I1
I0
ttRp2874
ag1
(g365
g35
(I1
I0
ttRp2875
ag1
(g365
g35
(I1
I0
ttRp2876
ag1
(g365
g35
(I1
I0
ttRp2877
ag1
(g365
g35
(I1
I0
ttRp2878
ag1
(g365
g35
(I1
I0
ttRp2879
ag1
(g365
g35
(I1
I0
ttRp2880
ag1
(g365
g35
(I1
I0
ttRp2881
ag1
(g365
g35
(I1
I0
ttRp2882
ag1
(g365
g35
(I1
I0
ttRp2883
ag1
(g365
g35
(I1
I-1
ttRp2884
ag1
(g365
g35
(I1
I0
ttRp2885
ag1
(g365
g35
(I1
I-1
ttRp2886
ag1
(g365
g35
(I1
I-1
ttRp2887
ag1
(g365
g35
(I1
I-1
ttRp2888
ag1
(g365
g35
(I1
I0
ttRp2889
ag1
(g365
g35
(I1
I-1
ttRp2890
ag1
(g365
g35
(I1
I0
ttRp2891
ag1
(g365
g35
(I1
I0
ttRp2892
ag1
(g365
g35
(I1
I0
ttRp2893
ag1
(g365
g35
(I1
I0
ttRp2894
ag1
(g365
g35
(I1
I0
ttRp2895
ag1
(g365
g35
(I1
I0
ttRp2896
ag1
(g365
g35
(I1
I0
ttRp2897
ag1
(g365
g35
(I1
I0
ttRp2898
ag1
(g365
g35
(I1
I0
ttRp2899
aa(lp2900
g1
(g365
g35
(I1
I0
ttRp2901
ag1
(g365
g35
(I1
I0
ttRp2902
ag1
(g365
g35
(I1
I0
ttRp2903
ag1
(g365
g35
(I1
I0
ttRp2904
ag1
(g365
g35
(I1
I0
ttRp2905
ag1
(g365
g35
(I1
I0
ttRp2906
ag1
(g365
g35
(I1
I0
ttRp2907
ag1
(g365
g35
(I1
I0
ttRp2908
ag1
(g365
g35
(I1
I0
ttRp2909
ag1
(g365
g35
(I1
I0
ttRp2910
ag1
(g365
g35
(I1
I-1
ttRp2911
ag1
(g365
g35
(I1
I0
ttRp2912
ag1
(g365
g35
(I1
I-1
ttRp2913
ag1
(g365
g35
(I1
I0
ttRp2914
ag1
(g365
g35
(I1
I0
ttRp2915
ag1
(g365
g35
(I1
I-1
ttRp2916
ag1
(g365
g35
(I1
I0
ttRp2917
ag1
(g365
g35
(I1
I0
ttRp2918
ag1
(g365
g35
(I1
I0
ttRp2919
ag1
(g365
g35
(I1
I0
ttRp2920
ag1
(g365
g35
(I1
I0
ttRp2921
ag1
(g365
g35
(I1
I0
ttRp2922
ag1
(g365
g35
(I1
I0
ttRp2923
ag1
(g365
g35
(I1
I0
ttRp2924
ag1
(g365
g35
(I1
I0
ttRp2925
ag1
(g365
g35
(I1
I0
ttRp2926
ag1
(g365
g35
(I1
I0
ttRp2927
ag1
(g365
g35
(I1
I0
ttRp2928
ag1
(g365
g35
(I1
I0
ttRp2929
ag1
(g365
g35
(I1
I0
ttRp2930
ag1
(g365
g35
(I1
I0
ttRp2931
ag1
(g365
g35
(I1
I0
ttRp2932
ag1
(g365
g35
(I1
I0
ttRp2933
ag1
(g365
g35
(I1
I0
ttRp2934
ag1
(g365
g35
(I1
I0
ttRp2935
ag1
(g365
g35
(I1
I0
ttRp2936
ag1
(g365
g35
(I1
I0
ttRp2937
ag1
(g365
g35
(I1
I0
ttRp2938
ag1
(g365
g35
(I1
I0
ttRp2939
ag1
(g365
g35
(I1
I0
ttRp2940
ag1
(g365
g35
(I1
I0
ttRp2941
ag1
(g365
g35
(I1
I0
ttRp2942
ag1
(g365
g35
(I1
I0
ttRp2943
ag1
(g365
g35
(I1
I0
ttRp2944
ag1
(g365
g35
(I1
I0
ttRp2945
ag1
(g365
g35
(I1
I0
ttRp2946
ag1
(g365
g35
(I1
I0
ttRp2947
ag1
(g365
g35
(I1
I0
ttRp2948
ag1
(g365
g35
(I1
I0
ttRp2949
ag1
(g365
g35
(I1
I-1
ttRp2950
ag1
(g365
g35
(I1
I0
ttRp2951
ag1
(g365
g35
(I1
I-1
ttRp2952
ag1
(g365
g35
(I1
I0
ttRp2953
ag1
(g365
g35
(I1
I-1
ttRp2954
ag1
(g365
g35
(I1
I-1
ttRp2955
ag1
(g365
g35
(I1
I0
ttRp2956
ag1
(g365
g35
(I1
I0
ttRp2957
ag1
(g365
g35
(I1
I0
ttRp2958
ag1
(g365
g35
(I1
I0
ttRp2959
ag1
(g365
g35
(I1
I0
ttRp2960
ag1
(g365
g35
(I1
I0
ttRp2961
ag1
(g365
g35
(I1
I0
ttRp2962
ag1
(g365
g35
(I1
I0
ttRp2963
ag1
(g365
g35
(I1
I0
ttRp2964
aa(lp2965
g1
(g365
g35
(I1
I0
ttRp2966
ag1
(g365
g35
(I1
I0
ttRp2967
ag1
(g365
g35
(I1
I0
ttRp2968
ag1
(g365
g35
(I1
I0
ttRp2969
ag1
(g365
g35
(I1
I0
ttRp2970
ag1
(g365
g35
(I1
I0
ttRp2971
ag1
(g365
g35
(I1
I0
ttRp2972
ag1
(g365
g35
(I1
I0
ttRp2973
ag1
(g365
g35
(I1
I0
ttRp2974
ag1
(g365
g35
(I1
I0
ttRp2975
ag1
(g365
g35
(I1
I-1
ttRp2976
ag1
(g365
g35
(I1
I-1
ttRp2977
ag1
(g365
g35
(I1
I-1
ttRp2978
ag1
(g365
g35
(I1
I0
ttRp2979
ag1
(g365
g35
(I1
I0
ttRp2980
ag1
(g365
g35
(I1
I0
ttRp2981
ag1
(g365
g35
(I1
I0
ttRp2982
ag1
(g365
g35
(I1
I0
ttRp2983
ag1
(g365
g35
(I1
I0
ttRp2984
ag1
(g365
g35
(I1
I0
ttRp2985
ag1
(g365
g35
(I1
I0
ttRp2986
ag1
(g365
g35
(I1
I0
ttRp2987
ag1
(g365
g35
(I1
I0
ttRp2988
ag1
(g365
g35
(I1
I0
ttRp2989
ag1
(g365
g35
(I1
I0
ttRp2990
ag1
(g365
g35
(I1
I0
ttRp2991
ag1
(g365
g35
(I1
I0
ttRp2992
ag1
(g365
g35
(I1
I0
ttRp2993
ag1
(g365
g35
(I1
I0
ttRp2994
ag1
(g365
g35
(I1
I0
ttRp2995
ag1
(g365
g35
(I1
I0
ttRp2996
ag1
(g365
g35
(I1
I0
ttRp2997
ag1
(g365
g35
(I1
I0
ttRp2998
ag1
(g365
g35
(I1
I0
ttRp2999
ag1
(g365
g35
(I1
I0
ttRp3000
ag1
(g365
g35
(I1
I0
ttRp3001
ag1
(g365
g35
(I1
I0
ttRp3002
ag1
(g365
g35
(I1
I0
ttRp3003
ag1
(g365
g35
(I1
I0
ttRp3004
ag1
(g365
g35
(I1
I0
ttRp3005
ag1
(g365
g35
(I1
I0
ttRp3006
ag1
(g365
g35
(I1
I0
ttRp3007
ag1
(g365
g35
(I1
I0
ttRp3008
ag1
(g365
g35
(I1
I0
ttRp3009
ag1
(g365
g35
(I1
I0
ttRp3010
ag1
(g365
g35
(I1
I0
ttRp3011
ag1
(g365
g35
(I1
I0
ttRp3012
ag1
(g365
g35
(I1
I0
ttRp3013
ag1
(g365
g35
(I1
I0
ttRp3014
ag1
(g365
g35
(I1
I0
ttRp3015
ag1
(g365
g35
(I1
I-1
ttRp3016
ag1
(g365
g35
(I1
I-1
ttRp3017
ag1
(g365
g35
(I1
I-1
ttRp3018
ag1
(g365
g35
(I1
I-1
ttRp3019
ag1
(g365
g35
(I1
I0
ttRp3020
ag1
(g365
g35
(I1
I0
ttRp3021
ag1
(g365
g35
(I1
I0
ttRp3022
ag1
(g365
g35
(I1
I0
ttRp3023
ag1
(g365
g35
(I1
I0
ttRp3024
ag1
(g365
g35
(I1
I0
ttRp3025
ag1
(g365
g35
(I1
I0
ttRp3026
ag1
(g365
g35
(I1
I0
ttRp3027
ag1
(g365
g35
(I1
I0
ttRp3028
ag1
(g365
g35
(I1
I0
ttRp3029
aa(lp3030
g1
(g365
g35
(I1
I0
ttRp3031
ag1
(g365
g35
(I1
I0
ttRp3032
ag1
(g365
g35
(I1
I0
ttRp3033
ag1
(g365
g35
(I1
I0
ttRp3034
ag1
(g365
g35
(I1
I0
ttRp3035
ag1
(g365
g35
(I1
I0
ttRp3036
ag1
(g365
g35
(I1
I0
ttRp3037
ag1
(g365
g35
(I1
I0
ttRp3038
ag1
(g365
g35
(I1
I0
ttRp3039
ag1
(g365
g35
(I1
I0
ttRp3040
ag1
(g365
g35
(I1
I-1
ttRp3041
ag1
(g365
g35
(I1
I-1
ttRp3042
ag1
(g365
g35
(I1
I0
ttRp3043
ag1
(g365
g35
(I1
I0
ttRp3044
ag1
(g365
g35
(I1
I0
ttRp3045
ag1
(g365
g35
(I1
I0
ttRp3046
ag1
(g365
g35
(I1
I0
ttRp3047
ag1
(g365
g35
(I1
I0
ttRp3048
ag1
(g365
g35
(I1
I0
ttRp3049
ag1
(g365
g35
(I1
I0
ttRp3050
ag1
(g365
g35
(I1
I0
ttRp3051
ag1
(g365
g35
(I1
I0
ttRp3052
ag1
(g365
g35
(I1
I0
ttRp3053
ag1
(g365
g35
(I1
I0
ttRp3054
ag1
(g365
g35
(I1
I0
ttRp3055
ag1
(g365
g35
(I1
I0
ttRp3056
ag1
(g365
g35
(I1
I0
ttRp3057
ag1
(g365
g35
(I1
I0
ttRp3058
ag1
(g365
g35
(I1
I0
ttRp3059
ag1
(g365
g35
(I1
I0
ttRp3060
ag1
(g365
g35
(I1
I0
ttRp3061
ag1
(g365
g35
(I1
I0
ttRp3062
ag1
(g365
g35
(I1
I0
ttRp3063
ag1
(g365
g35
(I1
I0
ttRp3064
ag1
(g365
g35
(I1
I0
ttRp3065
ag1
(g365
g35
(I1
I0
ttRp3066
ag1
(g365
g35
(I1
I0
ttRp3067
ag1
(g365
g35
(I1
I0
ttRp3068
ag1
(g365
g35
(I1
I0
ttRp3069
ag1
(g365
g35
(I1
I0
ttRp3070
ag1
(g365
g35
(I1
I0
ttRp3071
ag1
(g365
g35
(I1
I0
ttRp3072
ag1
(g365
g35
(I1
I0
ttRp3073
ag1
(g365
g35
(I1
I0
ttRp3074
ag1
(g365
g35
(I1
I0
ttRp3075
ag1
(g365
g35
(I1
I0
ttRp3076
ag1
(g365
g35
(I1
I0
ttRp3077
ag1
(g365
g35
(I1
I0
ttRp3078
ag1
(g365
g35
(I1
I0
ttRp3079
ag1
(g365
g35
(I1
I0
ttRp3080
ag1
(g365
g35
(I1
I0
ttRp3081
ag1
(g365
g35
(I1
I-1
ttRp3082
ag1
(g365
g35
(I1
I-1
ttRp3083
ag1
(g365
g35
(I1
I0
ttRp3084
ag1
(g365
g35
(I1
I0
ttRp3085
ag1
(g365
g35
(I1
I0
ttRp3086
ag1
(g365
g35
(I1
I0
ttRp3087
ag1
(g365
g35
(I1
I0
ttRp3088
ag1
(g365
g35
(I1
I0
ttRp3089
ag1
(g365
g35
(I1
I0
ttRp3090
ag1
(g365
g35
(I1
I0
ttRp3091
ag1
(g365
g35
(I1
I0
ttRp3092
ag1
(g365
g35
(I1
I0
ttRp3093
ag1
(g365
g35
(I1
I0
ttRp3094
aa(lp3095
g1
(g365
g35
(I1
I0
ttRp3096
ag1
(g365
g35
(I1
I0
ttRp3097
ag1
(g365
g35
(I1
I0
ttRp3098
ag1
(g365
g35
(I1
I0
ttRp3099
ag1
(g365
g35
(I1
I0
ttRp3100
ag1
(g365
g35
(I1
I0
ttRp3101
ag1
(g365
g35
(I1
I0
ttRp3102
ag1
(g365
g35
(I1
I0
ttRp3103
ag1
(g365
g35
(I1
I0
ttRp3104
ag1
(g365
g35
(I1
I0
ttRp3105
ag1
(g365
g35
(I1
I-1
ttRp3106
ag1
(g365
g35
(I1
I0
ttRp3107
ag1
(g365
g35
(I1
I0
ttRp3108
ag1
(g365
g35
(I1
I0
ttRp3109
ag1
(g365
g35
(I1
I0
ttRp3110
ag1
(g365
g35
(I1
I0
ttRp3111
ag1
(g365
g35
(I1
I0
ttRp3112
ag1
(g365
g35
(I1
I0
ttRp3113
ag1
(g365
g35
(I1
I0
ttRp3114
ag1
(g365
g35
(I1
I0
ttRp3115
ag1
(g365
g35
(I1
I0
ttRp3116
ag1
(g365
g35
(I1
I0
ttRp3117
ag1
(g365
g35
(I1
I0
ttRp3118
ag1
(g365
g35
(I1
I0
ttRp3119
ag1
(g365
g35
(I1
I0
ttRp3120
ag1
(g365
g35
(I1
I0
ttRp3121
ag1
(g365
g35
(I1
I0
ttRp3122
ag1
(g365
g35
(I1
I0
ttRp3123
ag1
(g365
g35
(I1
I0
ttRp3124
ag1
(g365
g35
(I1
I0
ttRp3125
ag1
(g365
g35
(I1
I0
ttRp3126
ag1
(g365
g35
(I1
I0
ttRp3127
ag1
(g365
g35
(I1
I0
ttRp3128
ag1
(g365
g35
(I1
I0
ttRp3129
ag1
(g365
g35
(I1
I0
ttRp3130
ag1
(g365
g35
(I1
I0
ttRp3131
ag1
(g365
g35
(I1
I0
ttRp3132
ag1
(g365
g35
(I1
I0
ttRp3133
ag1
(g365
g35
(I1
I0
ttRp3134
ag1
(g365
g35
(I1
I0
ttRp3135
ag1
(g365
g35
(I1
I0
ttRp3136
ag1
(g365
g35
(I1
I0
ttRp3137
ag1
(g365
g35
(I1
I0
ttRp3138
ag1
(g365
g35
(I1
I0
ttRp3139
ag1
(g365
g35
(I1
I0
ttRp3140
ag1
(g365
g35
(I1
I0
ttRp3141
ag1
(g365
g35
(I1
I0
ttRp3142
ag1
(g365
g35
(I1
I0
ttRp3143
ag1
(g365
g35
(I1
I0
ttRp3144
ag1
(g365
g35
(I1
I0
ttRp3145
ag1
(g365
g35
(I1
I0
ttRp3146
ag1
(g365
g35
(I1
I0
ttRp3147
ag1
(g365
g35
(I1
I-1
ttRp3148
ag1
(g365
g35
(I1
I0
ttRp3149
ag1
(g365
g35
(I1
I0
ttRp3150
ag1
(g365
g35
(I1
I0
ttRp3151
ag1
(g365
g35
(I1
I0
ttRp3152
ag1
(g365
g35
(I1
I0
ttRp3153
ag1
(g365
g35
(I1
I0
ttRp3154
ag1
(g365
g35
(I1
I0
ttRp3155
ag1
(g365
g35
(I1
I0
ttRp3156
ag1
(g365
g35
(I1
I0
ttRp3157
ag1
(g365
g35
(I1
I0
ttRp3158
ag1
(g365
g35
(I1
I0
ttRp3159
aa(lp3160
g1
(g365
g35
(I1
I0
ttRp3161
ag1
(g365
g35
(I1
I0
ttRp3162
ag1
(g365
g35
(I1
I0
ttRp3163
ag1
(g365
g35
(I1
I0
ttRp3164
ag1
(g365
g35
(I1
I0
ttRp3165
ag1
(g365
g35
(I1
I0
ttRp3166
ag1
(g365
g35
(I1
I0
ttRp3167
ag1
(g365
g35
(I1
I0
ttRp3168
ag1
(g365
g35
(I1
I0
ttRp3169
ag1
(g365
g35
(I1
I0
ttRp3170
ag1
(g365
g35
(I1
I0
ttRp3171
ag1
(g365
g35
(I1
I-1
ttRp3172
ag1
(g365
g35
(I1
I0
ttRp3173
ag1
(g365
g35
(I1
I0
ttRp3174
ag1
(g365
g35
(I1
I0
ttRp3175
ag1
(g365
g35
(I1
I0
ttRp3176
ag1
(g365
g35
(I1
I0
ttRp3177
ag1
(g365
g35
(I1
I0
ttRp3178
ag1
(g365
g35
(I1
I0
ttRp3179
ag1
(g365
g35
(I1
I0
ttRp3180
ag1
(g365
g35
(I1
I0
ttRp3181
ag1
(g365
g35
(I1
I0
ttRp3182
ag1
(g365
g35
(I1
I0
ttRp3183
ag1
(g365
g35
(I1
I0
ttRp3184
ag1
(g365
g35
(I1
I0
ttRp3185
ag1
(g365
g35
(I1
I0
ttRp3186
ag1
(g365
g35
(I1
I0
ttRp3187
ag1
(g365
g35
(I1
I0
ttRp3188
ag1
(g365
g35
(I1
I0
ttRp3189
ag1
(g365
g35
(I1
I0
ttRp3190
ag1
(g365
g35
(I1
I0
ttRp3191
ag1
(g365
g35
(I1
I0
ttRp3192
ag1
(g365
g35
(I1
I-1
ttRp3193
ag1
(g365
g35
(I1
I-1
ttRp3194
ag1
(g365
g35
(I1
I0
ttRp3195
ag1
(g365
g35
(I1
I0
ttRp3196
ag1
(g365
g35
(I1
I0
ttRp3197
ag1
(g365
g35
(I1
I0
ttRp3198
ag1
(g365
g35
(I1
I0
ttRp3199
ag1
(g365
g35
(I1
I0
ttRp3200
ag1
(g365
g35
(I1
I0
ttRp3201
ag1
(g365
g35
(I1
I0
ttRp3202
ag1
(g365
g35
(I1
I0
ttRp3203
ag1
(g365
g35
(I1
I0
ttRp3204
ag1
(g365
g35
(I1
I0
ttRp3205
ag1
(g365
g35
(I1
I0
ttRp3206
ag1
(g365
g35
(I1
I0
ttRp3207
ag1
(g365
g35
(I1
I0
ttRp3208
ag1
(g365
g35
(I1
I0
ttRp3209
ag1
(g365
g35
(I1
I0
ttRp3210
ag1
(g365
g35
(I1
I0
ttRp3211
ag1
(g365
g35
(I1
I0
ttRp3212
ag1
(g365
g35
(I1
I0
ttRp3213
ag1
(g365
g35
(I1
I0
ttRp3214
ag1
(g365
g35
(I1
I-1
ttRp3215
ag1
(g365
g35
(I1
I0
ttRp3216
ag1
(g365
g35
(I1
I0
ttRp3217
ag1
(g365
g35
(I1
I0
ttRp3218
ag1
(g365
g35
(I1
I0
ttRp3219
ag1
(g365
g35
(I1
I0
ttRp3220
ag1
(g365
g35
(I1
I0
ttRp3221
ag1
(g365
g35
(I1
I0
ttRp3222
ag1
(g365
g35
(I1
I0
ttRp3223
ag1
(g365
g35
(I1
I0
ttRp3224
aa(lp3225
g1
(g365
g35
(I1
I0
ttRp3226
ag1
(g365
g35
(I1
I0
ttRp3227
ag1
(g365
g35
(I1
I0
ttRp3228
ag1
(g365
g35
(I1
I0
ttRp3229
ag1
(g365
g35
(I1
I0
ttRp3230
ag1
(g365
g35
(I1
I0
ttRp3231
ag1
(g365
g35
(I1
I0
ttRp3232
ag1
(g365
g35
(I1
I0
ttRp3233
ag1
(g365
g35
(I1
I0
ttRp3234
ag1
(g365
g35
(I1
I0
ttRp3235
ag1
(g365
g35
(I1
I-1
ttRp3236
ag1
(g365
g35
(I1
I0
ttRp3237
ag1
(g365
g35
(I1
I0
ttRp3238
ag1
(g365
g35
(I1
I0
ttRp3239
ag1
(g365
g35
(I1
I0
ttRp3240
ag1
(g365
g35
(I1
I0
ttRp3241
ag1
(g365
g35
(I1
I0
ttRp3242
ag1
(g365
g35
(I1
I0
ttRp3243
ag1
(g365
g35
(I1
I0
ttRp3244
ag1
(g365
g35
(I1
I0
ttRp3245
ag1
(g365
g35
(I1
I0
ttRp3246
ag1
(g365
g35
(I1
I0
ttRp3247
ag1
(g365
g35
(I1
I0
ttRp3248
ag1
(g365
g35
(I1
I0
ttRp3249
ag1
(g365
g35
(I1
I0
ttRp3250
ag1
(g365
g35
(I1
I0
ttRp3251
ag1
(g365
g35
(I1
I0
ttRp3252
ag1
(g365
g35
(I1
I0
ttRp3253
ag1
(g365
g35
(I1
I0
ttRp3254
ag1
(g365
g35
(I1
I0
ttRp3255
ag1
(g365
g35
(I1
I0
ttRp3256
ag1
(g365
g35
(I1
I-1
ttRp3257
ag1
(g365
g35
(I1
I-1
ttRp3258
ag1
(g365
g35
(I1
I-1
ttRp3259
ag1
(g365
g35
(I1
I-1
ttRp3260
ag1
(g365
g35
(I1
I0
ttRp3261
ag1
(g365
g35
(I1
I0
ttRp3262
ag1
(g365
g35
(I1
I0
ttRp3263
ag1
(g365
g35
(I1
I0
ttRp3264
ag1
(g365
g35
(I1
I0
ttRp3265
ag1
(g365
g35
(I1
I0
ttRp3266
ag1
(g365
g35
(I1
I0
ttRp3267
ag1
(g365
g35
(I1
I0
ttRp3268
ag1
(g365
g35
(I1
I0
ttRp3269
ag1
(g365
g35
(I1
I0
ttRp3270
ag1
(g365
g35
(I1
I0
ttRp3271
ag1
(g365
g35
(I1
I0
ttRp3272
ag1
(g365
g35
(I1
I0
ttRp3273
ag1
(g365
g35
(I1
I0
ttRp3274
ag1
(g365
g35
(I1
I0
ttRp3275
ag1
(g365
g35
(I1
I0
ttRp3276
ag1
(g365
g35
(I1
I0
ttRp3277
ag1
(g365
g35
(I1
I0
ttRp3278
ag1
(g365
g35
(I1
I0
ttRp3279
ag1
(g365
g35
(I1
I-1
ttRp3280
ag1
(g365
g35
(I1
I0
ttRp3281
ag1
(g365
g35
(I1
I0
ttRp3282
ag1
(g365
g35
(I1
I0
ttRp3283
ag1
(g365
g35
(I1
I0
ttRp3284
ag1
(g365
g35
(I1
I0
ttRp3285
ag1
(g365
g35
(I1
I0
ttRp3286
ag1
(g365
g35
(I1
I0
ttRp3287
ag1
(g365
g35
(I1
I0
ttRp3288
ag1
(g365
g35
(I1
I0
ttRp3289
aa(lp3290
g1
(g365
g35
(I1
I0
ttRp3291
ag1
(g365
g35
(I1
I0
ttRp3292
ag1
(g365
g35
(I1
I0
ttRp3293
ag1
(g365
g35
(I1
I0
ttRp3294
ag1
(g365
g35
(I1
I0
ttRp3295
ag1
(g365
g35
(I1
I0
ttRp3296
ag1
(g365
g35
(I1
I0
ttRp3297
ag1
(g365
g35
(I1
I0
ttRp3298
ag1
(g365
g35
(I1
I0
ttRp3299
ag1
(g365
g35
(I1
I0
ttRp3300
ag1
(g365
g35
(I1
I0
ttRp3301
ag1
(g365
g35
(I1
I0
ttRp3302
ag1
(g365
g35
(I1
I0
ttRp3303
ag1
(g365
g35
(I1
I0
ttRp3304
ag1
(g365
g35
(I1
I0
ttRp3305
ag1
(g365
g35
(I1
I0
ttRp3306
ag1
(g365
g35
(I1
I0
ttRp3307
ag1
(g365
g35
(I1
I0
ttRp3308
ag1
(g365
g35
(I1
I0
ttRp3309
ag1
(g365
g35
(I1
I0
ttRp3310
ag1
(g365
g35
(I1
I0
ttRp3311
ag1
(g365
g35
(I1
I0
ttRp3312
ag1
(g365
g35
(I1
I0
ttRp3313
ag1
(g365
g35
(I1
I0
ttRp3314
ag1
(g365
g35
(I1
I0
ttRp3315
ag1
(g365
g35
(I1
I0
ttRp3316
ag1
(g365
g35
(I1
I0
ttRp3317
ag1
(g365
g35
(I1
I0
ttRp3318
ag1
(g365
g35
(I1
I0
ttRp3319
ag1
(g365
g35
(I1
I0
ttRp3320
ag1
(g365
g35
(I1
I-1
ttRp3321
ag1
(g365
g35
(I1
I-1
ttRp3322
ag1
(g365
g35
(I1
I-1
ttRp3323
ag1
(g365
g35
(I1
I-1
ttRp3324
ag1
(g365
g35
(I1
I-1
ttRp3325
ag1
(g365
g35
(I1
I0
ttRp3326
ag1
(g365
g35
(I1
I0
ttRp3327
ag1
(g365
g35
(I1
I0
ttRp3328
ag1
(g365
g35
(I1
I0
ttRp3329
ag1
(g365
g35
(I1
I0
ttRp3330
ag1
(g365
g35
(I1
I0
ttRp3331
ag1
(g365
g35
(I1
I0
ttRp3332
ag1
(g365
g35
(I1
I0
ttRp3333
ag1
(g365
g35
(I1
I0
ttRp3334
ag1
(g365
g35
(I1
I0
ttRp3335
ag1
(g365
g35
(I1
I0
ttRp3336
ag1
(g365
g35
(I1
I0
ttRp3337
ag1
(g365
g35
(I1
I0
ttRp3338
ag1
(g365
g35
(I1
I0
ttRp3339
ag1
(g365
g35
(I1
I0
ttRp3340
ag1
(g365
g35
(I1
I0
ttRp3341
ag1
(g365
g35
(I1
I0
ttRp3342
ag1
(g365
g35
(I1
I0
ttRp3343
ag1
(g365
g35
(I1
I0
ttRp3344
ag1
(g365
g35
(I1
I0
ttRp3345
ag1
(g365
g35
(I1
I0
ttRp3346
ag1
(g365
g35
(I1
I0
ttRp3347
ag1
(g365
g35
(I1
I0
ttRp3348
ag1
(g365
g35
(I1
I0
ttRp3349
ag1
(g365
g35
(I1
I0
ttRp3350
ag1
(g365
g35
(I1
I0
ttRp3351
ag1
(g365
g35
(I1
I0
ttRp3352
ag1
(g365
g35
(I1
I0
ttRp3353
ag1
(g365
g35
(I1
I0
ttRp3354
aa(lp3355
g1
(g365
g35
(I1
I0
ttRp3356
ag1
(g365
g35
(I1
I0
ttRp3357
ag1
(g365
g35
(I1
I0
ttRp3358
ag1
(g365
g35
(I1
I0
ttRp3359
ag1
(g365
g35
(I1
I0
ttRp3360
ag1
(g365
g35
(I1
I0
ttRp3361
ag1
(g365
g35
(I1
I0
ttRp3362
ag1
(g365
g35
(I1
I0
ttRp3363
ag1
(g365
g35
(I1
I0
ttRp3364
ag1
(g365
g35
(I1
I0
ttRp3365
ag1
(g365
g35
(I1
I0
ttRp3366
ag1
(g365
g35
(I1
I0
ttRp3367
ag1
(g365
g35
(I1
I0
ttRp3368
ag1
(g365
g35
(I1
I0
ttRp3369
ag1
(g365
g35
(I1
I0
ttRp3370
ag1
(g365
g35
(I1
I0
ttRp3371
ag1
(g365
g35
(I1
I0
ttRp3372
ag1
(g365
g35
(I1
I0
ttRp3373
ag1
(g365
g35
(I1
I0
ttRp3374
ag1
(g365
g35
(I1
I0
ttRp3375
ag1
(g365
g35
(I1
I0
ttRp3376
ag1
(g365
g35
(I1
I0
ttRp3377
ag1
(g365
g35
(I1
I0
ttRp3378
ag1
(g365
g35
(I1
I0
ttRp3379
ag1
(g365
g35
(I1
I0
ttRp3380
ag1
(g365
g35
(I1
I0
ttRp3381
ag1
(g365
g35
(I1
I0
ttRp3382
ag1
(g365
g35
(I1
I0
ttRp3383
ag1
(g365
g35
(I1
I0
ttRp3384
ag1
(g365
g35
(I1
I-1
ttRp3385
ag1
(g365
g35
(I1
I-1
ttRp3386
ag1
(g365
g35
(I1
I-1
ttRp3387
ag1
(g365
g35
(I1
I-1
ttRp3388
ag1
(g365
g35
(I1
I0
ttRp3389
ag1
(g365
g35
(I1
I-1
ttRp3390
ag1
(g365
g35
(I1
I-1
ttRp3391
ag1
(g365
g35
(I1
I0
ttRp3392
ag1
(g365
g35
(I1
I0
ttRp3393
ag1
(g365
g35
(I1
I0
ttRp3394
ag1
(g365
g35
(I1
I0
ttRp3395
ag1
(g365
g35
(I1
I0
ttRp3396
ag1
(g365
g35
(I1
I0
ttRp3397
ag1
(g365
g35
(I1
I0
ttRp3398
ag1
(g365
g35
(I1
I0
ttRp3399
ag1
(g365
g35
(I1
I0
ttRp3400
ag1
(g365
g35
(I1
I0
ttRp3401
ag1
(g365
g35
(I1
I0
ttRp3402
ag1
(g365
g35
(I1
I0
ttRp3403
ag1
(g365
g35
(I1
I0
ttRp3404
ag1
(g365
g35
(I1
I0
ttRp3405
ag1
(g365
g35
(I1
I0
ttRp3406
ag1
(g365
g35
(I1
I0
ttRp3407
ag1
(g365
g35
(I1
I0
ttRp3408
ag1
(g365
g35
(I1
I0
ttRp3409
ag1
(g365
g35
(I1
I0
ttRp3410
ag1
(g365
g35
(I1
I0
ttRp3411
ag1
(g365
g35
(I1
I0
ttRp3412
ag1
(g365
g35
(I1
I0
ttRp3413
ag1
(g365
g35
(I1
I0
ttRp3414
ag1
(g365
g35
(I1
I0
ttRp3415
ag1
(g365
g35
(I1
I0
ttRp3416
ag1
(g365
g35
(I1
I0
ttRp3417
ag1
(g365
g35
(I1
I0
ttRp3418
ag1
(g365
g35
(I1
I0
ttRp3419
aa(lp3420
g1
(g365
g35
(I1
I0
ttRp3421
ag1
(g365
g35
(I1
I0
ttRp3422
ag1
(g365
g35
(I1
I0
ttRp3423
ag1
(g365
g35
(I1
I0
ttRp3424
ag1
(g365
g35
(I1
I0
ttRp3425
ag1
(g365
g35
(I1
I0
ttRp3426
ag1
(g365
g35
(I1
I0
ttRp3427
ag1
(g365
g35
(I1
I0
ttRp3428
ag1
(g365
g35
(I1
I0
ttRp3429
ag1
(g365
g35
(I1
I0
ttRp3430
ag1
(g365
g35
(I1
I0
ttRp3431
ag1
(g365
g35
(I1
I0
ttRp3432
ag1
(g365
g35
(I1
I0
ttRp3433
ag1
(g365
g35
(I1
I0
ttRp3434
ag1
(g365
g35
(I1
I0
ttRp3435
ag1
(g365
g35
(I1
I0
ttRp3436
ag1
(g365
g35
(I1
I0
ttRp3437
ag1
(g365
g35
(I1
I0
ttRp3438
ag1
(g365
g35
(I1
I0
ttRp3439
ag1
(g365
g35
(I1
I0
ttRp3440
ag1
(g365
g35
(I1
I0
ttRp3441
ag1
(g365
g35
(I1
I0
ttRp3442
ag1
(g365
g35
(I1
I0
ttRp3443
ag1
(g365
g35
(I1
I0
ttRp3444
ag1
(g365
g35
(I1
I0
ttRp3445
ag1
(g365
g35
(I1
I0
ttRp3446
ag1
(g365
g35
(I1
I0
ttRp3447
ag1
(g365
g35
(I1
I0
ttRp3448
ag1
(g365
g35
(I1
I0
ttRp3449
ag1
(g365
g35
(I1
I0
ttRp3450
ag1
(g365
g35
(I1
I-1
ttRp3451
ag1
(g365
g35
(I1
I-1
ttRp3452
ag1
(g365
g35
(I1
I-1
ttRp3453
ag1
(g365
g35
(I1
I-1
ttRp3454
ag1
(g365
g35
(I1
I0
ttRp3455
ag1
(g365
g35
(I1
I-1
ttRp3456
ag1
(g365
g35
(I1
I-1
ttRp3457
ag1
(g365
g35
(I1
I-1
ttRp3458
ag1
(g365
g35
(I1
I0
ttRp3459
ag1
(g365
g35
(I1
I0
ttRp3460
ag1
(g365
g35
(I1
I0
ttRp3461
ag1
(g365
g35
(I1
I0
ttRp3462
ag1
(g365
g35
(I1
I0
ttRp3463
ag1
(g365
g35
(I1
I0
ttRp3464
ag1
(g365
g35
(I1
I0
ttRp3465
ag1
(g365
g35
(I1
I0
ttRp3466
ag1
(g365
g35
(I1
I0
ttRp3467
ag1
(g365
g35
(I1
I0
ttRp3468
ag1
(g365
g35
(I1
I0
ttRp3469
ag1
(g365
g35
(I1
I0
ttRp3470
ag1
(g365
g35
(I1
I0
ttRp3471
ag1
(g365
g35
(I1
I0
ttRp3472
ag1
(g365
g35
(I1
I0
ttRp3473
ag1
(g365
g35
(I1
I0
ttRp3474
ag1
(g365
g35
(I1
I0
ttRp3475
ag1
(g365
g35
(I1
I0
ttRp3476
ag1
(g365
g35
(I1
I0
ttRp3477
ag1
(g365
g35
(I1
I0
ttRp3478
ag1
(g365
g35
(I1
I0
ttRp3479
ag1
(g365
g35
(I1
I0
ttRp3480
ag1
(g365
g35
(I1
I0
ttRp3481
ag1
(g365
g35
(I1
I0
ttRp3482
ag1
(g365
g35
(I1
I0
ttRp3483
ag1
(g365
g35
(I1
I0
ttRp3484
aa(lp3485
g1
(g365
g35
(I1
I0
ttRp3486
ag1
(g365
g35
(I1
I0
ttRp3487
ag1
(g365
g35
(I1
I0
ttRp3488
ag1
(g365
g35
(I1
I0
ttRp3489
ag1
(g365
g35
(I1
I0
ttRp3490
ag1
(g365
g35
(I1
I0
ttRp3491
ag1
(g365
g35
(I1
I0
ttRp3492
ag1
(g365
g35
(I1
I0
ttRp3493
ag1
(g365
g35
(I1
I0
ttRp3494
ag1
(g365
g35
(I1
I0
ttRp3495
ag1
(g365
g35
(I1
I0
ttRp3496
ag1
(g365
g35
(I1
I0
ttRp3497
ag1
(g365
g35
(I1
I0
ttRp3498
ag1
(g365
g35
(I1
I0
ttRp3499
ag1
(g365
g35
(I1
I0
ttRp3500
ag1
(g365
g35
(I1
I0
ttRp3501
ag1
(g365
g35
(I1
I0
ttRp3502
ag1
(g365
g35
(I1
I0
ttRp3503
ag1
(g365
g35
(I1
I0
ttRp3504
ag1
(g365
g35
(I1
I0
ttRp3505
ag1
(g365
g35
(I1
I0
ttRp3506
ag1
(g365
g35
(I1
I0
ttRp3507
ag1
(g365
g35
(I1
I0
ttRp3508
ag1
(g365
g35
(I1
I0
ttRp3509
ag1
(g365
g35
(I1
I0
ttRp3510
ag1
(g365
g35
(I1
I0
ttRp3511
ag1
(g365
g35
(I1
I0
ttRp3512
ag1
(g365
g35
(I1
I-1
ttRp3513
ag1
(g365
g35
(I1
I-1
ttRp3514
ag1
(g365
g35
(I1
I0
ttRp3515
ag1
(g365
g35
(I1
I-1
ttRp3516
ag1
(g365
g35
(I1
I-1
ttRp3517
ag1
(g365
g35
(I1
I0
ttRp3518
ag1
(g365
g35
(I1
I-1
ttRp3519
ag1
(g365
g35
(I1
I-1
ttRp3520
ag1
(g365
g35
(I1
I-1
ttRp3521
ag1
(g365
g35
(I1
I0
ttRp3522
ag1
(g365
g35
(I1
I-1
ttRp3523
ag1
(g365
g35
(I1
I0
ttRp3524
ag1
(g365
g35
(I1
I0
ttRp3525
ag1
(g365
g35
(I1
I0
ttRp3526
ag1
(g365
g35
(I1
I0
ttRp3527
ag1
(g365
g35
(I1
I0
ttRp3528
ag1
(g365
g35
(I1
I0
ttRp3529
ag1
(g365
g35
(I1
I0
ttRp3530
ag1
(g365
g35
(I1
I0
ttRp3531
ag1
(g365
g35
(I1
I0
ttRp3532
ag1
(g365
g35
(I1
I0
ttRp3533
ag1
(g365
g35
(I1
I0
ttRp3534
ag1
(g365
g35
(I1
I0
ttRp3535
ag1
(g365
g35
(I1
I0
ttRp3536
ag1
(g365
g35
(I1
I0
ttRp3537
ag1
(g365
g35
(I1
I0
ttRp3538
ag1
(g365
g35
(I1
I0
ttRp3539
ag1
(g365
g35
(I1
I0
ttRp3540
ag1
(g365
g35
(I1
I0
ttRp3541
ag1
(g365
g35
(I1
I0
ttRp3542
ag1
(g365
g35
(I1
I0
ttRp3543
ag1
(g365
g35
(I1
I0
ttRp3544
ag1
(g365
g35
(I1
I0
ttRp3545
ag1
(g365
g35
(I1
I0
ttRp3546
ag1
(g365
g35
(I1
I0
ttRp3547
ag1
(g365
g35
(I1
I0
ttRp3548
ag1
(g365
g35
(I1
I0
ttRp3549
aa(lp3550
g1
(g365
g35
(I1
I0
ttRp3551
ag1
(g365
g35
(I1
I0
ttRp3552
ag1
(g365
g35
(I1
I0
ttRp3553
ag1
(g365
g35
(I1
I0
ttRp3554
ag1
(g365
g35
(I1
I0
ttRp3555
ag1
(g365
g35
(I1
I0
ttRp3556
ag1
(g365
g35
(I1
I0
ttRp3557
ag1
(g365
g35
(I1
I0
ttRp3558
ag1
(g365
g35
(I1
I0
ttRp3559
ag1
(g365
g35
(I1
I0
ttRp3560
ag1
(g365
g35
(I1
I0
ttRp3561
ag1
(g365
g35
(I1
I0
ttRp3562
ag1
(g365
g35
(I1
I0
ttRp3563
ag1
(g365
g35
(I1
I0
ttRp3564
ag1
(g365
g35
(I1
I0
ttRp3565
ag1
(g365
g35
(I1
I0
ttRp3566
ag1
(g365
g35
(I1
I0
ttRp3567
ag1
(g365
g35
(I1
I0
ttRp3568
ag1
(g365
g35
(I1
I0
ttRp3569
ag1
(g365
g35
(I1
I0
ttRp3570
ag1
(g365
g35
(I1
I0
ttRp3571
ag1
(g365
g35
(I1
I0
ttRp3572
ag1
(g365
g35
(I1
I0
ttRp3573
ag1
(g365
g35
(I1
I0
ttRp3574
ag1
(g365
g35
(I1
I0
ttRp3575
ag1
(g365
g35
(I1
I0
ttRp3576
ag1
(g365
g35
(I1
I-1
ttRp3577
ag1
(g365
g35
(I1
I-1
ttRp3578
ag1
(g365
g35
(I1
I-1
ttRp3579
ag1
(g365
g35
(I1
I-1
ttRp3580
ag1
(g365
g35
(I1
I0
ttRp3581
ag1
(g365
g35
(I1
I-1
ttRp3582
ag1
(g365
g35
(I1
I-1
ttRp3583
ag1
(g365
g35
(I1
I0
ttRp3584
ag1
(g365
g35
(I1
I-1
ttRp3585
ag1
(g365
g35
(I1
I0
ttRp3586
ag1
(g365
g35
(I1
I-1
ttRp3587
ag1
(g365
g35
(I1
I-1
ttRp3588
ag1
(g365
g35
(I1
I-1
ttRp3589
ag1
(g365
g35
(I1
I0
ttRp3590
ag1
(g365
g35
(I1
I0
ttRp3591
ag1
(g365
g35
(I1
I0
ttRp3592
ag1
(g365
g35
(I1
I0
ttRp3593
ag1
(g365
g35
(I1
I0
ttRp3594
ag1
(g365
g35
(I1
I0
ttRp3595
ag1
(g365
g35
(I1
I0
ttRp3596
ag1
(g365
g35
(I1
I0
ttRp3597
ag1
(g365
g35
(I1
I0
ttRp3598
ag1
(g365
g35
(I1
I0
ttRp3599
ag1
(g365
g35
(I1
I0
ttRp3600
ag1
(g365
g35
(I1
I0
ttRp3601
ag1
(g365
g35
(I1
I0
ttRp3602
ag1
(g365
g35
(I1
I0
ttRp3603
ag1
(g365
g35
(I1
I0
ttRp3604
ag1
(g365
g35
(I1
I0
ttRp3605
ag1
(g365
g35
(I1
I0
ttRp3606
ag1
(g365
g35
(I1
I0
ttRp3607
ag1
(g365
g35
(I1
I0
ttRp3608
ag1
(g365
g35
(I1
I0
ttRp3609
ag1
(g365
g35
(I1
I0
ttRp3610
ag1
(g365
g35
(I1
I0
ttRp3611
ag1
(g365
g35
(I1
I0
ttRp3612
ag1
(g365
g35
(I1
I0
ttRp3613
ag1
(g365
g35
(I1
I0
ttRp3614
aa(lp3615
g1
(g365
g35
(I1
I0
ttRp3616
ag1
(g365
g35
(I1
I0
ttRp3617
ag1
(g365
g35
(I1
I0
ttRp3618
ag1
(g365
g35
(I1
I0
ttRp3619
ag1
(g365
g35
(I1
I0
ttRp3620
ag1
(g365
g35
(I1
I0
ttRp3621
ag1
(g365
g35
(I1
I0
ttRp3622
ag1
(g365
g35
(I1
I0
ttRp3623
ag1
(g365
g35
(I1
I-31
ttRp3624
ag1
(g365
g35
(I1
I-32
ttRp3625
ag1
(g365
g35
(I1
I-40
ttRp3626
ag1
(g365
g35
(I1
I-28
ttRp3627
ag1
(g365
g35
(I1
I-30
ttRp3628
ag1
(g365
g35
(I1
I0
ttRp3629
ag1
(g365
g35
(I1
I0
ttRp3630
ag1
(g365
g35
(I1
I0
ttRp3631
ag1
(g365
g35
(I1
I0
ttRp3632
ag1
(g365
g35
(I1
I0
ttRp3633
ag1
(g365
g35
(I1
I0
ttRp3634
ag1
(g365
g35
(I1
I0
ttRp3635
ag1
(g365
g35
(I1
I0
ttRp3636
ag1
(g365
g35
(I1
I0
ttRp3637
ag1
(g365
g35
(I1
I0
ttRp3638
ag1
(g365
g35
(I1
I0
ttRp3639
ag1
(g365
g35
(I1
I0
ttRp3640
ag1
(g365
g35
(I1
I0
ttRp3641
ag1
(g365
g35
(I1
I-1
ttRp3642
ag1
(g365
g35
(I1
I-1
ttRp3643
ag1
(g365
g35
(I1
I-1
ttRp3644
ag1
(g365
g35
(I1
I0
ttRp3645
ag1
(g365
g35
(I1
I-1
ttRp3646
ag1
(g365
g35
(I1
I0
ttRp3647
ag1
(g365
g35
(I1
I-1
ttRp3648
ag1
(g365
g35
(I1
I0
ttRp3649
ag1
(g365
g35
(I1
I-1
ttRp3650
ag1
(g365
g35
(I1
I-1
ttRp3651
ag1
(g365
g35
(I1
I-1
ttRp3652
ag1
(g365
g35
(I1
I0
ttRp3653
ag1
(g365
g35
(I1
I-1
ttRp3654
ag1
(g365
g35
(I1
I-1
ttRp3655
ag1
(g365
g35
(I1
I-1
ttRp3656
ag1
(g365
g35
(I1
I0
ttRp3657
ag1
(g365
g35
(I1
I0
ttRp3658
ag1
(g365
g35
(I1
I0
ttRp3659
ag1
(g365
g35
(I1
I0
ttRp3660
ag1
(g365
g35
(I1
I0
ttRp3661
ag1
(g365
g35
(I1
I0
ttRp3662
ag1
(g365
g35
(I1
I0
ttRp3663
ag1
(g365
g35
(I1
I0
ttRp3664
ag1
(g365
g35
(I1
I0
ttRp3665
ag1
(g365
g35
(I1
I0
ttRp3666
ag1
(g365
g35
(I1
I-32
ttRp3667
ag1
(g365
g35
(I1
I-35
ttRp3668
ag1
(g365
g35
(I1
I-31
ttRp3669
ag1
(g365
g35
(I1
I-27
ttRp3670
ag1
(g365
g35
(I1
I-27
ttRp3671
ag1
(g365
g35
(I1
I0
ttRp3672
ag1
(g365
g35
(I1
I0
ttRp3673
ag1
(g365
g35
(I1
I0
ttRp3674
ag1
(g365
g35
(I1
I0
ttRp3675
ag1
(g365
g35
(I1
I0
ttRp3676
ag1
(g365
g35
(I1
I0
ttRp3677
ag1
(g365
g35
(I1
I0
ttRp3678
ag1
(g365
g35
(I1
I0
ttRp3679
aa(lp3680
g1
(g365
g35
(I1
I0
ttRp3681
ag1
(g365
g35
(I1
I0
ttRp3682
ag1
(g365
g35
(I1
I0
ttRp3683
ag1
(g365
g35
(I1
I0
ttRp3684
ag1
(g365
g35
(I1
I0
ttRp3685
ag1
(g365
g35
(I1
I0
ttRp3686
ag1
(g365
g35
(I1
I0
ttRp3687
ag1
(g365
g35
(I1
I0
ttRp3688
ag1
(g365
g35
(I1
I0
ttRp3689
ag1
(g365
g35
(I1
I0
ttRp3690
ag1
(g365
g35
(I1
I0
ttRp3691
ag1
(g365
g35
(I1
I0
ttRp3692
ag1
(g365
g35
(I1
I0
ttRp3693
ag1
(g365
g35
(I1
I0
ttRp3694
ag1
(g365
g35
(I1
I0
ttRp3695
ag1
(g365
g35
(I1
I0
ttRp3696
ag1
(g365
g35
(I1
I0
ttRp3697
ag1
(g365
g35
(I1
I0
ttRp3698
ag1
(g365
g35
(I1
I0
ttRp3699
ag1
(g365
g35
(I1
I0
ttRp3700
ag1
(g365
g35
(I1
I0
ttRp3701
ag1
(g365
g35
(I1
I0
ttRp3702
ag1
(g365
g35
(I1
I0
ttRp3703
ag1
(g365
g35
(I1
I0
ttRp3704
ag1
(g365
g35
(I1
I-1
ttRp3705
ag1
(g365
g35
(I1
I0
ttRp3706
ag1
(g365
g35
(I1
I-1
ttRp3707
ag1
(g365
g35
(I1
I-1
ttRp3708
ag1
(g365
g35
(I1
I-1
ttRp3709
ag1
(g365
g35
(I1
I-1
ttRp3710
ag1
(g365
g35
(I1
I-1
ttRp3711
ag1
(g365
g35
(I1
I-1
ttRp3712
ag1
(g365
g35
(I1
I-1
ttRp3713
ag1
(g365
g35
(I1
I0
ttRp3714
ag1
(g365
g35
(I1
I-1
ttRp3715
ag1
(g365
g35
(I1
I0
ttRp3716
ag1
(g365
g35
(I1
I-1
ttRp3717
ag1
(g365
g35
(I1
I-1
ttRp3718
ag1
(g365
g35
(I1
I-1
ttRp3719
ag1
(g365
g35
(I1
I-1
ttRp3720
ag1
(g365
g35
(I1
I-1
ttRp3721
ag1
(g365
g35
(I1
I0
ttRp3722
ag1
(g365
g35
(I1
I0
ttRp3723
ag1
(g365
g35
(I1
I0
ttRp3724
ag1
(g365
g35
(I1
I0
ttRp3725
ag1
(g365
g35
(I1
I0
ttRp3726
ag1
(g365
g35
(I1
I0
ttRp3727
ag1
(g365
g35
(I1
I0
ttRp3728
ag1
(g365
g35
(I1
I0
ttRp3729
ag1
(g365
g35
(I1
I0
ttRp3730
ag1
(g365
g35
(I1
I0
ttRp3731
ag1
(g365
g35
(I1
I0
ttRp3732
ag1
(g365
g35
(I1
I0
ttRp3733
ag1
(g365
g35
(I1
I0
ttRp3734
ag1
(g365
g35
(I1
I0
ttRp3735
ag1
(g365
g35
(I1
I0
ttRp3736
ag1
(g365
g35
(I1
I0
ttRp3737
ag1
(g365
g35
(I1
I0
ttRp3738
ag1
(g365
g35
(I1
I0
ttRp3739
ag1
(g365
g35
(I1
I0
ttRp3740
ag1
(g365
g35
(I1
I0
ttRp3741
ag1
(g365
g35
(I1
I0
ttRp3742
ag1
(g365
g35
(I1
I0
ttRp3743
ag1
(g365
g35
(I1
I0
ttRp3744
aa(lp3745
g1
(g365
g35
(I1
I0
ttRp3746
ag1
(g365
g35
(I1
I0
ttRp3747
ag1
(g365
g35
(I1
I0
ttRp3748
ag1
(g365
g35
(I1
I0
ttRp3749
ag1
(g365
g35
(I1
I0
ttRp3750
ag1
(g365
g35
(I1
I0
ttRp3751
ag1
(g365
g35
(I1
I0
ttRp3752
ag1
(g365
g35
(I1
I0
ttRp3753
ag1
(g365
g35
(I1
I0
ttRp3754
ag1
(g365
g35
(I1
I0
ttRp3755
ag1
(g365
g35
(I1
I0
ttRp3756
ag1
(g365
g35
(I1
I0
ttRp3757
ag1
(g365
g35
(I1
I0
ttRp3758
ag1
(g365
g35
(I1
I0
ttRp3759
ag1
(g365
g35
(I1
I0
ttRp3760
ag1
(g365
g35
(I1
I0
ttRp3761
ag1
(g365
g35
(I1
I0
ttRp3762
ag1
(g365
g35
(I1
I0
ttRp3763
ag1
(g365
g35
(I1
I0
ttRp3764
ag1
(g365
g35
(I1
I0
ttRp3765
ag1
(g365
g35
(I1
I0
ttRp3766
ag1
(g365
g35
(I1
I0
ttRp3767
ag1
(g365
g35
(I1
I0
ttRp3768
ag1
(g365
g35
(I1
I0
ttRp3769
ag1
(g365
g35
(I1
I0
ttRp3770
ag1
(g365
g35
(I1
I0
ttRp3771
ag1
(g365
g35
(I1
I-1
ttRp3772
ag1
(g365
g35
(I1
I-1
ttRp3773
ag1
(g365
g35
(I1
I0
ttRp3774
ag1
(g365
g35
(I1
I-1
ttRp3775
ag1
(g365
g35
(I1
I-1
ttRp3776
ag1
(g365
g35
(I1
I-1
ttRp3777
ag1
(g365
g35
(I1
I-1
ttRp3778
ag1
(g365
g35
(I1
I0
ttRp3779
ag1
(g365
g35
(I1
I-1
ttRp3780
ag1
(g365
g35
(I1
I-1
ttRp3781
ag1
(g365
g35
(I1
I-1
ttRp3782
ag1
(g365
g35
(I1
I-1
ttRp3783
ag1
(g365
g35
(I1
I0
ttRp3784
ag1
(g365
g35
(I1
I-1
ttRp3785
ag1
(g365
g35
(I1
I-1
ttRp3786
ag1
(g365
g35
(I1
I-1
ttRp3787
ag1
(g365
g35
(I1
I-1
ttRp3788
ag1
(g365
g35
(I1
I0
ttRp3789
ag1
(g365
g35
(I1
I0
ttRp3790
ag1
(g365
g35
(I1
I0
ttRp3791
ag1
(g365
g35
(I1
I0
ttRp3792
ag1
(g365
g35
(I1
I0
ttRp3793
ag1
(g365
g35
(I1
I0
ttRp3794
ag1
(g365
g35
(I1
I0
ttRp3795
ag1
(g365
g35
(I1
I0
ttRp3796
ag1
(g365
g35
(I1
I0
ttRp3797
ag1
(g365
g35
(I1
I0
ttRp3798
ag1
(g365
g35
(I1
I0
ttRp3799
ag1
(g365
g35
(I1
I0
ttRp3800
ag1
(g365
g35
(I1
I0
ttRp3801
ag1
(g365
g35
(I1
I0
ttRp3802
ag1
(g365
g35
(I1
I0
ttRp3803
ag1
(g365
g35
(I1
I0
ttRp3804
ag1
(g365
g35
(I1
I0
ttRp3805
ag1
(g365
g35
(I1
I0
ttRp3806
ag1
(g365
g35
(I1
I0
ttRp3807
ag1
(g365
g35
(I1
I0
ttRp3808
ag1
(g365
g35
(I1
I0
ttRp3809
aa(lp3810
g1
(g365
g35
(I1
I0
ttRp3811
ag1
(g365
g35
(I1
I0
ttRp3812
ag1
(g365
g35
(I1
I0
ttRp3813
ag1
(g365
g35
(I1
I0
ttRp3814
ag1
(g365
g35
(I1
I0
ttRp3815
ag1
(g365
g35
(I1
I0
ttRp3816
ag1
(g365
g35
(I1
I0
ttRp3817
ag1
(g365
g35
(I1
I0
ttRp3818
ag1
(g365
g35
(I1
I0
ttRp3819
ag1
(g365
g35
(I1
I0
ttRp3820
ag1
(g365
g35
(I1
I0
ttRp3821
ag1
(g365
g35
(I1
I0
ttRp3822
ag1
(g365
g35
(I1
I0
ttRp3823
ag1
(g365
g35
(I1
I0
ttRp3824
ag1
(g365
g35
(I1
I0
ttRp3825
ag1
(g365
g35
(I1
I0
ttRp3826
ag1
(g365
g35
(I1
I0
ttRp3827
ag1
(g365
g35
(I1
I0
ttRp3828
ag1
(g365
g35
(I1
I0
ttRp3829
ag1
(g365
g35
(I1
I0
ttRp3830
ag1
(g365
g35
(I1
I0
ttRp3831
ag1
(g365
g35
(I1
I0
ttRp3832
ag1
(g365
g35
(I1
I0
ttRp3833
ag1
(g365
g35
(I1
I-1
ttRp3834
ag1
(g365
g35
(I1
I-1
ttRp3835
ag1
(g365
g35
(I1
I0
ttRp3836
ag1
(g365
g35
(I1
I-1
ttRp3837
ag1
(g365
g35
(I1
I0
ttRp3838
ag1
(g365
g35
(I1
I0
ttRp3839
ag1
(g365
g35
(I1
I0
ttRp3840
ag1
(g365
g35
(I1
I0
ttRp3841
ag1
(g365
g35
(I1
I-1
ttRp3842
ag1
(g365
g35
(I1
I0
ttRp3843
ag1
(g365
g35
(I1
I-1
ttRp3844
ag1
(g365
g35
(I1
I-1
ttRp3845
ag1
(g365
g35
(I1
I0
ttRp3846
ag1
(g365
g35
(I1
I-1
ttRp3847
ag1
(g365
g35
(I1
I-1
ttRp3848
ag1
(g365
g35
(I1
I-1
ttRp3849
ag1
(g365
g35
(I1
I-1
ttRp3850
ag1
(g365
g35
(I1
I-1
ttRp3851
ag1
(g365
g35
(I1
I-1
ttRp3852
ag1
(g365
g35
(I1
I-1
ttRp3853
ag1
(g365
g35
(I1
I0
ttRp3854
ag1
(g365
g35
(I1
I0
ttRp3855
ag1
(g365
g35
(I1
I0
ttRp3856
ag1
(g365
g35
(I1
I0
ttRp3857
ag1
(g365
g35
(I1
I0
ttRp3858
ag1
(g365
g35
(I1
I0
ttRp3859
ag1
(g365
g35
(I1
I0
ttRp3860
ag1
(g365
g35
(I1
I0
ttRp3861
ag1
(g365
g35
(I1
I0
ttRp3862
ag1
(g365
g35
(I1
I0
ttRp3863
ag1
(g365
g35
(I1
I0
ttRp3864
ag1
(g365
g35
(I1
I0
ttRp3865
ag1
(g365
g35
(I1
I0
ttRp3866
ag1
(g365
g35
(I1
I0
ttRp3867
ag1
(g365
g35
(I1
I0
ttRp3868
ag1
(g365
g35
(I1
I0
ttRp3869
ag1
(g365
g35
(I1
I0
ttRp3870
ag1
(g365
g35
(I1
I0
ttRp3871
ag1
(g365
g35
(I1
I0
ttRp3872
ag1
(g365
g35
(I1
I0
ttRp3873
ag1
(g365
g35
(I1
I0
ttRp3874
aa(lp3875
g1
(g365
g35
(I1
I0
ttRp3876
ag1
(g365
g35
(I1
I0
ttRp3877
ag1
(g365
g35
(I1
I0
ttRp3878
ag1
(g365
g35
(I1
I0
ttRp3879
ag1
(g365
g35
(I1
I0
ttRp3880
ag1
(g365
g35
(I1
I0
ttRp3881
ag1
(g365
g35
(I1
I0
ttRp3882
ag1
(g365
g35
(I1
I0
ttRp3883
ag1
(g365
g35
(I1
I0
ttRp3884
ag1
(g365
g35
(I1
I0
ttRp3885
ag1
(g365
g35
(I1
I0
ttRp3886
ag1
(g365
g35
(I1
I0
ttRp3887
ag1
(g365
g35
(I1
I0
ttRp3888
ag1
(g365
g35
(I1
I0
ttRp3889
ag1
(g365
g35
(I1
I0
ttRp3890
ag1
(g365
g35
(I1
I0
ttRp3891
ag1
(g365
g35
(I1
I0
ttRp3892
ag1
(g365
g35
(I1
I0
ttRp3893
ag1
(g365
g35
(I1
I0
ttRp3894
ag1
(g365
g35
(I1
I0
ttRp3895
ag1
(g365
g35
(I1
I0
ttRp3896
ag1
(g365
g35
(I1
I0
ttRp3897
ag1
(g365
g35
(I1
I0
ttRp3898
ag1
(g365
g35
(I1
I0
ttRp3899
ag1
(g365
g35
(I1
I-1
ttRp3900
ag1
(g365
g35
(I1
I0
ttRp3901
ag1
(g365
g35
(I1
I-1
ttRp3902
ag1
(g365
g35
(I1
I-1
ttRp3903
ag1
(g365
g35
(I1
I-1
ttRp3904
ag1
(g365
g35
(I1
I-1
ttRp3905
ag1
(g365
g35
(I1
I0
ttRp3906
ag1
(g365
g35
(I1
I0
ttRp3907
ag1
(g365
g35
(I1
I-1
ttRp3908
ag1
(g365
g35
(I1
I-1
ttRp3909
ag1
(g365
g35
(I1
I-1
ttRp3910
ag1
(g365
g35
(I1
I-1
ttRp3911
ag1
(g365
g35
(I1
I-1
ttRp3912
ag1
(g365
g35
(I1
I-1
ttRp3913
ag1
(g365
g35
(I1
I0
ttRp3914
ag1
(g365
g35
(I1
I0
ttRp3915
ag1
(g365
g35
(I1
I-1
ttRp3916
ag1
(g365
g35
(I1
I-1
ttRp3917
ag1
(g365
g35
(I1
I-1
ttRp3918
ag1
(g365
g35
(I1
I-1
ttRp3919
ag1
(g365
g35
(I1
I-1
ttRp3920
ag1
(g365
g35
(I1
I0
ttRp3921
ag1
(g365
g35
(I1
I0
ttRp3922
ag1
(g365
g35
(I1
I0
ttRp3923
ag1
(g365
g35
(I1
I0
ttRp3924
ag1
(g365
g35
(I1
I0
ttRp3925
ag1
(g365
g35
(I1
I0
ttRp3926
ag1
(g365
g35
(I1
I0
ttRp3927
ag1
(g365
g35
(I1
I0
ttRp3928
ag1
(g365
g35
(I1
I0
ttRp3929
ag1
(g365
g35
(I1
I0
ttRp3930
ag1
(g365
g35
(I1
I0
ttRp3931
ag1
(g365
g35
(I1
I0
ttRp3932
ag1
(g365
g35
(I1
I0
ttRp3933
ag1
(g365
g35
(I1
I0
ttRp3934
ag1
(g365
g35
(I1
I0
ttRp3935
ag1
(g365
g35
(I1
I0
ttRp3936
ag1
(g365
g35
(I1
I0
ttRp3937
ag1
(g365
g35
(I1
I0
ttRp3938
ag1
(g365
g35
(I1
I0
ttRp3939
aa(lp3940
g1
(g365
g35
(I1
I0
ttRp3941
ag1
(g365
g35
(I1
I0
ttRp3942
ag1
(g365
g35
(I1
I0
ttRp3943
ag1
(g365
g35
(I1
I0
ttRp3944
ag1
(g365
g35
(I1
I0
ttRp3945
ag1
(g365
g35
(I1
I0
ttRp3946
ag1
(g365
g35
(I1
I0
ttRp3947
ag1
(g365
g35
(I1
I0
ttRp3948
ag1
(g365
g35
(I1
I0
ttRp3949
ag1
(g365
g35
(I1
I0
ttRp3950
ag1
(g365
g35
(I1
I0
ttRp3951
ag1
(g365
g35
(I1
I0
ttRp3952
ag1
(g365
g35
(I1
I0
ttRp3953
ag1
(g365
g35
(I1
I0
ttRp3954
ag1
(g365
g35
(I1
I0
ttRp3955
ag1
(g365
g35
(I1
I0
ttRp3956
ag1
(g365
g35
(I1
I0
ttRp3957
ag1
(g365
g35
(I1
I0
ttRp3958
ag1
(g365
g35
(I1
I0
ttRp3959
ag1
(g365
g35
(I1
I0
ttRp3960
ag1
(g365
g35
(I1
I0
ttRp3961
ag1
(g365
g35
(I1
I0
ttRp3962
ag1
(g365
g35
(I1
I0
ttRp3963
ag1
(g365
g35
(I1
I0
ttRp3964
ag1
(g365
g35
(I1
I0
ttRp3965
ag1
(g365
g35
(I1
I0
ttRp3966
ag1
(g365
g35
(I1
I0
ttRp3967
ag1
(g365
g35
(I1
I0
ttRp3968
ag1
(g365
g35
(I1
I0
ttRp3969
ag1
(g365
g35
(I1
I0
ttRp3970
ag1
(g365
g35
(I1
I0
ttRp3971
ag1
(g365
g35
(I1
I0
ttRp3972
ag1
(g365
g35
(I1
I0
ttRp3973
ag1
(g365
g35
(I1
I0
ttRp3974
ag1
(g365
g35
(I1
I0
ttRp3975
ag1
(g365
g35
(I1
I0
ttRp3976
ag1
(g365
g35
(I1
I0
ttRp3977
ag1
(g365
g35
(I1
I0
ttRp3978
ag1
(g365
g35
(I1
I0
ttRp3979
ag1
(g365
g35
(I1
I0
ttRp3980
ag1
(g365
g35
(I1
I0
ttRp3981
ag1
(g365
g35
(I1
I0
ttRp3982
ag1
(g365
g35
(I1
I0
ttRp3983
ag1
(g365
g35
(I1
I0
ttRp3984
ag1
(g365
g35
(I1
I0
ttRp3985
ag1
(g365
g35
(I1
I0
ttRp3986
ag1
(g365
g35
(I1
I0
ttRp3987
ag1
(g365
g35
(I1
I0
ttRp3988
ag1
(g365
g35
(I1
I0
ttRp3989
ag1
(g365
g35
(I1
I0
ttRp3990
ag1
(g365
g35
(I1
I0
ttRp3991
ag1
(g365
g35
(I1
I0
ttRp3992
ag1
(g365
g35
(I1
I0
ttRp3993
ag1
(g365
g35
(I1
I0
ttRp3994
ag1
(g365
g35
(I1
I0
ttRp3995
ag1
(g365
g35
(I1
I0
ttRp3996
ag1
(g365
g35
(I1
I0
ttRp3997
ag1
(g365
g35
(I1
I0
ttRp3998
ag1
(g365
g35
(I1
I0
ttRp3999
ag1
(g365
g35
(I1
I0
ttRp4000
ag1
(g365
g35
(I1
I0
ttRp4001
ag1
(g365
g35
(I1
I0
ttRp4002
ag1
(g365
g35
(I1
I0
ttRp4003
ag1
(g365
g35
(I1
I0
ttRp4004
aa(lp4005
g1
(g365
g35
(I1
I0
ttRp4006
ag1
(g365
g35
(I1
I0
ttRp4007
ag1
(g365
g35
(I1
I0
ttRp4008
ag1
(g365
g35
(I1
I0
ttRp4009
ag1
(g365
g35
(I1
I0
ttRp4010
ag1
(g365
g35
(I1
I0
ttRp4011
ag1
(g365
g35
(I1
I0
ttRp4012
ag1
(g365
g35
(I1
I0
ttRp4013
ag1
(g365
g35
(I1
I0
ttRp4014
ag1
(g365
g35
(I1
I0
ttRp4015
ag1
(g365
g35
(I1
I0
ttRp4016
ag1
(g365
g35
(I1
I0
ttRp4017
ag1
(g365
g35
(I1
I0
ttRp4018
ag1
(g365
g35
(I1
I0
ttRp4019
ag1
(g365
g35
(I1
I0
ttRp4020
ag1
(g365
g35
(I1
I0
ttRp4021
ag1
(g365
g35
(I1
I0
ttRp4022
ag1
(g365
g35
(I1
I0
ttRp4023
ag1
(g365
g35
(I1
I0
ttRp4024
ag1
(g365
g35
(I1
I0
ttRp4025
ag1
(g365
g35
(I1
I0
ttRp4026
ag1
(g365
g35
(I1
I0
ttRp4027
ag1
(g365
g35
(I1
I0
ttRp4028
ag1
(g365
g35
(I1
I0
ttRp4029
ag1
(g365
g35
(I1
I0
ttRp4030
ag1
(g365
g35
(I1
I0
ttRp4031
ag1
(g365
g35
(I1
I0
ttRp4032
ag1
(g365
g35
(I1
I0
ttRp4033
ag1
(g365
g35
(I1
I0
ttRp4034
ag1
(g365
g35
(I1
I0
ttRp4035
ag1
(g365
g35
(I1
I0
ttRp4036
ag1
(g365
g35
(I1
I0
ttRp4037
ag1
(g365
g35
(I1
I0
ttRp4038
ag1
(g365
g35
(I1
I0
ttRp4039
ag1
(g365
g35
(I1
I0
ttRp4040
ag1
(g365
g35
(I1
I0
ttRp4041
ag1
(g365
g35
(I1
I0
ttRp4042
ag1
(g365
g35
(I1
I0
ttRp4043
ag1
(g365
g35
(I1
I0
ttRp4044
ag1
(g365
g35
(I1
I0
ttRp4045
ag1
(g365
g35
(I1
I0
ttRp4046
ag1
(g365
g35
(I1
I0
ttRp4047
ag1
(g365
g35
(I1
I0
ttRp4048
ag1
(g365
g35
(I1
I0
ttRp4049
ag1
(g365
g35
(I1
I0
ttRp4050
ag1
(g365
g35
(I1
I0
ttRp4051
ag1
(g365
g35
(I1
I0
ttRp4052
ag1
(g365
g35
(I1
I0
ttRp4053
ag1
(g365
g35
(I1
I0
ttRp4054
ag1
(g365
g35
(I1
I0
ttRp4055
ag1
(g365
g35
(I1
I0
ttRp4056
ag1
(g365
g35
(I1
I0
ttRp4057
ag1
(g365
g35
(I1
I0
ttRp4058
ag1
(g365
g35
(I1
I0
ttRp4059
ag1
(g365
g35
(I1
I0
ttRp4060
ag1
(g365
g35
(I1
I0
ttRp4061
ag1
(g365
g35
(I1
I0
ttRp4062
ag1
(g365
g35
(I1
I0
ttRp4063
ag1
(g365
g35
(I1
I0
ttRp4064
ag1
(g365
g35
(I1
I0
ttRp4065
ag1
(g365
g35
(I1
I0
ttRp4066
ag1
(g365
g35
(I1
I0
ttRp4067
ag1
(g365
g35
(I1
I0
ttRp4068
ag1
(g365
g35
(I1
I0
ttRp4069
aa(lp4070
g1
(g365
g35
(I1
I0
ttRp4071
ag1
(g365
g35
(I1
I0
ttRp4072
ag1
(g365
g35
(I1
I0
ttRp4073
ag1
(g365
g35
(I1
I0
ttRp4074
ag1
(g365
g35
(I1
I0
ttRp4075
ag1
(g365
g35
(I1
I0
ttRp4076
ag1
(g365
g35
(I1
I0
ttRp4077
ag1
(g365
g35
(I1
I0
ttRp4078
ag1
(g365
g35
(I1
I0
ttRp4079
ag1
(g365
g35
(I1
I0
ttRp4080
ag1
(g365
g35
(I1
I0
ttRp4081
ag1
(g365
g35
(I1
I0
ttRp4082
ag1
(g365
g35
(I1
I0
ttRp4083
ag1
(g365
g35
(I1
I0
ttRp4084
ag1
(g365
g35
(I1
I0
ttRp4085
ag1
(g365
g35
(I1
I0
ttRp4086
ag1
(g365
g35
(I1
I0
ttRp4087
ag1
(g365
g35
(I1
I0
ttRp4088
ag1
(g365
g35
(I1
I0
ttRp4089
ag1
(g365
g35
(I1
I0
ttRp4090
ag1
(g365
g35
(I1
I0
ttRp4091
ag1
(g365
g35
(I1
I0
ttRp4092
ag1
(g365
g35
(I1
I0
ttRp4093
ag1
(g365
g35
(I1
I0
ttRp4094
ag1
(g365
g35
(I1
I0
ttRp4095
ag1
(g365
g35
(I1
I0
ttRp4096
ag1
(g365
g35
(I1
I0
ttRp4097
ag1
(g365
g35
(I1
I0
ttRp4098
ag1
(g365
g35
(I1
I0
ttRp4099
ag1
(g365
g35
(I1
I0
ttRp4100
ag1
(g365
g35
(I1
I0
ttRp4101
ag1
(g365
g35
(I1
I0
ttRp4102
ag1
(g365
g35
(I1
I0
ttRp4103
ag1
(g365
g35
(I1
I0
ttRp4104
ag1
(g365
g35
(I1
I0
ttRp4105
ag1
(g365
g35
(I1
I0
ttRp4106
ag1
(g365
g35
(I1
I0
ttRp4107
ag1
(g365
g35
(I1
I0
ttRp4108
ag1
(g365
g35
(I1
I0
ttRp4109
ag1
(g365
g35
(I1
I0
ttRp4110
ag1
(g365
g35
(I1
I0
ttRp4111
ag1
(g365
g35
(I1
I0
ttRp4112
ag1
(g365
g35
(I1
I0
ttRp4113
ag1
(g365
g35
(I1
I0
ttRp4114
ag1
(g365
g35
(I1
I0
ttRp4115
ag1
(g365
g35
(I1
I0
ttRp4116
ag1
(g365
g35
(I1
I0
ttRp4117
ag1
(g365
g35
(I1
I0
ttRp4118
ag1
(g365
g35
(I1
I0
ttRp4119
ag1
(g365
g35
(I1
I0
ttRp4120
ag1
(g365
g35
(I1
I0
ttRp4121
ag1
(g365
g35
(I1
I0
ttRp4122
ag1
(g365
g35
(I1
I0
ttRp4123
ag1
(g365
g35
(I1
I0
ttRp4124
ag1
(g365
g35
(I1
I0
ttRp4125
ag1
(g365
g35
(I1
I0
ttRp4126
ag1
(g365
g35
(I1
I0
ttRp4127
ag1
(g365
g35
(I1
I0
ttRp4128
ag1
(g365
g35
(I1
I0
ttRp4129
ag1
(g365
g35
(I1
I0
ttRp4130
ag1
(g365
g35
(I1
I0
ttRp4131
ag1
(g365
g35
(I1
I0
ttRp4132
ag1
(g365
g35
(I1
I0
ttRp4133
ag1
(g365
g35
(I1
I0
ttRp4134
aa(lp4135
g1
(g365
g35
(I1
I0
ttRp4136
ag1
(g365
g35
(I1
I0
ttRp4137
ag1
(g365
g35
(I1
I0
ttRp4138
ag1
(g365
g35
(I1
I0
ttRp4139
ag1
(g365
g35
(I1
I0
ttRp4140
ag1
(g365
g35
(I1
I0
ttRp4141
ag1
(g365
g35
(I1
I0
ttRp4142
ag1
(g365
g35
(I1
I0
ttRp4143
ag1
(g365
g35
(I1
I0
ttRp4144
ag1
(g365
g35
(I1
I0
ttRp4145
ag1
(g365
g35
(I1
I0
ttRp4146
ag1
(g365
g35
(I1
I0
ttRp4147
ag1
(g365
g35
(I1
I0
ttRp4148
ag1
(g365
g35
(I1
I0
ttRp4149
ag1
(g365
g35
(I1
I0
ttRp4150
ag1
(g365
g35
(I1
I0
ttRp4151
ag1
(g365
g35
(I1
I0
ttRp4152
ag1
(g365
g35
(I1
I0
ttRp4153
ag1
(g365
g35
(I1
I0
ttRp4154
ag1
(g365
g35
(I1
I0
ttRp4155
ag1
(g365
g35
(I1
I0
ttRp4156
ag1
(g365
g35
(I1
I0
ttRp4157
ag1
(g365
g35
(I1
I0
ttRp4158
ag1
(g365
g35
(I1
I0
ttRp4159
ag1
(g365
g35
(I1
I0
ttRp4160
ag1
(g365
g35
(I1
I0
ttRp4161
ag1
(g365
g35
(I1
I0
ttRp4162
ag1
(g365
g35
(I1
I0
ttRp4163
ag1
(g365
g35
(I1
I0
ttRp4164
ag1
(g365
g35
(I1
I0
ttRp4165
ag1
(g365
g35
(I1
I0
ttRp4166
ag1
(g365
g35
(I1
I0
ttRp4167
ag1
(g365
g35
(I1
I0
ttRp4168
ag1
(g365
g35
(I1
I0
ttRp4169
ag1
(g365
g35
(I1
I0
ttRp4170
ag1
(g365
g35
(I1
I0
ttRp4171
ag1
(g365
g35
(I1
I0
ttRp4172
ag1
(g365
g35
(I1
I0
ttRp4173
ag1
(g365
g35
(I1
I0
ttRp4174
ag1
(g365
g35
(I1
I0
ttRp4175
ag1
(g365
g35
(I1
I0
ttRp4176
ag1
(g365
g35
(I1
I0
ttRp4177
ag1
(g365
g35
(I1
I0
ttRp4178
ag1
(g365
g35
(I1
I0
ttRp4179
ag1
(g365
g35
(I1
I0
ttRp4180
ag1
(g365
g35
(I1
I0
ttRp4181
ag1
(g365
g35
(I1
I0
ttRp4182
ag1
(g365
g35
(I1
I0
ttRp4183
ag1
(g365
g35
(I1
I0
ttRp4184
ag1
(g365
g35
(I1
I0
ttRp4185
ag1
(g365
g35
(I1
I0
ttRp4186
ag1
(g365
g35
(I1
I0
ttRp4187
ag1
(g365
g35
(I1
I0
ttRp4188
ag1
(g365
g35
(I1
I0
ttRp4189
ag1
(g365
g35
(I1
I0
ttRp4190
ag1
(g365
g35
(I1
I0
ttRp4191
ag1
(g365
g35
(I1
I0
ttRp4192
ag1
(g365
g35
(I1
I0
ttRp4193
ag1
(g365
g35
(I1
I0
ttRp4194
ag1
(g365
g35
(I1
I0
ttRp4195
ag1
(g365
g35
(I1
I0
ttRp4196
ag1
(g365
g35
(I1
I0
ttRp4197
ag1
(g365
g35
(I1
I0
ttRp4198
ag1
(g365
g35
(I1
I0
ttRp4199
aa(lp4200
g1
(g365
g35
(I1
I0
ttRp4201
ag1
(g365
g35
(I1
I0
ttRp4202
ag1
(g365
g35
(I1
I0
ttRp4203
ag1
(g365
g35
(I1
I0
ttRp4204
ag1
(g365
g35
(I1
I0
ttRp4205
ag1
(g365
g35
(I1
I0
ttRp4206
ag1
(g365
g35
(I1
I0
ttRp4207
ag1
(g365
g35
(I1
I0
ttRp4208
ag1
(g365
g35
(I1
I0
ttRp4209
ag1
(g365
g35
(I1
I0
ttRp4210
ag1
(g365
g35
(I1
I0
ttRp4211
ag1
(g365
g35
(I1
I0
ttRp4212
ag1
(g365
g35
(I1
I0
ttRp4213
ag1
(g365
g35
(I1
I0
ttRp4214
ag1
(g365
g35
(I1
I0
ttRp4215
ag1
(g365
g35
(I1
I0
ttRp4216
ag1
(g365
g35
(I1
I0
ttRp4217
ag1
(g365
g35
(I1
I0
ttRp4218
ag1
(g365
g35
(I1
I0
ttRp4219
ag1
(g365
g35
(I1
I0
ttRp4220
ag1
(g365
g35
(I1
I0
ttRp4221
ag1
(g365
g35
(I1
I0
ttRp4222
ag1
(g365
g35
(I1
I0
ttRp4223
ag1
(g365
g35
(I1
I0
ttRp4224
ag1
(g365
g35
(I1
I0
ttRp4225
ag1
(g365
g35
(I1
I0
ttRp4226
ag1
(g365
g35
(I1
I0
ttRp4227
ag1
(g365
g35
(I1
I0
ttRp4228
ag1
(g365
g35
(I1
I0
ttRp4229
ag1
(g365
g35
(I1
I0
ttRp4230
ag1
(g365
g35
(I1
I0
ttRp4231
ag1
(g365
g35
(I1
I0
ttRp4232
ag1
(g365
g35
(I1
I0
ttRp4233
ag1
(g365
g35
(I1
I0
ttRp4234
ag1
(g365
g35
(I1
I0
ttRp4235
ag1
(g365
g35
(I1
I0
ttRp4236
ag1
(g365
g35
(I1
I0
ttRp4237
ag1
(g365
g35
(I1
I0
ttRp4238
ag1
(g365
g35
(I1
I0
ttRp4239
ag1
(g365
g35
(I1
I0
ttRp4240
ag1
(g365
g35
(I1
I0
ttRp4241
ag1
(g365
g35
(I1
I0
ttRp4242
ag1
(g365
g35
(I1
I0
ttRp4243
ag1
(g365
g35
(I1
I0
ttRp4244
ag1
(g365
g35
(I1
I0
ttRp4245
ag1
(g365
g35
(I1
I0
ttRp4246
ag1
(g365
g35
(I1
I0
ttRp4247
ag1
(g365
g35
(I1
I0
ttRp4248
ag1
(g365
g35
(I1
I0
ttRp4249
ag1
(g365
g35
(I1
I0
ttRp4250
ag1
(g365
g35
(I1
I0
ttRp4251
ag1
(g365
g35
(I1
I0
ttRp4252
ag1
(g365
g35
(I1
I0
ttRp4253
ag1
(g365
g35
(I1
I0
ttRp4254
ag1
(g365
g35
(I1
I0
ttRp4255
ag1
(g365
g35
(I1
I0
ttRp4256
ag1
(g365
g35
(I1
I0
ttRp4257
ag1
(g365
g35
(I1
I0
ttRp4258
ag1
(g365
g35
(I1
I0
ttRp4259
ag1
(g365
g35
(I1
I0
ttRp4260
ag1
(g365
g35
(I1
I0
ttRp4261
ag1
(g365
g35
(I1
I0
ttRp4262
ag1
(g365
g35
(I1
I0
ttRp4263
ag1
(g365
g35
(I1
I0
ttRp4264
aa(lp4265
g1
(g365
g35
(I1
I0
ttRp4266
ag1
(g365
g35
(I1
I0
ttRp4267
ag1
(g365
g35
(I1
I0
ttRp4268
ag1
(g365
g35
(I1
I0
ttRp4269
ag1
(g365
g35
(I1
I0
ttRp4270
ag1
(g365
g35
(I1
I0
ttRp4271
ag1
(g365
g35
(I1
I0
ttRp4272
ag1
(g365
g35
(I1
I0
ttRp4273
ag1
(g365
g35
(I1
I0
ttRp4274
ag1
(g365
g35
(I1
I0
ttRp4275
ag1
(g365
g35
(I1
I0
ttRp4276
ag1
(g365
g35
(I1
I0
ttRp4277
ag1
(g365
g35
(I1
I0
ttRp4278
ag1
(g365
g35
(I1
I0
ttRp4279
ag1
(g365
g35
(I1
I0
ttRp4280
ag1
(g365
g35
(I1
I0
ttRp4281
ag1
(g365
g35
(I1
I0
ttRp4282
ag1
(g365
g35
(I1
I0
ttRp4283
ag1
(g365
g35
(I1
I0
ttRp4284
ag1
(g365
g35
(I1
I0
ttRp4285
ag1
(g365
g35
(I1
I0
ttRp4286
ag1
(g365
g35
(I1
I0
ttRp4287
ag1
(g365
g35
(I1
I0
ttRp4288
ag1
(g365
g35
(I1
I0
ttRp4289
ag1
(g365
g35
(I1
I0
ttRp4290
ag1
(g365
g35
(I1
I0
ttRp4291
ag1
(g365
g35
(I1
I0
ttRp4292
ag1
(g365
g35
(I1
I0
ttRp4293
ag1
(g365
g35
(I1
I0
ttRp4294
ag1
(g365
g35
(I1
I0
ttRp4295
ag1
(g365
g35
(I1
I0
ttRp4296
ag1
(g365
g35
(I1
I0
ttRp4297
ag1
(g365
g35
(I1
I0
ttRp4298
ag1
(g365
g35
(I1
I0
ttRp4299
ag1
(g365
g35
(I1
I0
ttRp4300
ag1
(g365
g35
(I1
I0
ttRp4301
ag1
(g365
g35
(I1
I0
ttRp4302
ag1
(g365
g35
(I1
I0
ttRp4303
ag1
(g365
g35
(I1
I0
ttRp4304
ag1
(g365
g35
(I1
I0
ttRp4305
ag1
(g365
g35
(I1
I0
ttRp4306
ag1
(g365
g35
(I1
I0
ttRp4307
ag1
(g365
g35
(I1
I0
ttRp4308
ag1
(g365
g35
(I1
I0
ttRp4309
ag1
(g365
g35
(I1
I0
ttRp4310
ag1
(g365
g35
(I1
I0
ttRp4311
ag1
(g365
g35
(I1
I0
ttRp4312
ag1
(g365
g35
(I1
I0
ttRp4313
ag1
(g365
g35
(I1
I0
ttRp4314
ag1
(g365
g35
(I1
I0
ttRp4315
ag1
(g365
g35
(I1
I0
ttRp4316
ag1
(g365
g35
(I1
I0
ttRp4317
ag1
(g365
g35
(I1
I0
ttRp4318
ag1
(g365
g35
(I1
I0
ttRp4319
ag1
(g365
g35
(I1
I0
ttRp4320
ag1
(g365
g35
(I1
I0
ttRp4321
ag1
(g365
g35
(I1
I0
ttRp4322
ag1
(g365
g35
(I1
I0
ttRp4323
ag1
(g365
g35
(I1
I0
ttRp4324
ag1
(g365
g35
(I1
I0
ttRp4325
ag1
(g365
g35
(I1
I0
ttRp4326
ag1
(g365
g35
(I1
I0
ttRp4327
ag1
(g365
g35
(I1
I0
ttRp4328
ag1
(g365
g35
(I1
I0
ttRp4329
aa(lp4330
g1
(g365
g35
(I1
I0
ttRp4331
ag1
(g365
g35
(I1
I0
ttRp4332
ag1
(g365
g35
(I1
I0
ttRp4333
ag1
(g365
g35
(I1
I0
ttRp4334
ag1
(g365
g35
(I1
I0
ttRp4335
ag1
(g365
g35
(I1
I0
ttRp4336
ag1
(g365
g35
(I1
I0
ttRp4337
ag1
(g365
g35
(I1
I0
ttRp4338
ag1
(g365
g35
(I1
I0
ttRp4339
ag1
(g365
g35
(I1
I0
ttRp4340
ag1
(g365
g35
(I1
I0
ttRp4341
ag1
(g365
g35
(I1
I0
ttRp4342
ag1
(g365
g35
(I1
I0
ttRp4343
ag1
(g365
g35
(I1
I0
ttRp4344
ag1
(g365
g35
(I1
I0
ttRp4345
ag1
(g365
g35
(I1
I0
ttRp4346
ag1
(g365
g35
(I1
I0
ttRp4347
ag1
(g365
g35
(I1
I0
ttRp4348
ag1
(g365
g35
(I1
I0
ttRp4349
ag1
(g365
g35
(I1
I0
ttRp4350
ag1
(g365
g35
(I1
I0
ttRp4351
ag1
(g365
g35
(I1
I0
ttRp4352
ag1
(g365
g35
(I1
I0
ttRp4353
ag1
(g365
g35
(I1
I0
ttRp4354
ag1
(g365
g35
(I1
I0
ttRp4355
ag1
(g365
g35
(I1
I0
ttRp4356
ag1
(g365
g35
(I1
I0
ttRp4357
ag1
(g365
g35
(I1
I0
ttRp4358
ag1
(g365
g35
(I1
I0
ttRp4359
ag1
(g365
g35
(I1
I0
ttRp4360
ag1
(g365
g35
(I1
I0
ttRp4361
ag1
(g365
g35
(I1
I0
ttRp4362
ag1
(g365
g35
(I1
I0
ttRp4363
ag1
(g365
g35
(I1
I0
ttRp4364
ag1
(g365
g35
(I1
I0
ttRp4365
ag1
(g365
g35
(I1
I0
ttRp4366
ag1
(g365
g35
(I1
I0
ttRp4367
ag1
(g365
g35
(I1
I0
ttRp4368
ag1
(g365
g35
(I1
I0
ttRp4369
ag1
(g365
g35
(I1
I0
ttRp4370
ag1
(g365
g35
(I1
I0
ttRp4371
ag1
(g365
g35
(I1
I0
ttRp4372
ag1
(g365
g35
(I1
I0
ttRp4373
ag1
(g365
g35
(I1
I0
ttRp4374
ag1
(g365
g35
(I1
I0
ttRp4375
ag1
(g365
g35
(I1
I0
ttRp4376
ag1
(g365
g35
(I1
I0
ttRp4377
ag1
(g365
g35
(I1
I0
ttRp4378
ag1
(g365
g35
(I1
I0
ttRp4379
ag1
(g365
g35
(I1
I0
ttRp4380
ag1
(g365
g35
(I1
I0
ttRp4381
ag1
(g365
g35
(I1
I0
ttRp4382
ag1
(g365
g35
(I1
I0
ttRp4383
ag1
(g365
g35
(I1
I0
ttRp4384
ag1
(g365
g35
(I1
I0
ttRp4385
ag1
(g365
g35
(I1
I0
ttRp4386
ag1
(g365
g35
(I1
I0
ttRp4387
ag1
(g365
g35
(I1
I0
ttRp4388
ag1
(g365
g35
(I1
I0
ttRp4389
ag1
(g365
g35
(I1
I0
ttRp4390
ag1
(g365
g35
(I1
I0
ttRp4391
ag1
(g365
g35
(I1
I0
ttRp4392
ag1
(g365
g35
(I1
I0
ttRp4393
ag1
(g365
g35
(I1
I0
ttRp4394
aa(lp4395
g1
(g365
g35
(I1
I0
ttRp4396
ag1
(g365
g35
(I1
I0
ttRp4397
ag1
(g365
g35
(I1
I0
ttRp4398
ag1
(g365
g35
(I1
I0
ttRp4399
ag1
(g365
g35
(I1
I0
ttRp4400
ag1
(g365
g35
(I1
I0
ttRp4401
ag1
(g365
g35
(I1
I0
ttRp4402
ag1
(g365
g35
(I1
I0
ttRp4403
ag1
(g365
g35
(I1
I0
ttRp4404
ag1
(g365
g35
(I1
I0
ttRp4405
ag1
(g365
g35
(I1
I0
ttRp4406
ag1
(g365
g35
(I1
I0
ttRp4407
ag1
(g365
g35
(I1
I0
ttRp4408
ag1
(g365
g35
(I1
I0
ttRp4409
ag1
(g365
g35
(I1
I0
ttRp4410
ag1
(g365
g35
(I1
I0
ttRp4411
ag1
(g365
g35
(I1
I0
ttRp4412
ag1
(g365
g35
(I1
I0
ttRp4413
ag1
(g365
g35
(I1
I0
ttRp4414
ag1
(g365
g35
(I1
I0
ttRp4415
ag1
(g365
g35
(I1
I0
ttRp4416
ag1
(g365
g35
(I1
I0
ttRp4417
ag1
(g365
g35
(I1
I0
ttRp4418
ag1
(g365
g35
(I1
I0
ttRp4419
ag1
(g365
g35
(I1
I0
ttRp4420
ag1
(g365
g35
(I1
I0
ttRp4421
ag1
(g365
g35
(I1
I0
ttRp4422
ag1
(g365
g35
(I1
I0
ttRp4423
ag1
(g365
g35
(I1
I0
ttRp4424
ag1
(g365
g35
(I1
I0
ttRp4425
ag1
(g365
g35
(I1
I0
ttRp4426
ag1
(g365
g35
(I1
I0
ttRp4427
ag1
(g365
g35
(I1
I0
ttRp4428
ag1
(g365
g35
(I1
I0
ttRp4429
ag1
(g365
g35
(I1
I0
ttRp4430
ag1
(g365
g35
(I1
I0
ttRp4431
ag1
(g365
g35
(I1
I0
ttRp4432
ag1
(g365
g35
(I1
I0
ttRp4433
ag1
(g365
g35
(I1
I0
ttRp4434
ag1
(g365
g35
(I1
I0
ttRp4435
ag1
(g365
g35
(I1
I0
ttRp4436
ag1
(g365
g35
(I1
I0
ttRp4437
ag1
(g365
g35
(I1
I0
ttRp4438
ag1
(g365
g35
(I1
I0
ttRp4439
ag1
(g365
g35
(I1
I0
ttRp4440
ag1
(g365
g35
(I1
I0
ttRp4441
ag1
(g365
g35
(I1
I0
ttRp4442
ag1
(g365
g35
(I1
I0
ttRp4443
ag1
(g365
g35
(I1
I0
ttRp4444
ag1
(g365
g35
(I1
I0
ttRp4445
ag1
(g365
g35
(I1
I0
ttRp4446
ag1
(g365
g35
(I1
I0
ttRp4447
ag1
(g365
g35
(I1
I0
ttRp4448
ag1
(g365
g35
(I1
I0
ttRp4449
ag1
(g365
g35
(I1
I0
ttRp4450
ag1
(g365
g35
(I1
I0
ttRp4451
ag1
(g365
g35
(I1
I0
ttRp4452
ag1
(g365
g35
(I1
I0
ttRp4453
ag1
(g365
g35
(I1
I0
ttRp4454
ag1
(g365
g35
(I1
I0
ttRp4455
ag1
(g365
g35
(I1
I0
ttRp4456
ag1
(g365
g35
(I1
I0
ttRp4457
ag1
(g365
g35
(I1
I0
ttRp4458
ag1
(g365
g35
(I1
I0
ttRp4459
aa(lp4460
g1
(g365
g35
(I1
I0
ttRp4461
ag1
(g365
g35
(I1
I0
ttRp4462
ag1
(g365
g35
(I1
I0
ttRp4463
ag1
(g365
g35
(I1
I0
ttRp4464
ag1
(g365
g35
(I1
I0
ttRp4465
ag1
(g365
g35
(I1
I0
ttRp4466
ag1
(g365
g35
(I1
I0
ttRp4467
ag1
(g365
g35
(I1
I0
ttRp4468
ag1
(g365
g35
(I1
I0
ttRp4469
ag1
(g365
g35
(I1
I0
ttRp4470
ag1
(g365
g35
(I1
I0
ttRp4471
ag1
(g365
g35
(I1
I0
ttRp4472
ag1
(g365
g35
(I1
I0
ttRp4473
ag1
(g365
g35
(I1
I0
ttRp4474
ag1
(g365
g35
(I1
I0
ttRp4475
ag1
(g365
g35
(I1
I0
ttRp4476
ag1
(g365
g35
(I1
I0
ttRp4477
ag1
(g365
g35
(I1
I0
ttRp4478
ag1
(g365
g35
(I1
I0
ttRp4479
ag1
(g365
g35
(I1
I0
ttRp4480
ag1
(g365
g35
(I1
I0
ttRp4481
ag1
(g365
g35
(I1
I0
ttRp4482
ag1
(g365
g35
(I1
I0
ttRp4483
ag1
(g365
g35
(I1
I0
ttRp4484
ag1
(g365
g35
(I1
I0
ttRp4485
ag1
(g365
g35
(I1
I0
ttRp4486
ag1
(g365
g35
(I1
I0
ttRp4487
ag1
(g365
g35
(I1
I0
ttRp4488
ag1
(g365
g35
(I1
I0
ttRp4489
ag1
(g365
g35
(I1
I0
ttRp4490
ag1
(g365
g35
(I1
I0
ttRp4491
ag1
(g365
g35
(I1
I0
ttRp4492
ag1
(g365
g35
(I1
I0
ttRp4493
ag1
(g365
g35
(I1
I0
ttRp4494
ag1
(g365
g35
(I1
I0
ttRp4495
ag1
(g365
g35
(I1
I0
ttRp4496
ag1
(g365
g35
(I1
I0
ttRp4497
ag1
(g365
g35
(I1
I0
ttRp4498
ag1
(g365
g35
(I1
I0
ttRp4499
ag1
(g365
g35
(I1
I0
ttRp4500
ag1
(g365
g35
(I1
I0
ttRp4501
ag1
(g365
g35
(I1
I0
ttRp4502
ag1
(g365
g35
(I1
I0
ttRp4503
ag1
(g365
g35
(I1
I0
ttRp4504
ag1
(g365
g35
(I1
I0
ttRp4505
ag1
(g365
g35
(I1
I0
ttRp4506
ag1
(g365
g35
(I1
I0
ttRp4507
ag1
(g365
g35
(I1
I0
ttRp4508
ag1
(g365
g35
(I1
I0
ttRp4509
ag1
(g365
g35
(I1
I0
ttRp4510
ag1
(g365
g35
(I1
I0
ttRp4511
ag1
(g365
g35
(I1
I0
ttRp4512
ag1
(g365
g35
(I1
I0
ttRp4513
ag1
(g365
g35
(I1
I0
ttRp4514
ag1
(g365
g35
(I1
I0
ttRp4515
ag1
(g365
g35
(I1
I0
ttRp4516
ag1
(g365
g35
(I1
I0
ttRp4517
ag1
(g365
g35
(I1
I0
ttRp4518
ag1
(g365
g35
(I1
I0
ttRp4519
ag1
(g365
g35
(I1
I0
ttRp4520
ag1
(g365
g35
(I1
I0
ttRp4521
ag1
(g365
g35
(I1
I0
ttRp4522
ag1
(g365
g35
(I1
I0
ttRp4523
ag1
(g365
g35
(I1
I0
ttRp4524
aatRp4525
(dp4526
S'_free_start_positions'
p4527
(lp4528
(I53
I53
tp4529
a(I53
I10
tp4530
asS'size'
p4531
(I64
I64
tp4532
sbsS'players_by_IDs'
p4533
(dp4534
I8
g217
sI1
g19
ssg12
(lp4535
sS'configuration'
p4536
g1
(cscriptcraft.core.GameConfiguration
GameConfiguration
p4537
g35
((dp4538
S'b'
g211
sg133
g134
sg65
g66
sS'm'
g66
sg210
g211
sS'5'
g66
sS'4'
g211
sS'6'
g134
sS't'
g134
sg211
g66
I10
F0.10000000000000001
(dp4539
g38
g42
sS'c++'
p4540
g1
(g36
g35
(S'cpp'
p4541
g4540
S'.cpp'
p4542
S'.exe'
p4543
S'g++ src.cpp -o bin.exe'
p4544
S'./bin.exe'
p4545
ttRp4546
sttRp4547
sg68
(lp4548
sb.