S'3.2'
p1
.S'LALR'
p1
.S'\xd2\xa0\x00\xfd\xa2\xc5\xa1\xb6}\t7\xb8,\x19\x14Z'
p1
.(dp1
I0
(dp2
S'SUBENTO_ID'
p3
I1
sS'KEYWORDS_ID'
p4
I2
sS'CONFIG_PY_ID'
p5
I3
sS'MAINTAINER_ID'
p6
I33
sS'PLATFORMS_ID'
p7
I7
sS'META_TEMPLATE_FILE_ID'
p8
I21
sS'FLAG_ID'
p9
I14
sS'SUMMARY_ID'
p10
I17
sS'URL_ID'
p11
I16
sS'LIBRARY_ID'
p12
I34
sS'DESCRIPTION_FROM_FILE_ID'
p13
I22
sS'NEWLINE'
p14
I23
sS'PATH_ID'
p15
I24
sS'AUTHOR_ID'
p16
I28
sS'EXECUTABLE_ID'
p17
I29
sS'HOOK_FILE_ID'
p18
I32
sS'$end'
p19
I-13
sS'DATAFILES_ID'
p20
I26
sS'DOWNLOAD_URL_ID'
p21
I40
sS'LICENSE_ID'
p22
I37
sS'MAINTAINER_EMAIL_ID'
p23
I47
sS'AUTHOR_EMAIL_ID'
p24
I63
sS'AND'
p25
I31
sS'EXTRA_SOURCE_FILES_ID'
p26
I52
sS'DESCRIPTION_ID'
p27
I59
sS'VERSION_ID'
p28
I11
sS'CLASSIFIERS_ID'
p29
I58
sS'NAME_ID'
p30
I61
ssI1
(dp31
S'COLON'
p32
I64
ssI2
(dp33
S'COLON'
p34
I65
ssI3
(dp35
S'COLON'
p36
I66
ssI4
(dp37
g3
I-25
sg4
I-25
sg5
I-25
sg6
I-25
sg7
I-25
sg8
I-25
sg9
I-25
sg10
I-25
sg11
I-25
sg12
I-25
sg13
I-25
sg15
I-25
sg16
I-25
sg17
I-25
sg18
I-25
sg19
I-25
sg20
I-25
sg21
I-25
sg22
I-25
sg23
I-25
sg24
I-25
sg25
I-25
sg26
I-25
sg27
I-25
sg28
I-25
sg29
I-25
sg30
I-25
ssI5
(dp38
g3
I-24
sg4
I-24
sg5
I-24
sg6
I-24
sg7
I-24
sg8
I-24
sg9
I-24
sg10
I-24
sg11
I-24
sg12
I-24
sg13
I-24
sg15
I-24
sg16
I-24
sg17
I-24
sg18
I-24
sg19
I-24
sg20
I-24
sg21
I-24
sg22
I-24
sg23
I-24
sg24
I-24
sg25
I-24
sg26
I-24
sg27
I-24
sg28
I-24
sg29
I-24
sg30
I-24
ssI6
(dp39
g3
I-75
sg4
I-75
sg5
I-75
sg6
I-75
sg7
I-75
sg8
I-75
sg9
I-75
sg10
I-75
sg11
I-75
sg12
I-75
sg13
I-75
sg15
I-75
sg16
I-75
sg17
I-75
sg18
I-75
sg19
I-75
sg20
I-75
sg21
I-75
sg22
I-75
sg23
I-75
sg24
I-75
sg25
I-75
sg26
I-75
sS'INDENT'
p40
I67
sg27
I-75
sg28
I-75
sg29
I-75
sg30
I-75
ssI7
(dp41
S'COLON'
p42
I68
ssI8
(dp43
S'INDENT'
p44
I69
ssI9
(dp45
g3
I-6
sg4
I-6
sg5
I-6
sg6
I-6
sg7
I-6
sg8
I-6
sg9
I-6
sg10
I-6
sg11
I-6
sg12
I-6
sg13
I-6
sg15
I-6
sg16
I-6
sg17
I-6
sg18
I-6
sg19
I-6
sg20
I-6
sg21
I-6
sg22
I-6
sg23
I-6
sg24
I-6
sg25
I-6
sg26
I-6
sg27
I-6
sg28
I-6
sg29
I-6
sg30
I-6
ssI10
(dp46
g3
I-22
sg4
I-22
sg5
I-22
sg6
I-22
sg7
I-22
sg8
I-22
sg9
I-22
sg10
I-22
sg11
I-22
sg12
I-22
sg13
I-22
sg15
I-22
sg16
I-22
sg17
I-22
sg18
I-22
sg19
I-22
sg20
I-22
sg21
I-22
sg22
I-22
sg23
I-22
sg24
I-22
sg25
I-22
sg26
I-22
sg27
I-22
sg28
I-22
sg29
I-22
sg30
I-22
ssI11
(dp47
S'COLON'
p48
I70
ssI12
(dp49
g3
I-19
sg4
I-19
sg5
I-19
sg6
I-19
sg7
I-19
sg8
I-19
sg9
I-19
sg10
I-19
sg11
I-19
sg12
I-19
sg13
I-19
sg15
I-19
sg16
I-19
sg17
I-19
sg18
I-19
sg19
I-19
sg20
I-19
sg21
I-19
sg22
I-19
sg23
I-19
sg24
I-19
sg25
I-19
sg26
I-19
sg27
I-19
sg28
I-19
sg29
I-19
sg30
I-19
ssI13
(dp50
g3
I-28
sg4
I-28
sg5
I-28
sg6
I-28
sg7
I-28
sg8
I-28
sg9
I-28
sg10
I-28
sg11
I-28
sg12
I-28
sg13
I-28
sg15
I-28
sg16
I-28
sg17
I-28
sg18
I-28
sg19
I-28
sg20
I-28
sg21
I-28
sg22
I-28
sg23
I-28
sg24
I-28
sg25
I-28
sg26
I-28
sg27
I-28
sg28
I-28
sg29
I-28
sg30
I-28
ssI14
(dp51
S'COLON'
p52
I71
ssI15
(dp53
g3
I-11
sg4
I-11
sg5
I-11
sg6
I-11
sg7
I-11
sg8
I-11
sg9
I-11
sg10
I-11
sg11
I-11
sg12
I-11
sg13
I-11
sg15
I-11
sg16
I-11
sg17
I-11
sg18
I-11
sg19
I-11
sg20
I-11
sg21
I-11
sg22
I-11
sg23
I-11
sg24
I-11
sg25
I-11
sg26
I-11
sg27
I-11
sg28
I-11
sg29
I-11
sg30
I-11
ssI16
(dp54
S'COLON'
p55
I72
ssI17
(dp56
S'COLON'
p57
I73
ssI18
(dp58
S'LPAR'
p59
I74
sS'WORD'
p60
I80
sS'GREATER'
p61
I89
sS'LESS'
p62
I75
sS'NEWLINE'
p63
I81
sS'EQUAL'
p64
I76
sS'RPAR'
p65
I77
sS'DOUBLE_COLON'
p66
I82
sS'COMMA'
p67
I91
sS'SLASH'
p68
I86
sS'SHARP'
p69
I84
sS'COLON'
p70
I83
sS'WS'
p71
I79
ssI19
(dp72
S'INDENT'
p73
I92
ssI20
(dp74
S'INDENT'
p75
I93
ssI21
(dp76
S'COLON'
p77
I94
ssI22
(dp78
S'COLON'
p79
I95
ssI23
(dp80
g3
I-4
sg4
I-4
sg5
I-4
sg6
I-4
sg7
I-4
sg8
I-4
sg9
I-4
sg10
I-4
sg11
I-4
sg12
I-4
sg13
I-4
sg15
I-4
sg16
I-4
sg17
I-4
sg18
I-4
sg19
I-4
sg20
I-4
sg21
I-4
sg22
I-4
sg23
I-4
sg24
I-4
sg25
I-4
sg26
I-4
sg27
I-4
sg28
I-4
sg29
I-4
sg30
I-4
ssI24
(dp81
S'COLON'
p82
I96
ssI25
(dp83
g3
I-32
sg4
I-32
sg5
I-32
sg6
I-32
sg7
I-32
sg8
I-32
sg9
I-32
sg10
I-32
sg11
I-32
sg12
I-32
sg13
I-32
sg15
I-32
sg16
I-32
sg17
I-32
sg18
I-32
sg19
I-32
sg20
I-32
sg21
I-32
sg22
I-32
sg23
I-32
sg24
I-32
sg25
I-32
sg26
I-32
sg27
I-32
sg28
I-32
sg29
I-32
sg30
I-32
ssI26
(dp84
S'COLON'
p85
I97
ssI27
(dp86
g3
I-23
sg4
I-23
sg5
I-23
sg6
I-23
sg7
I-23
sg8
I-23
sg9
I-23
sg10
I-23
sg11
I-23
sg12
I-23
sg13
I-23
sg15
I-23
sg16
I-23
sg17
I-23
sg18
I-23
sg19
I-23
sg20
I-23
sg21
I-23
sg22
I-23
sg23
I-23
sg24
I-23
sg25
I-23
sg26
I-23
sg27
I-23
sg28
I-23
sg29
I-23
sg30
I-23
ssI28
(dp87
S'COLON'
p88
I98
ssI29
(dp89
S'COLON'
p90
I99
ssI30
(dp91
g3
I-17
sg4
I-17
sg5
I-17
sg6
I-17
sg7
I-17
sg8
I-17
sg9
I-17
sg10
I-17
sg11
I-17
sg12
I-17
sg13
I-17
sg15
I-17
sg16
I-17
sg17
I-17
sg18
I-17
sg19
I-17
sg20
I-17
sg21
I-17
sg22
I-17
sg23
I-17
sg24
I-17
sg25
I-17
sg26
I-17
sg27
I-17
sg28
I-17
sg29
I-17
sg30
I-17
ssI31
(dp92
S'BACKSLASH'
p93
I100
ssI32
(dp94
S'COLON'
p95
I101
ssI33
(dp96
S'COLON'
p97
I102
ssI34
(dp98
S'COLON'
p99
I103
ssI35
(dp100
g3
I-7
sg4
I-7
sg5
I-7
sg6
I-7
sg7
I-7
sg8
I-7
sg9
I-7
sg10
I-7
sg11
I-7
sg12
I-7
sg13
I-7
sg15
I-7
sg16
I-7
sg17
I-7
sg18
I-7
sg19
I-7
sg20
I-7
sg21
I-7
sg22
I-7
sg23
I-7
sg24
I-7
sg25
I-7
sg26
I-7
sg27
I-7
sg28
I-7
sg29
I-7
sg30
I-7
ssI36
(dp101
g3
I-31
sg4
I-31
sg5
I-31
sg6
I-31
sg7
I-31
sg8
I-31
sg9
I-31
sg10
I-31
sg11
I-31
sg12
I-31
sg13
I-31
sg15
I-31
sg16
I-31
sg17
I-31
sg18
I-31
sg19
I-31
sg20
I-31
sg21
I-31
sg22
I-31
sg23
I-31
sg24
I-31
sg25
I-31
sg26
I-31
sg27
I-31
sg28
I-31
sg29
I-31
sg30
I-31
ssI37
(dp102
S'COLON'
p103
I104
ssI38
(dp104
g3
I-21
sg4
I-21
sg5
I-21
sg6
I-21
sg7
I-21
sg8
I-21
sg9
I-21
sg10
I-21
sg11
I-21
sg12
I-21
sg13
I-21
sg15
I-21
sg16
I-21
sg17
I-21
sg18
I-21
sg19
I-21
sg20
I-21
sg21
I-21
sg22
I-21
sg23
I-21
sg24
I-21
sg25
I-21
sg26
I-21
sg27
I-21
sg28
I-21
sg29
I-21
sg30
I-21
ssI39
(dp105
g3
I-2
sg4
I-2
sg5
I-2
sg6
I-2
sg7
I-2
sg8
I-2
sg9
I-2
sg10
I-2
sg11
I-2
sg12
I-2
sg13
I-2
sg15
I-2
sg16
I-2
sg17
I-2
sg18
I-2
sg19
I-2
sg20
I-2
sg21
I-2
sg22
I-2
sg23
I-2
sg24
I-2
sg25
I-2
sg26
I-2
sg27
I-2
sg28
I-2
sg29
I-2
sg30
I-2
ssI40
(dp106
S'COLON'
p107
I105
ssI41
(dp108
g3
I-26
sg4
I-26
sg5
I-26
sg6
I-26
sg7
I-26
sg8
I-26
sg9
I-26
sg10
I-26
sg11
I-26
sg12
I-26
sg13
I-26
sg15
I-26
sg16
I-26
sg17
I-26
sg18
I-26
sg19
I-26
sg20
I-26
sg21
I-26
sg22
I-26
sg23
I-26
sg24
I-26
sg25
I-26
sg26
I-26
sg27
I-26
sg28
I-26
sg29
I-26
sg30
I-26
ssI42
(dp109
g3
I-5
sg4
I-5
sg5
I-5
sg6
I-5
sg7
I-5
sg8
I-5
sg9
I-5
sg10
I-5
sg11
I-5
sg12
I-5
sg13
I-5
sg15
I-5
sg16
I-5
sg17
I-5
sg18
I-5
sg19
I-5
sg20
I-5
sg21
I-5
sg22
I-5
sg23
I-5
sg24
I-5
sg25
I-5
sg26
I-5
sg27
I-5
sg28
I-5
sg29
I-5
sg30
I-5
ssI43
(dp110
g3
I-9
sg4
I-9
sg5
I-9
sg6
I-9
sg7
I-9
sg8
I-9
sg9
I-9
sg10
I-9
sg11
I-9
sg12
I-9
sg13
I-9
sg15
I-9
sg16
I-9
sg17
I-9
sg18
I-9
sg19
I-9
sg20
I-9
sg21
I-9
sg22
I-9
sg23
I-9
sg24
I-9
sg25
I-9
sg26
I-9
sg27
I-9
sg28
I-9
sg29
I-9
sg30
I-9
ssI44
(dp111
g3
I-16
sg4
I-16
sg5
I-16
sg6
I-16
sg7
I-16
sg8
I-16
sg9
I-16
sg10
I-16
sg11
I-16
sg12
I-16
sg13
I-16
sg15
I-16
sg16
I-16
sg17
I-16
sg18
I-16
sg19
I-16
sg20
I-16
sg21
I-16
sg22
I-16
sg23
I-16
sg24
I-16
sg25
I-16
sg26
I-16
sg27
I-16
sg28
I-16
sg29
I-16
sg30
I-16
ssI45
(dp112
g3
I-29
sg4
I-29
sg5
I-29
sg6
I-29
sg7
I-29
sg8
I-29
sg9
I-29
sg10
I-29
sg11
I-29
sg12
I-29
sg13
I-29
sg15
I-29
sg16
I-29
sg17
I-29
sg18
I-29
sg19
I-29
sg20
I-29
sg21
I-29
sg22
I-29
sg23
I-29
sg24
I-29
sg25
I-29
sg26
I-29
sg27
I-29
sg28
I-29
sg29
I-29
sg30
I-29
ssI46
(dp113
g3
I-8
sg4
I-8
sg5
I-8
sg6
I-8
sg7
I-8
sg8
I-8
sg9
I-8
sg10
I-8
sg11
I-8
sg12
I-8
sg13
I-8
sg15
I-8
sg16
I-8
sg17
I-8
sg18
I-8
sg19
I-8
sg20
I-8
sg21
I-8
sg22
I-8
sg23
I-8
sg24
I-8
sg25
I-8
sg26
I-8
sg27
I-8
sg28
I-8
sg29
I-8
sg30
I-8
ssI47
(dp114
S'COLON'
p115
I106
ssI48
(dp116
g3
I-20
sg4
I-20
sg5
I-20
sg6
I-20
sg7
I-20
sg8
I-20
sg9
I-20
sg10
I-20
sg11
I-20
sg12
I-20
sg13
I-20
sg15
I-20
sg16
I-20
sg17
I-20
sg18
I-20
sg19
I-20
sg20
I-20
sg21
I-20
sg22
I-20
sg23
I-20
sg24
I-20
sg25
I-20
sg26
I-20
sg27
I-20
sg28
I-20
sg29
I-20
sg30
I-20
ssI49
(dp117
S'INDENT'
p118
I107
ssI50
(dp119
g3
I1
sg4
I2
sg5
I3
sg6
I33
sg7
I7
sg8
I21
sg9
I14
sg10
I17
sg11
I16
sg12
I34
sg13
I22
sg15
I24
sg16
I28
sg17
I29
sg18
I32
sS'$end'
p120
I0
sg20
I26
sg21
I40
sg22
I37
sg23
I47
sg24
I63
sg25
I31
sg26
I52
sg27
I59
sg28
I11
sg29
I58
sg30
I61
ssI51
(dp121
g3
I-12
sg4
I-12
sg5
I-12
sg6
I-12
sg7
I-12
sg8
I-12
sg9
I-12
sg10
I-12
sg11
I-12
sg12
I-12
sg13
I-12
sg15
I-12
sg16
I-12
sg17
I-12
sg18
I-12
sg19
I-12
sg20
I-12
sg21
I-12
sg22
I-12
sg23
I-12
sg24
I-12
sg25
I-12
sg26
I-12
sg27
I-12
sg28
I-12
sg29
I-12
sg30
I-12
ssI52
(dp122
S'COLON'
p123
I109
ssI53
(dp124
g3
I-27
sg4
I-27
sg5
I-27
sg6
I-27
sg7
I-27
sg8
I-27
sg9
I-27
sg10
I-27
sg11
I-27
sg12
I-27
sg13
I-27
sg15
I-27
sg16
I-27
sg17
I-27
sg18
I-27
sg19
I-27
sg20
I-27
sg21
I-27
sg22
I-27
sg23
I-27
sg24
I-27
sg25
I-27
sg26
I-27
sg27
I-27
sg28
I-27
sg29
I-27
sg30
I-27
ssI54
(dp125
g3
I-30
sg4
I-30
sg5
I-30
sg6
I-30
sg7
I-30
sg8
I-30
sg9
I-30
sg10
I-30
sg11
I-30
sg12
I-30
sg13
I-30
sg15
I-30
sg16
I-30
sg17
I-30
sg18
I-30
sg19
I-30
sg20
I-30
sg21
I-30
sg22
I-30
sg23
I-30
sg24
I-30
sg25
I-30
sg26
I-30
sg27
I-30
sg28
I-30
sg29
I-30
sg30
I-30
ssI55
(dp126
g3
I-18
sg4
I-18
sg5
I-18
sg6
I-18
sg7
I-18
sg8
I-18
sg9
I-18
sg10
I-18
sg11
I-18
sg12
I-18
sg13
I-18
sg15
I-18
sg16
I-18
sg17
I-18
sg18
I-18
sg19
I-18
sg20
I-18
sg21
I-18
sg22
I-18
sg23
I-18
sg24
I-18
sg25
I-18
sg26
I-18
sg27
I-18
sg28
I-18
sg29
I-18
sg30
I-18
ssI56
(dp127
g3
I-10
sg4
I-10
sg5
I-10
sg6
I-10
sg7
I-10
sg8
I-10
sg9
I-10
sg10
I-10
sg11
I-10
sg12
I-10
sg13
I-10
sg15
I-10
sg16
I-10
sg17
I-10
sg18
I-10
sg19
I-10
sg20
I-10
sg21
I-10
sg22
I-10
sg23
I-10
sg24
I-10
sg25
I-10
sg26
I-10
sg27
I-10
sg28
I-10
sg29
I-10
sg30
I-10
ssI57
(dp128
g3
I-14
sg4
I-14
sg5
I-14
sg6
I-14
sg7
I-14
sg8
I-14
sg9
I-14
sg10
I-14
sg11
I-14
sg12
I-14
sg13
I-14
sg15
I-14
sg16
I-14
sg17
I-14
sg18
I-14
sg19
I-14
sg20
I-14
sg21
I-14
sg22
I-14
sg23
I-14
sg24
I-14
sg25
I-14
sg26
I-14
sg27
I-14
sg28
I-14
sg29
I-14
sg30
I-14
ssI58
(dp129
S'COLON'
p130
I110
ssI59
(dp131
S'COLON'
p132
I111
ssI60
(dp133
g3
I-15
sg4
I-15
sg5
I-15
sg6
I-15
sg7
I-15
sg8
I-15
sg9
I-15
sg10
I-15
sg11
I-15
sg12
I-15
sg13
I-15
sg15
I-15
sg16
I-15
sg17
I-15
sg18
I-15
sg19
I-15
sg20
I-15
sg21
I-15
sg22
I-15
sg23
I-15
sg24
I-15
sg25
I-15
sg26
I-15
sg27
I-15
sg28
I-15
sg29
I-15
sg30
I-15
ssI61
(dp134
S'COLON'
p135
I112
ssI62
(dp136
g3
I-3
sg4
I-3
sg5
I-3
sg6
I-3
sg7
I-3
sg8
I-3
sg9
I-3
sg10
I-3
sg11
I-3
sg12
I-3
sg13
I-3
sg15
I-3
sg16
I-3
sg17
I-3
sg18
I-3
sg19
I-3
sg20
I-3
sg21
I-3
sg22
I-3
sg23
I-3
sg24
I-3
sg25
I-3
sg26
I-3
sg27
I-3
sg28
I-3
sg29
I-3
sg30
I-3
ssI63
(dp137
S'COLON'
p138
I113
ssI64
(dp139
g59
I74
sg60
I80
sg61
I89
sg62
I75
sg64
I76
sg65
I77
sg66
I82
sg70
I83
sg68
I86
sg69
I84
sS'INDENT'
p140
I116
ssI65
(dp141
g59
I74
sg60
I80
sg61
I89
sg62
I75
sg64
I76
sg65
I77
sg66
I82
sg70
I83
sg68
I86
sg69
I84
sg140
I116
ssI66
(dp142
S'WORD'
p143
I122
ssI67
(dp144
S'SUB_DIRECTORY_ID'
p145
I124
sS'COMPILED_LIBRARY_ID'
p146
I123
sS'INSTALL_REQUIRES_ID'
p147
I136
sS'EXTENSION_ID'
p148
I125
sS'MODULES_ID'
p149
I137
sS'BUILD_REQUIRES_ID'
p150
I142
sS'PACKAGES_ID'
p151
I133
sS'IF'
p152
I138
ssI68
(dp153
g59
I74
sg60
I80
sg61
I89
sg62
I75
sg64
I76
sg65
I77
sg66
I82
sg70
I83
sg68
I86
sg69
I84
sg140
I116
ssI69
(dp154
S'MODULE_ID'
p155
I148
sS'FUNCTION_ID'
p156
I149
ssI70
(dp157
S'WORD'
p158
I150
ssI71
(dp159
g59
I74
sg60
I80
sg61
I89
sg62
I75
sg64
I76
sg65
I77
sg66
I82
sg67
I91
sg68
I86
sg69
I84
sg70
I83
sS'WS'
p160
I155
ssI72
(dp161
g59
I74
sg60
I80
sg61
I89
sg62
I75
sg64
I76
sg65
I77
sg66
I82
sg67
I91
sg68
I86
sg69
I84
sg70
I83
sg160
I155
ssI73
(dp162
g59
I74
sg60
I80
sg61
I89
sg62
I75
sg64
I76
sg65
I77
sg66
I82
sg67
I91
sg68
I86
sg69
I84
sg70
I83
sS'WS'
p163
I157
ssI74
(dp164
S'DEDENT'
p165
I-176
sg59
I-176
sg3
I-176
sg4
I-176
sg5
I-176
sg62
I-176
sg148
I-176
sg145
I-176
sg6
I-176
sg7
I-176
sg64
I-176
sg65
I-176
sg70
I-176
sg160
I-176
sg8
I-176
sg155
I-176
sg9
I-176
sg10
I-176
sg11
I-176
sS'INCLUDE_DIRS_ID'
p166
I-176
sg12
I-176
sg156
I-176
sg60
I-176
sg13
I-176
sS'NEWLINE'
p167
I-176
sg15
I-176
sg66
I-176
sg67
I-176
sg69
I-176
sg16
I-176
sg17
I-176
sg18
I-176
sg19
I-176
sS'SRCDIR_ID'
p168
I-176
sg20
I-176
sS'TARGET_ID'
p169
I-176
sg21
I-176
sg147
I-176
sg68
I-176
sg149
I-176
sg22
I-176
sg23
I-176
sg24
I-176
sg152
I-176
sg25
I-176
sS'FILES_ID'
p170
I-176
sg26
I-176
sS'INDENT'
p171
I-176
sg61
I-176
sg27
I-176
sg146
I-176
sg28
I-176
sg29
I-176
sS'DEFAULT_ID'
p172
I-176
sg30
I-176
sg151
I-176
sg150
I-176
sS'SOURCES_ID'
p173
I-176
ssI75
(dp174
g165
I-178
sg59
I-178
sg3
I-178
sg4
I-178
sg5
I-178
sg62
I-178
sg148
I-178
sg145
I-178
sg6
I-178
sg7
I-178
sg64
I-178
sg65
I-178
sg70
I-178
sg160
I-178
sg8
I-178
sg155
I-178
sg9
I-178
sg10
I-178
sg11
I-178
sg166
I-178
sg12
I-178
sg156
I-178
sg60
I-178
sg13
I-178
sg167
I-178
sg15
I-178
sg66
I-178
sg67
I-178
sg69
I-178
sg16
I-178
sg17
I-178
sg18
I-178
sg19
I-178
sg168
I-178
sg20
I-178
sg169
I-178
sg21
I-178
sg147
I-178
sg68
I-178
sg149
I-178
sg22
I-178
sg23
I-178
sg24
I-178
sg152
I-178
sg25
I-178
sg170
I-178
sg26
I-178
sg171
I-178
sg61
I-178
sg27
I-178
sg146
I-178
sg28
I-178
sg29
I-178
sg172
I-178
sg30
I-178
sg151
I-178
sg150
I-178
sg173
I-178
ssI76
(dp175
g165
I-181
sg59
I-181
sg3
I-181
sg4
I-181
sg5
I-181
sg62
I-181
sg148
I-181
sg145
I-181
sg6
I-181
sg7
I-181
sg64
I-181
sg65
I-181
sg70
I-181
sg160
I-181
sg8
I-181
sg155
I-181
sg9
I-181
sg10
I-181
sg11
I-181
sg166
I-181
sg12
I-181
sg156
I-181
sg60
I-181
sg13
I-181
sg167
I-181
sg15
I-181
sg66
I-181
sg67
I-181
sg69
I-181
sg16
I-181
sg17
I-181
sg18
I-181
sg19
I-181
sg168
I-181
sg20
I-181
sg169
I-181
sg21
I-181
sg147
I-181
sg68
I-181
sg149
I-181
sg22
I-181
sg23
I-181
sg24
I-181
sg152
I-181
sg25
I-181
sg170
I-181
sg26
I-181
sg171
I-181
sg61
I-181
sg27
I-181
sg146
I-181
sg28
I-181
sg29
I-181
sg172
I-181
sg30
I-181
sg151
I-181
sg150
I-181
sg173
I-181
ssI77
(dp176
g165
I-177
sg59
I-177
sg3
I-177
sg4
I-177
sg5
I-177
sg62
I-177
sg148
I-177
sg145
I-177
sg6
I-177
sg7
I-177
sg64
I-177
sg65
I-177
sg70
I-177
sg160
I-177
sg8
I-177
sg155
I-177
sg9
I-177
sg10
I-177
sg11
I-177
sg166
I-177
sg12
I-177
sg156
I-177
sg60
I-177
sg13
I-177
sg167
I-177
sg15
I-177
sg66
I-177
sg67
I-177
sg69
I-177
sg16
I-177
sg17
I-177
sg18
I-177
sg19
I-177
sg168
I-177
sg20
I-177
sg169
I-177
sg21
I-177
sg147
I-177
sg68
I-177
sg149
I-177
sg22
I-177
sg23
I-177
sg24
I-177
sg152
I-177
sg25
I-177
sg170
I-177
sg26
I-177
sg171
I-177
sg61
I-177
sg27
I-177
sg146
I-177
sg28
I-177
sg29
I-177
sg172
I-177
sg30
I-177
sg151
I-177
sg150
I-177
sg173
I-177
ssI78
(dp177
S'DEDENT'
p178
I-183
sg59
I-183
sg3
I-183
sg4
I-183
sg5
I-183
sg62
I-183
sg6
I-183
sg7
I-183
sg64
I-183
sg65
I-183
sg70
I-183
sg160
I-183
sg8
I-183
sg155
I-183
sg9
I-183
sg10
I-183
sg11
I-183
sg12
I-183
sg156
I-183
sg60
I-183
sg13
I-183
sg167
I-183
sg15
I-183
sg66
I-183
sg67
I-183
sg69
I-183
sg16
I-183
sg17
I-183
sg18
I-183
sg19
I-183
sg168
I-183
sg20
I-183
sg169
I-183
sg21
I-183
sg68
I-183
sg22
I-183
sg23
I-183
sg24
I-183
sg152
I-183
sg25
I-183
sg170
I-183
sg26
I-183
sg44
I-183
sg61
I-183
sg27
I-183
sg28
I-183
sg29
I-183
sg172
I-183
sg30
I-183
ssI79
(dp179
g59
I74
sg60
I80
sg61
I89
sg62
I75
sS'NEWLINE'
p180
I159
sg64
I76
sg65
I77
sg66
I82
sg70
I83
sg68
I86
sg69
I84
sg67
I91
ssI80
(dp181
g165
I-173
sg59
I-173
sg3
I-173
sg4
I-173
sg5
I-173
sg62
I-173
sg148
I-173
sg145
I-173
sg6
I-173
sg7
I-173
sg64
I-173
sg65
I-173
sg70
I-173
sg160
I-173
sg8
I-173
sg155
I-173
sg9
I-173
sg10
I-173
sg11
I-173
sg166
I-173
sg12
I-173
sg156
I-173
sg60
I-173
sg13
I-173
sg167
I-173
sg15
I-173
sg66
I-173
sg67
I-173
sg69
I-173
sg16
I-173
sg17
I-173
sg18
I-173
sg19
I-173
sg168
I-173
sg20
I-173
sg169
I-173
sg21
I-173
sg147
I-173
sg68
I-173
sg149
I-173
sg22
I-173
sg23
I-173
sg24
I-173
sg152
I-173
sg25
I-173
sg170
I-173
sg26
I-173
sg171
I-173
sg61
I-173
sg27
I-173
sg146
I-173
sg28
I-173
sg29
I-173
sg172
I-173
sg30
I-173
sg151
I-173
sg150
I-173
sg173
I-173
ssI81
(dp182
S'INDENT'
p183
I161
ssI82
(dp184
g165
I-175
sg59
I-175
sg3
I-175
sg4
I-175
sg5
I-175
sg62
I-175
sg148
I-175
sg145
I-175
sg6
I-175
sg7
I-175
sg64
I-175
sg65
I-175
sg70
I-175
sg160
I-175
sg8
I-175
sg155
I-175
sg9
I-175
sg10
I-175
sg11
I-175
sg166
I-175
sg12
I-175
sg156
I-175
sg60
I-175
sg13
I-175
sg167
I-175
sg15
I-175
sg66
I-175
sg67
I-175
sg69
I-175
sg16
I-175
sg17
I-175
sg18
I-175
sg19
I-175
sg168
I-175
sg20
I-175
sg169
I-175
sg21
I-175
sg147
I-175
sg68
I-175
sg149
I-175
sg22
I-175
sg23
I-175
sg24
I-175
sg152
I-175
sg25
I-175
sg170
I-175
sg26
I-175
sg171
I-175
sg61
I-175
sg27
I-175
sg146
I-175
sg28
I-175
sg29
I-175
sg172
I-175
sg30
I-175
sg151
I-175
sg150
I-175
sg173
I-175
ssI83
(dp185
g165
I-174
sg59
I-174
sg3
I-174
sg4
I-174
sg5
I-174
sg62
I-174
sg148
I-174
sg145
I-174
sg6
I-174
sg7
I-174
sg64
I-174
sg65
I-174
sg70
I-174
sg160
I-174
sg8
I-174
sg155
I-174
sg9
I-174
sg10
I-174
sg11
I-174
sg166
I-174
sg12
I-174
sg156
I-174
sg60
I-174
sg13
I-174
sg167
I-174
sg15
I-174
sg66
I-174
sg67
I-174
sg69
I-174
sg16
I-174
sg17
I-174
sg18
I-174
sg19
I-174
sg168
I-174
sg20
I-174
sg169
I-174
sg21
I-174
sg147
I-174
sg68
I-174
sg149
I-174
sg22
I-174
sg23
I-174
sg24
I-174
sg152
I-174
sg25
I-174
sg170
I-174
sg26
I-174
sg171
I-174
sg61
I-174
sg27
I-174
sg146
I-174
sg28
I-174
sg29
I-174
sg172
I-174
sg30
I-174
sg151
I-174
sg150
I-174
sg173
I-174
ssI84
(dp186
g165
I-180
sg59
I-180
sg3
I-180
sg4
I-180
sg5
I-180
sg62
I-180
sg148
I-180
sg145
I-180
sg6
I-180
sg7
I-180
sg64
I-180
sg65
I-180
sg70
I-180
sg160
I-180
sg8
I-180
sg155
I-180
sg9
I-180
sg10
I-180
sg11
I-180
sg166
I-180
sg12
I-180
sg156
I-180
sg60
I-180
sg13
I-180
sg167
I-180
sg15
I-180
sg66
I-180
sg67
I-180
sg69
I-180
sg16
I-180
sg17
I-180
sg18
I-180
sg19
I-180
sg168
I-180
sg20
I-180
sg169
I-180
sg21
I-180
sg147
I-180
sg68
I-180
sg149
I-180
sg22
I-180
sg23
I-180
sg24
I-180
sg152
I-180
sg25
I-180
sg170
I-180
sg26
I-180
sg171
I-180
sg61
I-180
sg27
I-180
sg146
I-180
sg28
I-180
sg29
I-180
sg172
I-180
sg30
I-180
sg151
I-180
sg150
I-180
sg173
I-180
ssI85
(dp187
g178
I-153
sg59
I74
sg3
I-153
sg4
I-153
sg5
I-153
sg62
I75
sg6
I-153
sg7
I-153
sg64
I76
sg65
I77
sg172
I-153
sg160
I155
sg8
I-153
sg9
I-153
sg10
I-153
sg11
I-153
sg12
I-153
sg60
I80
sg13
I-153
sg167
I-153
sg15
I-153
sg66
I82
sg67
I91
sg70
I83
sg16
I-153
sg17
I-153
sg18
I-153
sg19
I-153
sg20
I-153
sg21
I-153
sg68
I86
sg69
I84
sg22
I-153
sg23
I-153
sg24
I-153
sg152
I-153
sg25
I-153
sg26
I-153
sg61
I89
sg27
I-153
sg28
I-153
sg29
I-153
sg30
I-153
ssI86
(dp188
g165
I-179
sg59
I-179
sg3
I-179
sg4
I-179
sg5
I-179
sg62
I-179
sg148
I-179
sg145
I-179
sg6
I-179
sg7
I-179
sg64
I-179
sg65
I-179
sg70
I-179
sg160
I-179
sg8
I-179
sg155
I-179
sg9
I-179
sg10
I-179
sg11
I-179
sg166
I-179
sg12
I-179
sg156
I-179
sg60
I-179
sg13
I-179
sg167
I-179
sg15
I-179
sg66
I-179
sg67
I-179
sg69
I-179
sg16
I-179
sg17
I-179
sg18
I-179
sg19
I-179
sg168
I-179
sg20
I-179
sg169
I-179
sg21
I-179
sg147
I-179
sg68
I-179
sg149
I-179
sg22
I-179
sg23
I-179
sg24
I-179
sg152
I-179
sg25
I-179
sg170
I-179
sg26
I-179
sg171
I-179
sg61
I-179
sg27
I-179
sg146
I-179
sg28
I-179
sg29
I-179
sg172
I-179
sg30
I-179
sg151
I-179
sg150
I-179
sg173
I-179
ssI87
(dp189
g3
I-159
sg4
I-159
sg5
I-159
sg6
I-159
sg7
I-159
sg8
I-159
sg9
I-159
sg10
I-159
sg11
I-159
sg12
I-159
sg13
I-159
sg167
I163
sg15
I-159
sg16
I-159
sg17
I-159
sg18
I-159
sg19
I-159
sg20
I-159
sg21
I-159
sg22
I-159
sg23
I-159
sg24
I-159
sg25
I-159
sg26
I-159
sg27
I-159
sg28
I-159
sg29
I-159
sg30
I-159
ssI88
(dp190
g178
I-155
sg59
I-155
sg3
I-155
sg4
I-155
sg5
I-155
sg62
I-155
sg6
I-155
sg7
I-155
sg64
I-155
sg65
I-155
sg70
I-155
sg160
I-155
sg8
I-155
sg9
I-155
sg10
I-155
sg11
I-155
sg12
I-155
sg60
I-155
sg13
I-155
sg167
I-155
sg15
I-155
sg66
I-155
sg67
I-155
sg69
I-155
sg16
I-155
sg17
I-155
sg18
I-155
sg19
I-155
sg20
I-155
sg21
I-155
sg68
I-155
sg22
I-155
sg23
I-155
sg24
I-155
sg152
I-155
sg25
I-155
sg26
I-155
sg61
I-155
sg27
I-155
sg28
I-155
sg29
I-155
sg172
I-155
sg30
I-155
ssI89
(dp191
g165
I-182
sg59
I-182
sg3
I-182
sg4
I-182
sg5
I-182
sg62
I-182
sg148
I-182
sg145
I-182
sg6
I-182
sg7
I-182
sg64
I-182
sg65
I-182
sg70
I-182
sg160
I-182
sg8
I-182
sg155
I-182
sg9
I-182
sg10
I-182
sg11
I-182
sg166
I-182
sg12
I-182
sg156
I-182
sg60
I-182
sg13
I-182
sg167
I-182
sg15
I-182
sg66
I-182
sg67
I-182
sg69
I-182
sg16
I-182
sg17
I-182
sg18
I-182
sg19
I-182
sg168
I-182
sg20
I-182
sg169
I-182
sg21
I-182
sg147
I-182
sg68
I-182
sg149
I-182
sg22
I-182
sg23
I-182
sg24
I-182
sg152
I-182
sg25
I-182
sg170
I-182
sg26
I-182
sg171
I-182
sg61
I-182
sg27
I-182
sg146
I-182
sg28
I-182
sg29
I-182
sg172
I-182
sg30
I-182
sg151
I-182
sg150
I-182
sg173
I-182
ssI90
(dp192
S'INDENT'
p193
I165
ssI91
(dp194
g178
I-184
sg59
I-184
sg3
I-184
sg4
I-184
sg5
I-184
sg62
I-184
sg6
I-184
sg7
I-184
sg64
I-184
sg65
I-184
sg70
I-184
sg160
I-184
sg8
I-184
sg155
I-184
sg9
I-184
sg10
I-184
sg11
I-184
sg12
I-184
sg156
I-184
sg60
I-184
sg13
I-184
sg167
I-184
sg15
I-184
sg66
I-184
sg67
I-184
sg69
I-184
sg16
I-184
sg17
I-184
sg18
I-184
sg19
I-184
sg168
I-184
sg20
I-184
sg169
I-184
sg21
I-184
sg68
I-184
sg22
I-184
sg23
I-184
sg24
I-184
sg152
I-184
sg25
I-184
sg170
I-184
sg26
I-184
sg44
I-184
sg61
I-184
sg27
I-184
sg28
I-184
sg29
I-184
sg172
I-184
sg30
I-184
ssI92
(dp195
S'DESCRIPTION_ID'
p196
I169
sg172
I171
ssI93
(dp197
S'DESCRIPTION_ID'
p198
I173
sS'DEFAULT_ID'
p199
I175
sg152
I138
ssI94
(dp200
g143
I122
ssI95
(dp201
g59
I74
sg60
I80
sg61
I89
sg62
I75
sg64
I76
sg65
I77
sg66
I82
sg67
I91
sg68
I86
sg69
I84
sg70
I83
sg160
I155
ssI96
(dp202
g59
I74
sg60
I80
sg61
I89
sg62
I75
sg64
I76
sg65
I77
sg66
I82
sg67
I91
sg68
I86
sg69
I84
sg70
I83
sg160
I155
ssI97
(dp203
g143
I122
ssI98
(dp204
g59
I74
sg60
I80
sg61
I89
sg62
I75
sg64
I76
sg65
I77
sg66
I82
sg67
I91
sg68
I86
sg69
I84
sg70
I83
sg163
I157
ssI99
(dp205
g59
I74
sg60
I80
sg61
I89
sg62
I75
sg64
I76
sg65
I77
sg66
I82
sg67
I91
sg68
I86
sg69
I84
sg70
I83
sg160
I155
ssI100
(dp206
g3
I-60
sg4
I-60
sg5
I-60
sg6
I-60
sg7
I-60
sg8
I-60
sg9
I-60
sg10
I-60
sg11
I-60
sg12
I-60
sg13
I-60
sg15
I-60
sg16
I-60
sg17
I-60
sg18
I-60
sg19
I-60
sg20
I-60
sg21
I-60
sg22
I-60
sg23
I-60
sg24
I-60
sg25
I-60
sg26
I-60
sg27
I-60
sg28
I-60
sg29
I-60
sg30
I-60
ssI101
(dp207
g59
I74
sg60
I80
sg61
I89
sg62
I75
sg64
I76
sg65
I77
sg66
I82
sg70
I83
sg68
I86
sg69
I84
sg140
I116
ssI102
(dp208
g59
I74
sg60
I80
sg61
I89
sg62
I75
sg64
I76
sg65
I77
sg66
I82
sg67
I91
sg68
I86
sg69
I84
sg70
I83
sg163
I157
ssI103
(dp209
g3
I-78
sg4
I-78
sg5
I-78
sg6
I-78
sg7
I-78
sg8
I-78
sg9
I-78
sg10
I-78
sg11
I-78
sg12
I-78
sg143
I122
sg13
I-78
sg15
I-78
sg16
I-78
sg17
I-78
sg18
I-78
sg19
I-78
sg20
I-78
sg21
I-78
sg22
I-78
sg23
I-78
sg24
I-78
sg25
I-78
sg26
I-78
sg40
I-78
sg27
I-78
sg28
I-78
sg29
I-78
sg30
I-78
ssI104
(dp210
g59
I74
sg60
I80
sg61
I89
sg62
I75
sg64
I76
sg65
I77
sg66
I82
sg67
I91
sg68
I86
sg69
I84
sg70
I83
sg160
I155
ssI105
(dp211
g59
I74
sg60
I80
sg61
I89
sg62
I75
sg64
I76
sg65
I77
sg66
I82
sg67
I91
sg68
I86
sg69
I84
sg70
I83
sg160
I155
ssI106
(dp212
g59
I74
sg60
I80
sg61
I89
sg62
I75
sg64
I76
sg65
I77
sg66
I82
sg67
I91
sg68
I86
sg69
I84
sg70
I83
sg160
I155
ssI107
(dp213
g168
I199
sg169
I196
sg170
I195
ssI108
(dp214
g3
I-1
sg4
I-1
sg5
I-1
sg6
I-1
sg7
I-1
sg8
I-1
sg9
I-1
sg10
I-1
sg11
I-1
sg12
I-1
sg13
I-1
sg15
I-1
sg16
I-1
sg17
I-1
sg18
I-1
sg19
I-1
sg20
I-1
sg21
I-1
sg22
I-1
sg23
I-1
sg24
I-1
sg25
I-1
sg26
I-1
sg27
I-1
sg28
I-1
sg29
I-1
sg30
I-1
ssI109
(dp215
g59
I74
sg60
I80
sg61
I89
sg62
I75
sg64
I76
sg65
I77
sg66
I82
sg70
I83
sg68
I86
sg69
I84
sg140
I116
ssI110
(dp216
S'WORD'
p217
I207
sS'DOUBLE_COLON'
p218
I205
sS'INDENT'
p219
I204
sS'WS'
p220
I209
ssI111
(dp221
g59
I-161
sg60
I-161
sg61
I-161
sg62
I-161
sg63
I-161
sg64
I-161
sg65
I-161
sg66
I-161
sg67
I-161
sg68
I-161
sg69
I-161
sg70
I-161
sg71
I-161
ssI112
(dp222
S'WORD'
p223
I210
ssI113
(dp224
g59
I74
sg60
I80
sg61
I89
sg62
I75
sg64
I76
sg65
I77
sg66
I82
sg67
I91
sg68
I86
sg69
I84
sg70
I83
sg160
I155
ssI114
(dp225
S'DEDENT'
p226
I-147
sg3
I-147
sg4
I-147
sg5
I-147
sg170
I-147
sg145
I-147
sg6
I-147
sg7
I-147
sg8
I-147
sg9
I-147
sg10
I-147
sg11
I-147
sS'INCLUDE_DIRS_ID'
p227
I-147
sg12
I-147
sg13
I-147
sg15
I-147
sS'SOURCES_ID'
p228
I-147
sS'COMMA'
p229
I212
sg16
I-147
sg17
I-147
sg18
I-147
sg19
I-147
sg168
I-147
sg20
I-147
sg169
I-147
sg21
I-147
sg147
I-147
sg149
I-147
sg22
I-147
sg23
I-147
sg24
I-147
sg152
I-147
sg25
I-147
sg26
I-147
sg27
I-147
sg146
I-147
sg28
I-147
sg29
I-147
sg30
I-147
sg151
I-147
sg150
I-147
sg148
I-147
ssI115
(dp230
S'DEDENT'
p231
I-172
sg59
I-172
sg3
I-172
sg4
I-172
sg5
I-172
sg62
I-172
sg148
I-172
sg145
I-172
sg6
I-172
sg7
I-172
sg64
I-172
sg65
I-172
sg8
I-172
sg9
I-172
sg166
I-172
sg11
I-172
sg10
I-172
sg12
I-172
sg60
I-172
sg13
I-172
sg170
I-172
sg15
I-172
sg66
I-172
sg70
I-172
sg69
I-172
sg16
I-172
sg17
I-172
sg18
I-172
sg19
I-172
sg168
I-172
sg20
I-172
sg169
I-172
sg21
I-172
sg147
I-172
sg68
I-172
sg149
I-172
sg22
I-172
sg23
I-172
sg24
I-172
sg152
I-172
sg25
I-172
sg26
I-172
sg61
I-172
sg27
I-172
sg146
I-172
sg28
I-172
sg29
I-172
sg30
I-172
sg151
I-172
sg150
I-172
sg229
I-172
sg173
I-172
ssI116
(dp232
g59
I74
sg60
I80
sg61
I89
sg62
I75
sg64
I76
sg65
I77
sg66
I82
sg70
I83
sg68
I86
sg69
I84
ssI117
(dp233
S'DEDENT'
p234
I-151
sg59
I74
sg3
I-151
sg4
I-151
sg5
I-151
sg170
I-151
sg145
I-151
sg6
I-151
sg7
I-151
sg64
I76
sg65
I77
sg70
I83
sg8
I-151
sg9
I-151
sg10
I-151
sg11
I-151
sg166
I-151
sg12
I-151
sg60
I80
sg13
I-151
sg62
I75
sg15
I-151
sg66
I82
sS'COMMA'
p235
I-151
sg173
I-151
sg16
I-151
sg17
I-151
sg18
I-151
sg19
I-151
sg168
I-151
sg69
I84
sg20
I-151
sg169
I-151
sg21
I-151
sg147
I-151
sg68
I86
sg149
I-151
sg22
I-151
sg23
I-151
sg24
I-151
sg152
I-151
sg25
I-151
sg26
I-151
sg61
I89
sg27
I-151
sg146
I-151
sg28
I-151
sg29
I-151
sg30
I-151
sg151
I-151
sg150
I-151
sg148
I-151
ssI118
(dp236
g3
I-61
sg4
I-61
sg5
I-61
sg6
I-61
sg7
I-61
sg8
I-61
sg9
I-61
sg10
I-61
sg11
I-61
sg12
I-61
sg13
I-61
sg15
I-61
sg16
I-61
sg17
I-61
sg18
I-61
sg19
I-61
sg20
I-61
sg21
I-61
sg22
I-61
sg23
I-61
sg24
I-61
sg25
I-61
sg26
I-61
sg27
I-61
sg28
I-61
sg29
I-61
sg30
I-61
ssI119
(dp237
g226
I-146
sg3
I-146
sg4
I-146
sg5
I-146
sg170
I-146
sg145
I-146
sg6
I-146
sg7
I-146
sg8
I-146
sg9
I-146
sg10
I-146
sg11
I-146
sg227
I-146
sg12
I-146
sg13
I-146
sg15
I-146
sg228
I-146
sg16
I-146
sg17
I-146
sg18
I-146
sg19
I-146
sg168
I-146
sg20
I-146
sg169
I-146
sg21
I-146
sg147
I-146
sg149
I-146
sg22
I-146
sg23
I-146
sg24
I-146
sg152
I-146
sg25
I-146
sg26
I-146
sg27
I-146
sg146
I-146
sg28
I-146
sg29
I-146
sg30
I-146
sg151
I-146
sg150
I-146
sg148
I-146
ssI120
(dp238
g3
I-44
sg4
I-44
sg5
I-44
sg6
I-44
sg7
I-44
sg8
I-44
sg9
I-44
sg10
I-44
sg11
I-44
sg12
I-44
sg13
I-44
sg15
I-44
sg16
I-44
sg17
I-44
sg18
I-44
sg19
I-44
sg20
I-44
sg21
I-44
sg22
I-44
sg23
I-44
sg24
I-44
sg25
I-44
sg26
I-44
sg27
I-44
sg28
I-44
sg29
I-44
sg30
I-44
ssI121
(dp239
g3
I-46
sg4
I-46
sg5
I-46
sg6
I-46
sg7
I-46
sg8
I-46
sg9
I-46
sg10
I-46
sg11
I-46
sg12
I-46
sg13
I-46
sg15
I-46
sg16
I-46
sg17
I-46
sg18
I-46
sg19
I-46
sg20
I-46
sg21
I-46
sg22
I-46
sg23
I-46
sg24
I-46
sg25
I-46
sg26
I-46
sg27
I-46
sg28
I-46
sg29
I-46
sg30
I-46
ssI122
(dp240
g226
I-191
sg3
I-191
sg4
I-191
sg5
I-191
sg145
I-191
sg6
I-191
sg7
I-191
sS'RPAR'
p241
I-191
sg8
I-191
sg9
I-191
sg10
I-191
sg11
I-191
sg12
I-191
sg13
I-191
sg15
I-191
sg16
I-191
sg17
I-191
sg18
I-191
sg19
I-191
sg20
I-191
sg21
I-191
sg147
I-191
sg149
I-191
sg22
I-191
sg23
I-191
sg24
I-191
sg152
I-191
sg25
I-191
sg26
I-191
sg40
I-191
sg27
I-191
sg146
I-191
sg28
I-191
sg29
I-191
sg30
I-191
sg151
I-191
sg150
I-191
sg148
I-191
ssI123
(dp242
S'COLON'
p243
I215
ssI124
(dp244
S'COLON'
p245
I216
ssI125
(dp246
S'COLON'
p247
I217
ssI126
(dp248
S'DEDENT'
p249
I-80
sg145
I-80
sg146
I-80
sg147
I-80
sg148
I-80
sg149
I-80
sg150
I-80
sg151
I-80
sg152
I-80
ssI127
(dp250
S'DEDENT'
p251
I-84
sg145
I-84
sg146
I-84
sg147
I-84
sg148
I-84
sg149
I-84
sg150
I-84
sg151
I-84
sg152
I-84
ssI128
(dp252
g251
I-82
sg145
I-82
sg146
I-82
sg147
I-82
sg148
I-82
sg149
I-82
sg150
I-82
sg151
I-82
sg152
I-82
ssI129
(dp253
g251
I-86
sg145
I-86
sg146
I-86
sg147
I-86
sg148
I-86
sg149
I-86
sg150
I-86
sg151
I-86
sg152
I-86
ssI130
(dp254
g251
I-83
sg145
I-83
sg146
I-83
sg147
I-83
sg148
I-83
sg149
I-83
sg150
I-83
sg151
I-83
sg152
I-83
ssI131
(dp255
g251
I-81
sg145
I-81
sg146
I-81
sg147
I-81
sg148
I-81
sg149
I-81
sg150
I-81
sg151
I-81
sg152
I-81
ssI132
(dp256
g226
I218
sg145
I124
sg146
I123
sg147
I136
sg148
I125
sg149
I137
sg150
I142
sg151
I133
sg152
I138
ssI133
(dp257
S'COLON'
p258
I220
ssI134
(dp259
g251
I-85
sg145
I-85
sg146
I-85
sg147
I-85
sg148
I-85
sg149
I-85
sg150
I-85
sg151
I-85
sg152
I-85
ssI135
(dp260
S'INDENT'
p261
I221
ssI136
(dp262
S'COLON'
p263
I222
ssI137
(dp264
S'COLON'
p265
I223
ssI138
(dp266
S'FALSE'
p267
I228
sS'OS_OP'
p268
I229
sS'error'
p269
I230
sS'NOT_OP'
p270
I224
sS'TRUE'
p271
I225
sS'FLAG_OP'
p272
I227
ssI139
(dp273
g251
I-87
sg145
I-87
sg146
I-87
sg147
I-87
sg148
I-87
sg149
I-87
sg150
I-87
sg151
I-87
sg152
I-87
ssI140
(dp274
g251
I-88
sg145
I-88
sg146
I-88
sg147
I-88
sg148
I-88
sg149
I-88
sg150
I-88
sg151
I-88
sg152
I-88
ssI141
(dp275
S'INDENT'
p276
I234
ssI142
(dp277
S'COLON'
p278
I235
ssI143
(dp279
g3
I-43
sg4
I-43
sg5
I-43
sg6
I-43
sg7
I-43
sg8
I-43
sg9
I-43
sg10
I-43
sg11
I-43
sg12
I-43
sg13
I-43
sg15
I-43
sg16
I-43
sg17
I-43
sg18
I-43
sg19
I-43
sg20
I-43
sg21
I-43
sg22
I-43
sg23
I-43
sg24
I-43
sg25
I-43
sg26
I-43
sg27
I-43
sg28
I-43
sg29
I-43
sg30
I-43
ssI144
(dp280
g165
I-142
sg155
I-142
sg156
I-142
ssI145
(dp281
g165
I236
sg155
I148
sg156
I149
ssI146
(dp282
g165
I-143
sg155
I-143
sg156
I-143
ssI147
(dp283
g165
I-141
sg155
I-141
sg156
I-141
ssI148
(dp284
S'COLON'
p285
I238
ssI149
(dp286
S'COLON'
p287
I239
ssI150
(dp288
g3
I-192
sg4
I-192
sg5
I-192
sg6
I-192
sg7
I-192
sg8
I-192
sg9
I-192
sg10
I-192
sg11
I-192
sg12
I-192
sg13
I-192
sg15
I-192
sg16
I-192
sg17
I-192
sg18
I-192
sg19
I-192
sg20
I-192
sg21
I-192
sg22
I-192
sg23
I-192
sg24
I-192
sg25
I-192
sg26
I-192
sg27
I-192
sg28
I-192
sg29
I-192
sg30
I-192
ssI151
(dp289
g3
I-45
sg4
I-45
sg5
I-45
sg6
I-45
sg7
I-45
sg8
I-45
sg9
I-45
sg10
I-45
sg11
I-45
sg12
I-45
sg13
I-45
sg15
I-45
sg16
I-45
sg17
I-45
sg18
I-45
sg19
I-45
sg20
I-45
sg21
I-45
sg22
I-45
sg23
I-45
sg24
I-45
sg25
I-45
sg26
I-45
sg27
I-45
sg28
I-45
sg29
I-45
sg30
I-45
ssI152
(dp290
g165
I-185
sg59
I-185
sg3
I-185
sg4
I-185
sg5
I-185
sg62
I-185
sg6
I-185
sg7
I-185
sg64
I-185
sg65
I-185
sg70
I-185
sg160
I-185
sg8
I-185
sg155
I-185
sg9
I-185
sg10
I-185
sg11
I-185
sg12
I-185
sg156
I-185
sg60
I-185
sg13
I-185
sg167
I-185
sg15
I-185
sg66
I-185
sg67
I-185
sg69
I-185
sg16
I-185
sg17
I-185
sg18
I-185
sg19
I-185
sg168
I-185
sg20
I-185
sg169
I-185
sg21
I-185
sg68
I-185
sg22
I-185
sg23
I-185
sg24
I-185
sg152
I-185
sg25
I-185
sg170
I-185
sg26
I-185
sg261
I-185
sg61
I-185
sg27
I-185
sg28
I-185
sg29
I-185
sg172
I-185
sg30
I-185
ssI153
(dp291
g165
I-170
sg59
I-170
sg3
I-170
sg4
I-170
sg5
I-170
sg62
I-170
sg6
I-170
sg7
I-170
sg64
I-170
sg65
I-170
sg70
I-170
sg160
I-170
sg8
I-170
sg9
I-170
sg155
I-170
sg10
I-170
sg11
I-170
sg12
I-170
sg156
I-170
sg60
I-170
sg13
I-170
sg170
I-170
sg15
I-170
sg66
I-170
sg67
I-170
sg69
I-170
sg16
I-170
sg17
I-170
sg18
I-170
sg19
I-170
sg168
I-170
sg20
I-170
sg169
I-170
sg21
I-170
sg68
I-170
sg22
I-170
sg23
I-170
sg24
I-170
sg152
I-170
sg25
I-170
sg26
I-170
sg75
I-170
sg61
I-170
sg27
I-170
sg28
I-170
sg29
I-170
sg199
I-170
sg30
I-170
ssI154
(dp292
g59
I74
sg73
I-131
sg61
I89
sg62
I75
sg69
I84
sg64
I76
sg65
I77
sg66
I82
sg160
I155
sg68
I86
sg60
I80
sg70
I83
sg67
I91
ssI155
(dp293
g165
I-186
sg59
I-186
sg3
I-186
sg4
I-186
sg5
I-186
sg62
I-186
sg6
I-186
sg7
I-186
sg64
I-186
sg65
I-186
sg70
I-186
sg160
I-186
sg8
I-186
sg155
I-186
sg9
I-186
sg10
I-186
sg11
I-186
sg12
I-186
sg156
I-186
sg60
I-186
sg13
I-186
sg167
I-186
sg15
I-186
sg66
I-186
sg67
I-186
sg69
I-186
sg16
I-186
sg17
I-186
sg18
I-186
sg19
I-186
sg168
I-186
sg20
I-186
sg169
I-186
sg21
I-186
sg68
I-186
sg22
I-186
sg23
I-186
sg24
I-186
sg152
I-186
sg25
I-186
sg170
I-186
sg26
I-186
sg261
I-186
sg61
I-186
sg27
I-186
sg28
I-186
sg29
I-186
sg172
I-186
sg30
I-186
ssI156
(dp294
g59
I74
sg3
I-35
sg4
I-35
sg5
I-35
sg62
I75
sg6
I-35
sg7
I-35
sg64
I76
sg65
I77
sg160
I155
sg8
I-35
sg9
I-35
sg10
I-35
sg11
I-35
sg12
I-35
sg60
I80
sg13
I-35
sg15
I-35
sg66
I82
sg67
I91
sg70
I83
sg16
I-35
sg17
I-35
sg18
I-35
sg19
I-35
sg20
I-35
sg21
I-35
sg68
I86
sg69
I84
sg22
I-35
sg23
I-35
sg24
I-35
sg25
I-35
sg26
I-35
sg61
I89
sg27
I-35
sg28
I-35
sg29
I-35
sg30
I-35
ssI157
(dp295
g59
I74
sg60
I80
sg61
I89
sg62
I75
sg64
I76
sg65
I77
sg66
I82
sg70
I83
sg68
I86
sg69
I84
sg67
I91
ssI158
(dp296
g3
I-34
sg4
I-34
sg5
I-34
sg6
I-34
sg7
I-34
sg8
I-34
sg9
I-34
sg10
I-34
sg11
I-34
sg12
I-34
sg13
I-34
sg15
I-34
sg16
I-34
sg17
I-34
sg18
I-34
sg19
I-34
sg20
I-34
sg21
I-34
sg22
I-34
sg23
I-34
sg24
I-34
sg25
I-34
sg26
I-34
sg27
I-34
sg28
I-34
sg29
I-34
sg30
I-34
ssI159
(dp297
S'INDENT'
p298
I241
ssI160
(dp299
g178
I-152
sg59
I74
sg3
I-152
sg4
I-152
sg5
I-152
sg62
I75
sg6
I-152
sg7
I-152
sg64
I76
sg65
I77
sg172
I-152
sg160
I155
sg8
I-152
sg9
I-152
sg10
I-152
sg11
I-152
sg12
I-152
sg60
I80
sg13
I-152
sg167
I-152
sg15
I-152
sg66
I82
sg67
I91
sg70
I83
sg16
I-152
sg17
I-152
sg18
I-152
sg19
I-152
sg20
I-152
sg21
I-152
sg68
I86
sg69
I84
sg22
I-152
sg23
I-152
sg24
I-152
sg152
I-152
sg25
I-152
sg26
I-152
sg61
I89
sg27
I-152
sg28
I-152
sg29
I-152
sg30
I-152
ssI161
(dp300
g59
I74
sg171
I249
sg61
I89
sg62
I75
sg69
I84
sg167
I163
sg64
I76
sg65
I77
sg66
I82
sg160
I155
sg68
I86
sg60
I80
sg70
I83
sg67
I91
ssI162
(dp301
g178
I-154
sg59
I-154
sg3
I-154
sg4
I-154
sg5
I-154
sg62
I-154
sg6
I-154
sg7
I-154
sg64
I-154
sg65
I-154
sg70
I-154
sg160
I-154
sg8
I-154
sg9
I-154
sg10
I-154
sg11
I-154
sg12
I-154
sg60
I-154
sg13
I-154
sg167
I-154
sg15
I-154
sg66
I-154
sg67
I-154
sg69
I-154
sg16
I-154
sg17
I-154
sg18
I-154
sg19
I-154
sg20
I-154
sg21
I-154
sg68
I-154
sg22
I-154
sg23
I-154
sg24
I-154
sg152
I-154
sg25
I-154
sg26
I-154
sg61
I-154
sg27
I-154
sg28
I-154
sg29
I-154
sg172
I-154
sg30
I-154
ssI163
(dp302
S'DEDENT'
p303
I-168
sg59
I-168
sg171
I-168
sg61
I-168
sg62
I-168
sg69
I-168
sg167
I-168
sg64
I-168
sg65
I-168
sg66
I-168
sg160
I-168
sg68
I-168
sg60
I-168
sg70
I-168
sg67
I-168
ssI164
(dp304
g193
I-160
ssI165
(dp305
g59
I74
sg171
I249
sg61
I89
sg62
I75
sg69
I84
sg167
I163
sg64
I76
sg65
I77
sg66
I82
sg160
I155
sg68
I86
sg60
I80
sg70
I83
sg67
I91
ssI166
(dp306
g178
I251
sg196
I169
sg172
I171
ssI167
(dp307
g178
I-134
sg196
I-134
sg172
I-134
ssI168
(dp308
g178
I-135
sg196
I-135
sg172
I-135
ssI169
(dp309
S'COLON'
p310
I253
ssI170
(dp311
g178
I-133
sg196
I-133
sg172
I-133
ssI171
(dp312
S'COLON'
p313
I254
ssI172
(dp314
g198
I-127
sg251
I-127
sg199
I-127
sg152
I-127
ssI173
(dp315
S'COLON'
p316
I255
ssI174
(dp317
g198
I-124
sg249
I-124
sg199
I-124
sg152
I-124
ssI175
(dp318
S'COLON'
p319
I256
ssI176
(dp320
g198
I-125
sg251
I-125
sg199
I-125
sg152
I-125
ssI177
(dp321
g198
I-126
sg251
I-126
sg199
I-126
sg152
I-126
ssI178
(dp322
S'DEDENT'
p323
I257
sg198
I173
sg199
I175
sg152
I138
ssI179
(dp324
g3
I-47
sg4
I-47
sg5
I-47
sg6
I-47
sg7
I-47
sg8
I-47
sg9
I-47
sg10
I-47
sg11
I-47
sg12
I-47
sg13
I-47
sg15
I-47
sg16
I-47
sg17
I-47
sg18
I-47
sg19
I-47
sg20
I-47
sg21
I-47
sg22
I-47
sg23
I-47
sg24
I-47
sg25
I-47
sg26
I-47
sg27
I-47
sg28
I-47
sg29
I-47
sg30
I-47
ssI180
(dp325
g59
I74
sg3
I-42
sg4
I-42
sg5
I-42
sg62
I75
sg6
I-42
sg7
I-42
sg64
I76
sg65
I77
sg160
I155
sg8
I-42
sg9
I-42
sg10
I-42
sg11
I-42
sg12
I-42
sg60
I80
sg13
I-42
sg15
I-42
sg66
I82
sg67
I91
sg70
I83
sg16
I-42
sg17
I-42
sg18
I-42
sg19
I-42
sg20
I-42
sg21
I-42
sg68
I86
sg69
I84
sg22
I-42
sg23
I-42
sg24
I-42
sg25
I-42
sg26
I-42
sg61
I89
sg27
I-42
sg28
I-42
sg29
I-42
sg30
I-42
ssI181
(dp326
g59
I74
sg75
I-122
sg61
I89
sg62
I75
sg69
I84
sg64
I76
sg65
I77
sg66
I82
sg160
I155
sg68
I86
sg60
I80
sg70
I83
sg67
I91
ssI182
(dp327
g118
I-65
ssI183
(dp328
g3
I-37
sg4
I-37
sg5
I-37
sg6
I-37
sg7
I-37
sg8
I-37
sg9
I-37
sg10
I-37
sg11
I-37
sg12
I-37
sg13
I-37
sg15
I-37
sg16
I-37
sg17
I-37
sg18
I-37
sg19
I-37
sg20
I-37
sg21
I-37
sg22
I-37
sg23
I-37
sg24
I-37
sg25
I-37
sg26
I-37
sg27
I-37
sg28
I-37
sg29
I-37
sg30
I-37
ssI184
(dp329
g59
I74
sg44
I-139
sg61
I89
sg62
I75
sg69
I84
sg64
I76
sg65
I77
sg66
I82
sg160
I155
sg68
I86
sg60
I80
sg70
I83
sg67
I91
ssI185
(dp330
g3
I-62
sg4
I-62
sg5
I-62
sg6
I-62
sg7
I-62
sg8
I-62
sg9
I-62
sg10
I-62
sg11
I-62
sg12
I-62
sg13
I-62
sg15
I-62
sg16
I-62
sg17
I-62
sg18
I-62
sg19
I-62
sg20
I-62
sg21
I-62
sg22
I-62
sg23
I-62
sg24
I-62
sg25
I-62
sg26
I-62
sg27
I-62
sg28
I-62
sg29
I-62
sg30
I-62
ssI186
(dp331
g3
I-39
sg4
I-39
sg5
I-39
sg6
I-39
sg7
I-39
sg8
I-39
sg9
I-39
sg10
I-39
sg11
I-39
sg12
I-39
sg13
I-39
sg15
I-39
sg16
I-39
sg17
I-39
sg18
I-39
sg19
I-39
sg20
I-39
sg21
I-39
sg22
I-39
sg23
I-39
sg24
I-39
sg25
I-39
sg26
I-39
sg27
I-39
sg28
I-39
sg29
I-39
sg30
I-39
ssI187
(dp332
g3
I-77
sg4
I-77
sg5
I-77
sg6
I-77
sg7
I-77
sg8
I-77
sg9
I-77
sg10
I-77
sg11
I-77
sg12
I-77
sg13
I-77
sg15
I-77
sg16
I-77
sg17
I-77
sg18
I-77
sg19
I-77
sg20
I-77
sg21
I-77
sg22
I-77
sg23
I-77
sg24
I-77
sg25
I-77
sg26
I-77
sg40
I-77
sg27
I-77
sg28
I-77
sg29
I-77
sg30
I-77
ssI188
(dp333
g3
I-76
sg4
I-76
sg5
I-76
sg6
I-76
sg7
I-76
sg8
I-76
sg9
I-76
sg10
I-76
sg11
I-76
sg12
I-76
sg13
I-76
sg15
I-76
sg16
I-76
sg17
I-76
sg18
I-76
sg19
I-76
sg20
I-76
sg21
I-76
sg22
I-76
sg23
I-76
sg24
I-76
sg25
I-76
sg26
I-76
sg40
I-76
sg27
I-76
sg28
I-76
sg29
I-76
sg30
I-76
ssI189
(dp334
g59
I74
sg3
I-41
sg4
I-41
sg5
I-41
sg62
I75
sg6
I-41
sg7
I-41
sg64
I76
sg65
I77
sg160
I155
sg8
I-41
sg9
I-41
sg10
I-41
sg11
I-41
sg12
I-41
sg60
I80
sg13
I-41
sg15
I-41
sg66
I82
sg67
I91
sg70
I83
sg16
I-41
sg17
I-41
sg18
I-41
sg19
I-41
sg20
I-41
sg21
I-41
sg68
I86
sg69
I84
sg22
I-41
sg23
I-41
sg24
I-41
sg25
I-41
sg26
I-41
sg61
I89
sg27
I-41
sg28
I-41
sg29
I-41
sg30
I-41
ssI190
(dp335
g59
I74
sg3
I-36
sg4
I-36
sg5
I-36
sg62
I75
sg6
I-36
sg7
I-36
sg64
I76
sg65
I77
sg160
I155
sg8
I-36
sg9
I-36
sg10
I-36
sg11
I-36
sg12
I-36
sg60
I80
sg13
I-36
sg15
I-36
sg66
I82
sg67
I91
sg70
I83
sg16
I-36
sg17
I-36
sg18
I-36
sg19
I-36
sg20
I-36
sg21
I-36
sg68
I86
sg69
I84
sg22
I-36
sg23
I-36
sg24
I-36
sg25
I-36
sg26
I-36
sg61
I89
sg27
I-36
sg28
I-36
sg29
I-36
sg30
I-36
ssI191
(dp336
g59
I74
sg3
I-40
sg4
I-40
sg5
I-40
sg62
I75
sg6
I-40
sg7
I-40
sg64
I76
sg65
I77
sg160
I155
sg8
I-40
sg9
I-40
sg10
I-40
sg11
I-40
sg12
I-40
sg60
I80
sg13
I-40
sg15
I-40
sg66
I82
sg67
I91
sg70
I83
sg16
I-40
sg17
I-40
sg18
I-40
sg19
I-40
sg20
I-40
sg21
I-40
sg68
I86
sg69
I84
sg22
I-40
sg23
I-40
sg24
I-40
sg25
I-40
sg26
I-40
sg61
I89
sg27
I-40
sg28
I-40
sg29
I-40
sg30
I-40
ssI192
(dp337
g231
I259
sg168
I199
sg169
I196
sg170
I195
ssI193
(dp338
g231
I-68
sg168
I-68
sg169
I-68
sg170
I-68
ssI194
(dp339
g231
I-69
sg168
I-69
sg169
I-69
sg170
I-69
ssI195
(dp340
S'COLON'
p341
I261
ssI196
(dp342
S'COLON'
p343
I262
ssI197
(dp344
g231
I-67
sg168
I-67
sg169
I-67
sg170
I-67
ssI198
(dp345
g231
I-70
sg168
I-70
sg169
I-70
sg170
I-70
ssI199
(dp346
S'COLON'
p347
I263
ssI200
(dp348
g3
I-63
sg4
I-63
sg5
I-63
sg6
I-63
sg7
I-63
sg8
I-63
sg9
I-63
sg10
I-63
sg11
I-63
sg12
I-63
sg13
I-63
sg15
I-63
sg16
I-63
sg17
I-63
sg18
I-63
sg19
I-63
sg20
I-63
sg21
I-63
sg22
I-63
sg23
I-63
sg24
I-63
sg25
I-63
sg26
I-63
sg27
I-63
sg28
I-63
sg29
I-63
sg30
I-63
ssI201
(dp349
g3
I-49
sg4
I-49
sg5
I-49
sg6
I-49
sg7
I-49
sg8
I-49
sg9
I-49
sg10
I-49
sg11
I-49
sg12
I-49
sg13
I-49
sg15
I-49
sg16
I-49
sg17
I-49
sg18
I-49
sg19
I-49
sg20
I-49
sg21
I-49
sg22
I-49
sg23
I-49
sg24
I-49
sg25
I-49
sg26
I-49
sg27
I-49
sg28
I-49
sg29
I-49
sg30
I-49
ssI202
(dp350
S'DEDENT'
p351
I-56
sg3
I-56
sg4
I-56
sg5
I-56
sg6
I-56
sg7
I-56
sg220
I-56
sg8
I-56
sg9
I-56
sg10
I-56
sg11
I-56
sg12
I-56
sg217
I-56
sg13
I-56
sg15
I-56
sg218
I-56
sS'COMMA'
p352
I-56
sg16
I-56
sg17
I-56
sg18
I-56
sg19
I-56
sg20
I-56
sg21
I-56
sg22
I-56
sg23
I-56
sg24
I-56
sg25
I-56
sg26
I-56
sg27
I-56
sg28
I-56
sg29
I-56
sg30
I-56
ssI203
(dp353
g351
I-54
sg3
I-54
sg4
I-54
sg5
I-54
sg6
I-54
sg7
I-54
sg220
I209
sg8
I-54
sg9
I-54
sg10
I-54
sg11
I-54
sg12
I-54
sg217
I207
sg13
I-54
sg15
I-54
sg218
I205
sg352
I-54
sg16
I-54
sg17
I-54
sg18
I-54
sg19
I-54
sg20
I-54
sg21
I-54
sg22
I-54
sg23
I-54
sg24
I-54
sg25
I-54
sg26
I-54
sg27
I-54
sg28
I-54
sg29
I-54
sg30
I-54
ssI204
(dp354
g220
I209
sg218
I205
sg217
I207
ssI205
(dp355
g351
I-59
sg3
I-59
sg4
I-59
sg5
I-59
sg6
I-59
sg7
I-59
sg220
I-59
sg8
I-59
sg9
I-59
sg10
I-59
sg11
I-59
sg12
I-59
sg217
I-59
sg13
I-59
sg15
I-59
sg218
I-59
sS'COMMA'
p356
I-59
sg16
I-59
sg17
I-59
sg18
I-59
sg19
I-59
sg20
I-59
sg21
I-59
sg22
I-59
sg23
I-59
sg24
I-59
sg25
I-59
sg26
I-59
sg27
I-59
sg28
I-59
sg29
I-59
sg30
I-59
ssI206
(dp357
g3
I-48
sg4
I-48
sg5
I-48
sg6
I-48
sg7
I-48
sg8
I-48
sg9
I-48
sg10
I-48
sg11
I-48
sg12
I-48
sg13
I-48
sg15
I-48
sg16
I-48
sg17
I-48
sg18
I-48
sg19
I-48
sg20
I-48
sg21
I-48
sg22
I-48
sg23
I-48
sg24
I-48
sg25
I-48
sg26
I-48
sg27
I-48
sg28
I-48
sg29
I-48
sg30
I-48
ssI207
(dp358
g351
I-57
sg3
I-57
sg4
I-57
sg5
I-57
sg6
I-57
sg7
I-57
sg220
I-57
sg8
I-57
sg9
I-57
sg10
I-57
sg11
I-57
sg12
I-57
sg217
I-57
sg13
I-57
sg15
I-57
sg218
I-57
sg356
I-57
sg16
I-57
sg17
I-57
sg18
I-57
sg19
I-57
sg20
I-57
sg21
I-57
sg22
I-57
sg23
I-57
sg24
I-57
sg25
I-57
sg26
I-57
sg27
I-57
sg28
I-57
sg29
I-57
sg30
I-57
ssI208
(dp359
g3
I-50
sg4
I-50
sg5
I-50
sg6
I-50
sg7
I-50
sg8
I-50
sg9
I-50
sg10
I-50
sg11
I-50
sg12
I-50
sg13
I-50
sg15
I-50
sg352
I266
sg16
I-50
sg17
I-50
sg18
I-50
sg19
I-50
sg20
I-50
sg21
I-50
sg22
I-50
sg23
I-50
sg24
I-50
sg25
I-50
sg26
I-50
sg27
I-50
sg28
I-50
sg29
I-50
sg30
I-50
ssI209
(dp360
g351
I-58
sg3
I-58
sg4
I-58
sg5
I-58
sg6
I-58
sg7
I-58
sg220
I-58
sg8
I-58
sg9
I-58
sg10
I-58
sg11
I-58
sg12
I-58
sg217
I-58
sg13
I-58
sg15
I-58
sg218
I-58
sg356
I-58
sg16
I-58
sg17
I-58
sg18
I-58
sg19
I-58
sg20
I-58
sg21
I-58
sg22
I-58
sg23
I-58
sg24
I-58
sg25
I-58
sg26
I-58
sg27
I-58
sg28
I-58
sg29
I-58
sg30
I-58
ssI210
(dp361
g3
I-33
sg4
I-33
sg5
I-33
sg6
I-33
sg7
I-33
sg8
I-33
sg9
I-33
sg10
I-33
sg11
I-33
sg12
I-33
sg13
I-33
sg15
I-33
sg16
I-33
sg17
I-33
sg18
I-33
sg19
I-33
sg20
I-33
sg21
I-33
sg22
I-33
sg23
I-33
sg24
I-33
sg25
I-33
sg26
I-33
sg27
I-33
sg28
I-33
sg29
I-33
sg30
I-33
ssI211
(dp362
g59
I74
sg3
I-38
sg4
I-38
sg5
I-38
sg62
I75
sg6
I-38
sg7
I-38
sg64
I76
sg65
I77
sg160
I155
sg8
I-38
sg9
I-38
sg10
I-38
sg11
I-38
sg12
I-38
sg60
I80
sg13
I-38
sg15
I-38
sg66
I82
sg67
I91
sg70
I83
sg16
I-38
sg17
I-38
sg18
I-38
sg19
I-38
sg20
I-38
sg21
I-38
sg68
I86
sg69
I84
sg22
I-38
sg23
I-38
sg24
I-38
sg25
I-38
sg26
I-38
sg61
I89
sg27
I-38
sg28
I-38
sg29
I-38
sg30
I-38
ssI212
(dp363
g59
I74
sg60
I80
sg61
I89
sg62
I75
sg64
I76
sg65
I77
sg66
I82
sg70
I83
sg68
I86
sg69
I84
sS'INDENT'
p364
I268
ssI213
(dp365
S'DEDENT'
p366
I269
sg235
I270
ssI214
(dp367
g231
I-171
sg59
I-171
sg3
I-171
sg4
I-171
sg5
I-171
sg62
I-171
sg148
I-171
sg145
I-171
sg6
I-171
sg7
I-171
sg64
I-171
sg65
I-171
sg8
I-171
sg9
I-171
sg166
I-171
sg11
I-171
sg10
I-171
sg12
I-171
sg60
I-171
sg13
I-171
sg170
I-171
sg15
I-171
sg66
I-171
sg70
I-171
sg69
I-171
sg16
I-171
sg17
I-171
sg18
I-171
sg19
I-171
sg168
I-171
sg20
I-171
sg169
I-171
sg21
I-171
sg147
I-171
sg68
I-171
sg149
I-171
sg22
I-171
sg23
I-171
sg24
I-171
sg152
I-171
sg25
I-171
sg26
I-171
sg61
I-171
sg27
I-171
sg146
I-171
sg28
I-171
sg29
I-171
sg30
I-171
sg151
I-171
sg150
I-171
sg229
I-171
sg173
I-171
ssI215
(dp368
g59
I74
sg60
I80
sg61
I89
sg62
I75
sg64
I76
sg65
I77
sg66
I82
sg67
I91
sg68
I86
sg69
I84
sg70
I83
sg160
I155
ssI216
(dp369
g143
I122
ssI217
(dp370
g59
I74
sg60
I80
sg61
I89
sg62
I75
sg64
I76
sg65
I77
sg66
I82
sg67
I91
sg68
I86
sg69
I84
sg70
I83
sg160
I155
ssI218
(dp371
g3
I-74
sg4
I-74
sg5
I-74
sg6
I-74
sg7
I-74
sg8
I-74
sg9
I-74
sg10
I-74
sg11
I-74
sg12
I-74
sg13
I-74
sg15
I-74
sg16
I-74
sg17
I-74
sg18
I-74
sg19
I-74
sg20
I-74
sg21
I-74
sg22
I-74
sg23
I-74
sg24
I-74
sg25
I-74
sg26
I-74
sg27
I-74
sg28
I-74
sg29
I-74
sg30
I-74
ssI219
(dp372
g249
I-79
sg145
I-79
sg146
I-79
sg147
I-79
sg148
I-79
sg149
I-79
sg150
I-79
sg151
I-79
sg152
I-79
ssI220
(dp373
g59
I74
sg60
I80
sg61
I89
sg62
I75
sg64
I76
sg65
I77
sg66
I82
sg70
I83
sg68
I86
sg69
I84
sg140
I116
ssI221
(dp374
g166
I278
sg173
I276
ssI222
(dp375
g59
I74
sg60
I80
sg61
I89
sg62
I75
sg64
I76
sg65
I77
sg66
I82
sg70
I83
sg68
I86
sg69
I84
sg140
I116
ssI223
(dp376
g59
I74
sg60
I80
sg61
I89
sg62
I75
sg64
I76
sg65
I77
sg66
I82
sg70
I83
sg68
I86
sg69
I84
sg140
I116
ssI224
(dp377
S'TRUE'
p378
I282
sS'FALSE'
p379
I281
sS'FLAG_OP'
p380
I283
ssI225
(dp381
S'COLON'
p382
I-117
ssI226
(dp383
g382
I-112
ssI227
(dp384
S'LPAR'
p385
I284
ssI228
(dp386
g382
I-119
ssI229
(dp387
S'LPAR'
p388
I285
ssI230
(dp389
g226
I-108
sg198
I-108
sg145
I-108
sg199
I-108
sg146
I-108
sg147
I-108
sg148
I-108
sg149
I-108
sg150
I-108
sg151
I-108
sg152
I-108
ssI231
(dp390
g382
I286
ssI232
(dp391
g382
I-111
ssI233
(dp392
g382
I-113
ssI234
(dp393
g227
I290
sg228
I288
ssI235
(dp394
g59
I74
sg60
I80
sg61
I89
sg62
I75
sg64
I76
sg65
I77
sg66
I82
sg70
I83
sg68
I86
sg69
I84
sg140
I116
ssI236
(dp395
g3
I-138
sg4
I-138
sg5
I-138
sg6
I-138
sg7
I-138
sg8
I-138
sg9
I-138
sg10
I-138
sg11
I-138
sg12
I-138
sg13
I-138
sg15
I-138
sg16
I-138
sg17
I-138
sg18
I-138
sg19
I-138
sg20
I-138
sg21
I-138
sg22
I-138
sg23
I-138
sg24
I-138
sg25
I-138
sg26
I-138
sg27
I-138
sg28
I-138
sg29
I-138
sg30
I-138
ssI237
(dp396
g165
I-140
sg155
I-140
sg156
I-140
ssI238
(dp397
g59
I74
sg60
I80
sg61
I89
sg62
I75
sg64
I76
sg65
I77
sg66
I82
sg67
I91
sg68
I86
sg69
I84
sg70
I83
sg160
I155
ssI239
(dp398
g59
I74
sg60
I80
sg61
I89
sg62
I75
sg64
I76
sg65
I77
sg66
I82
sg67
I91
sg68
I86
sg69
I84
sg70
I83
sg160
I155
ssI240
(dp399
g165
I-169
sg59
I-169
sg3
I-169
sg4
I-169
sg5
I-169
sg62
I-169
sg6
I-169
sg7
I-169
sg64
I-169
sg65
I-169
sg70
I-169
sg160
I-169
sg8
I-169
sg9
I-169
sg155
I-169
sg10
I-169
sg11
I-169
sg12
I-169
sg156
I-169
sg60
I-169
sg13
I-169
sg170
I-169
sg15
I-169
sg66
I-169
sg67
I-169
sg69
I-169
sg16
I-169
sg17
I-169
sg18
I-169
sg19
I-169
sg168
I-169
sg20
I-169
sg169
I-169
sg21
I-169
sg68
I-169
sg22
I-169
sg23
I-169
sg24
I-169
sg152
I-169
sg25
I-169
sg26
I-169
sg75
I-169
sg61
I-169
sg27
I-169
sg28
I-169
sg29
I-169
sg199
I-169
sg30
I-169
ssI241
(dp400
g59
I74
sg171
I249
sg61
I89
sg62
I75
sg69
I84
sg167
I163
sg64
I76
sg65
I77
sg66
I82
sg160
I155
sg68
I86
sg60
I80
sg70
I83
sg67
I91
ssI242
(dp401
S'DEDENT'
p402
I295
ssI243
(dp403
g402
I-167
sg59
I-167
sg171
I-167
sg61
I-167
sg62
I-167
sg69
I-167
sg167
I-167
sg64
I-167
sg65
I-167
sg66
I-167
sg160
I-167
sg68
I-167
sg60
I-167
sg70
I-167
sg67
I-167
ssI244
(dp404
S'DEDENT'
p405
I-187
sg59
I-187
sg171
I-187
sg61
I-187
sg62
I-187
sg69
I-187
sg167
I-187
sg64
I-187
sg65
I-187
sg66
I-187
sg160
I-187
sg68
I-187
sg60
I-187
sg70
I-187
sg67
I-187
ssI245
(dp406
g402
I-165
sg59
I74
sg171
I249
sg61
I89
sg62
I75
sg69
I84
sg167
I163
sg64
I76
sg65
I77
sg70
I83
sg160
I155
sg68
I86
sg60
I80
sg67
I91
sg66
I82
ssI246
(dp407
g405
I-188
sg59
I-188
sg171
I-188
sg61
I-188
sg62
I-188
sg69
I-188
sg167
I-188
sg64
I-188
sg65
I-188
sg66
I-188
sg160
I-188
sg68
I-188
sg60
I-188
sg70
I-188
sg67
I-188
ssI247
(dp408
g59
I74
sg171
I249
sg61
I89
sg62
I75
sg69
I84
sg167
I163
sg64
I76
sg65
I77
sg66
I82
sg160
I155
sg68
I86
sg60
I80
sg70
I83
sg67
I91
ssI248
(dp409
g402
I-166
sg59
I-166
sg171
I-166
sg61
I-166
sg62
I-166
sg69
I-166
sg167
I-166
sg64
I-166
sg65
I-166
sg66
I-166
sg160
I-166
sg68
I-166
sg60
I-166
sg70
I-166
sg67
I-166
ssI249
(dp410
g59
I-189
sg171
I-189
sg61
I-189
sg62
I-189
sg69
I-189
sg167
I-189
sg64
I-189
sg65
I-189
sg66
I-189
sg160
I-189
sg68
I-189
sg60
I-189
sg70
I-189
sg67
I-189
ssI250
(dp411
g405
I299
ssI251
(dp412
g3
I-130
sg4
I-130
sg5
I-130
sg6
I-130
sg7
I-130
sg8
I-130
sg9
I-130
sg10
I-130
sg11
I-130
sg12
I-130
sg13
I-130
sg15
I-130
sg16
I-130
sg17
I-130
sg18
I-130
sg19
I-130
sg20
I-130
sg21
I-130
sg22
I-130
sg23
I-130
sg24
I-130
sg25
I-130
sg26
I-130
sg27
I-130
sg28
I-130
sg29
I-130
sg30
I-130
ssI252
(dp413
g178
I-132
sg196
I-132
sg172
I-132
ssI253
(dp414
g59
I74
sg60
I80
sg61
I89
sg62
I75
sg64
I76
sg65
I77
sg66
I82
sg67
I91
sg68
I86
sg69
I84
sg70
I83
sg163
I157
ssI254
(dp415
g59
I74
sg60
I80
sg61
I89
sg62
I75
sg64
I76
sg65
I77
sg66
I82
sg67
I91
sg68
I86
sg69
I84
sg70
I83
sg160
I155
ssI255
(dp416
g59
I74
sg60
I80
sg61
I89
sg62
I75
sg64
I76
sg65
I77
sg66
I82
sg67
I91
sg68
I86
sg69
I84
sg70
I83
sg163
I157
ssI256
(dp417
g59
I74
sg60
I80
sg61
I89
sg62
I75
sg64
I76
sg65
I77
sg66
I82
sg67
I91
sg68
I86
sg69
I84
sg70
I83
sg160
I155
ssI257
(dp418
g3
I-121
sg4
I-121
sg5
I-121
sg6
I-121
sg7
I-121
sg8
I-121
sg9
I-121
sg10
I-121
sg11
I-121
sg12
I-121
sg13
I-121
sg15
I-121
sg16
I-121
sg17
I-121
sg18
I-121
sg19
I-121
sg20
I-121
sg21
I-121
sg22
I-121
sg23
I-121
sg24
I-121
sg25
I-121
sg26
I-121
sg27
I-121
sg28
I-121
sg29
I-121
sg30
I-121
ssI258
(dp419
g198
I-123
sg249
I-123
sg199
I-123
sg152
I-123
ssI259
(dp420
g3
I-64
sg4
I-64
sg5
I-64
sg6
I-64
sg7
I-64
sg8
I-64
sg9
I-64
sg10
I-64
sg11
I-64
sg12
I-64
sg13
I-64
sg15
I-64
sg16
I-64
sg17
I-64
sg18
I-64
sg19
I-64
sg20
I-64
sg21
I-64
sg22
I-64
sg23
I-64
sg24
I-64
sg25
I-64
sg26
I-64
sg27
I-64
sg28
I-64
sg29
I-64
sg30
I-64
ssI260
(dp421
g231
I-66
sg168
I-66
sg169
I-66
sg170
I-66
ssI261
(dp422
g59
I74
sg60
I80
sg61
I89
sg62
I75
sg64
I76
sg65
I77
sg66
I82
sg70
I83
sg68
I86
sg69
I84
sg140
I116
ssI262
(dp423
g59
I74
sg60
I80
sg61
I89
sg62
I75
sg64
I76
sg65
I77
sg66
I82
sg67
I91
sg68
I86
sg69
I84
sg70
I83
sg160
I155
ssI263
(dp424
g59
I74
sg60
I80
sg61
I89
sg62
I75
sg64
I76
sg65
I77
sg66
I82
sg67
I91
sg68
I86
sg69
I84
sg70
I83
sg160
I155
ssI264
(dp425
g351
I-55
sg3
I-55
sg4
I-55
sg5
I-55
sg6
I-55
sg7
I-55
sg220
I-55
sg8
I-55
sg9
I-55
sg10
I-55
sg11
I-55
sg12
I-55
sg217
I-55
sg13
I-55
sg15
I-55
sg218
I-55
sg352
I-55
sg16
I-55
sg17
I-55
sg18
I-55
sg19
I-55
sg20
I-55
sg21
I-55
sg22
I-55
sg23
I-55
sg24
I-55
sg25
I-55
sg26
I-55
sg27
I-55
sg28
I-55
sg29
I-55
sg30
I-55
ssI265
(dp426
g351
I307
sg356
I308
ssI266
(dp427
g217
I207
sg218
I205
sS'INDENT'
p428
I309
sg220
I209
ssI267
(dp429
g234
I-150
sg59
I74
sg3
I-150
sg4
I-150
sg5
I-150
sg170
I-150
sg145
I-150
sg6
I-150
sg7
I-150
sg64
I76
sg65
I77
sg70
I83
sg8
I-150
sg9
I-150
sg10
I-150
sg11
I-150
sg166
I-150
sg12
I-150
sg60
I80
sg13
I-150
sg62
I75
sg15
I-150
sg66
I82
sg235
I-150
sg173
I-150
sg16
I-150
sg17
I-150
sg18
I-150
sg19
I-150
sg168
I-150
sg69
I84
sg20
I-150
sg169
I-150
sg21
I-150
sg147
I-150
sg68
I86
sg149
I-150
sg22
I-150
sg23
I-150
sg24
I-150
sg152
I-150
sg25
I-150
sg26
I-150
sg61
I89
sg27
I-150
sg146
I-150
sg28
I-150
sg29
I-150
sg30
I-150
sg151
I-150
sg150
I-150
sg148
I-150
ssI268
(dp430
g59
I74
sg60
I80
sg61
I89
sg62
I75
sg64
I76
sg65
I77
sg66
I82
sg70
I83
sg68
I86
sg69
I84
ssI269
(dp431
g231
I-149
sg3
I-149
sg4
I-149
sg5
I-149
sg170
I-149
sg145
I-149
sg6
I-149
sg7
I-149
sg148
I-149
sg9
I-149
sg227
I-149
sg11
I-149
sg10
I-149
sg12
I-149
sg8
I-149
sg13
I-149
sg15
I-149
sg228
I-149
sg16
I-149
sg17
I-149
sg151
I-149
sg19
I-149
sg168
I-149
sg20
I-149
sg169
I-149
sg21
I-149
sg147
I-149
sg149
I-149
sg22
I-149
sg23
I-149
sg24
I-149
sg152
I-149
sg25
I-149
sg26
I-149
sg27
I-149
sg146
I-149
sg28
I-149
sg29
I-149
sg30
I-149
sg18
I-149
sg150
I-149
ssI270
(dp432
g59
I74
sg60
I80
sg61
I89
sg62
I75
sg64
I76
sg65
I77
sg66
I82
sg70
I83
sg68
I86
sg69
I84
ssI271
(dp433
g59
I74
sg261
I-102
sg61
I89
sg62
I75
sg69
I84
sg64
I76
sg65
I77
sg66
I82
sg160
I155
sg68
I86
sg60
I80
sg70
I83
sg67
I91
ssI272
(dp434
g226
I-105
sg145
I-105
sg146
I-105
sg147
I-105
sg148
I-105
sg149
I-105
sg150
I-105
sg151
I-105
sg152
I-105
ssI273
(dp435
g59
I74
sg276
I-96
sg61
I89
sg62
I75
sg69
I84
sg64
I76
sg65
I77
sg66
I82
sg160
I155
sg68
I86
sg60
I80
sg70
I83
sg67
I91
ssI274
(dp436
g226
I-89
sg145
I-89
sg146
I-89
sg147
I-89
sg148
I-89
sg149
I-89
sg150
I-89
sg151
I-89
sg152
I-89
ssI275
(dp437
S'DEDENT'
p438
I-101
sg166
I-101
sg173
I-101
ssI276
(dp439
S'COLON'
p440
I312
ssI277
(dp441
g438
I313
sg166
I278
sg173
I276
ssI278
(dp442
S'COLON'
p443
I315
ssI279
(dp444
g251
I-92
sg145
I-92
sg146
I-92
sg147
I-92
sg148
I-92
sg149
I-92
sg150
I-92
sg151
I-92
sg152
I-92
ssI280
(dp445
g226
I-90
sg145
I-90
sg146
I-90
sg147
I-90
sg148
I-90
sg149
I-90
sg150
I-90
sg151
I-90
sg152
I-90
ssI281
(dp446
g382
I-118
ssI282
(dp447
g382
I-120
ssI283
(dp448
S'LPAR'
p449
I316
ssI284
(dp450
g143
I122
ssI285
(dp451
g143
I122
ssI286
(dp452
S'INDENT'
p453
I319
ssI287
(dp454
S'DEDENT'
p455
I-95
sg227
I-95
sg228
I-95
ssI288
(dp456
S'COLON'
p457
I320
ssI289
(dp458
g455
I321
sg227
I290
sg228
I288
ssI290
(dp459
S'COLON'
p460
I323
ssI291
(dp461
g226
I-91
sg145
I-91
sg146
I-91
sg147
I-91
sg148
I-91
sg149
I-91
sg150
I-91
sg151
I-91
sg152
I-91
ssI292
(dp462
g165
I-144
sg59
I74
sg60
I80
sg61
I89
sg62
I75
sg64
I76
sg65
I77
sg70
I83
sg160
I155
sg68
I86
sg69
I84
sg155
I-144
sg156
I-144
sg66
I82
sg67
I91
ssI293
(dp463
g165
I-145
sg59
I74
sg60
I80
sg61
I89
sg62
I75
sg64
I76
sg65
I77
sg70
I83
sg160
I155
sg68
I86
sg69
I84
sg155
I-145
sg156
I-145
sg66
I82
sg67
I91
ssI294
(dp464
S'DEDENT'
p465
I324
ssI295
(dp466
g3
I-157
sg4
I-157
sg5
I-157
sg6
I-157
sg7
I-157
sg8
I-157
sg9
I-157
sg10
I-157
sg11
I-157
sg12
I-157
sg13
I-157
sg15
I-157
sg16
I-157
sg17
I-157
sg18
I-157
sg19
I-157
sg20
I-157
sg21
I-157
sg22
I-157
sg23
I-157
sg24
I-157
sg25
I-157
sg26
I-157
sg27
I-157
sg28
I-157
sg29
I-157
sg30
I-157
ssI296
(dp467
g402
I-164
ssI297
(dp468
g303
I326
ssI298
(dp469
g402
I-162
sg59
I-162
sg171
I-162
sg61
I-162
sg62
I-162
sg69
I-162
sg167
I-162
sg64
I-162
sg65
I-162
sg66
I-162
sg160
I-162
sg68
I-162
sg60
I-162
sg70
I-162
sg67
I-162
ssI299
(dp470
g3
I-156
sg4
I-156
sg5
I-156
sg6
I-156
sg7
I-156
sg8
I-156
sg9
I-156
sg10
I-156
sg11
I-156
sg12
I-156
sg13
I-156
sg15
I-156
sg16
I-156
sg17
I-156
sg18
I-156
sg19
I-156
sg20
I-156
sg21
I-156
sg22
I-156
sg23
I-156
sg24
I-156
sg25
I-156
sg26
I-156
sg27
I-156
sg28
I-156
sg29
I-156
sg30
I-156
ssI300
(dp471
g178
I-136
sg196
I-136
sg172
I-136
ssI301
(dp472
g178
I-137
sg59
I74
sg60
I80
sg61
I89
sg62
I75
sg196
I-137
sg70
I83
sg64
I76
sg65
I77
sg172
I-137
sg160
I155
sg68
I86
sg69
I84
sg67
I91
sg66
I82
ssI302
(dp473
g198
I-128
sg249
I-128
sg199
I-128
sg152
I-128
ssI303
(dp474
g323
I-129
sg59
I74
sg60
I80
sg61
I89
sg62
I75
sg198
I-129
sg70
I83
sg64
I76
sg65
I77
sg199
I-129
sg160
I155
sg68
I86
sg69
I84
sg67
I91
sg66
I82
sg152
I-129
ssI304
(dp475
g231
I-73
sg168
I-73
sg169
I-73
sg170
I-73
ssI305
(dp476
g231
I-71
sg168
I-71
sg60
I80
sg61
I89
sg170
I-71
sg62
I75
sg169
I-71
sg64
I76
sg65
I77
sg70
I83
sg67
I91
sg68
I86
sg69
I84
sg160
I155
sg66
I82
sg59
I74
ssI306
(dp477
g231
I-72
sg168
I-72
sg60
I80
sg61
I89
sg170
I-72
sg62
I75
sg169
I-72
sg64
I76
sg65
I77
sg70
I83
sg67
I91
sg68
I86
sg69
I84
sg160
I155
sg66
I82
sg59
I74
ssI307
(dp478
g3
I-52
sg4
I-52
sg5
I-52
sg6
I-52
sg7
I-52
sg8
I-52
sg9
I-52
sg10
I-52
sg11
I-52
sg12
I-52
sg13
I-52
sg15
I-52
sg16
I-52
sg17
I-52
sg18
I-52
sg19
I-52
sg20
I-52
sg21
I-52
sg22
I-52
sg23
I-52
sg24
I-52
sg25
I-52
sg26
I-52
sg27
I-52
sg28
I-52
sg29
I-52
sg30
I-52
ssI308
(dp479
g220
I209
sg218
I205
sg217
I207
ssI309
(dp480
g220
I209
sg218
I205
sg217
I207
ssI310
(dp481
g351
I-53
sg3
I-53
sg4
I-53
sg5
I-53
sg6
I-53
sg7
I-53
sg220
I209
sg8
I-53
sg9
I-53
sg10
I-53
sg11
I-53
sg12
I-53
sg217
I207
sg13
I-53
sg15
I-53
sg218
I205
sg352
I-53
sg16
I-53
sg17
I-53
sg18
I-53
sg19
I-53
sg20
I-53
sg21
I-53
sg22
I-53
sg23
I-53
sg24
I-53
sg25
I-53
sg26
I-53
sg27
I-53
sg28
I-53
sg29
I-53
sg30
I-53
ssI311
(dp482
g234
I328
sg235
I270
ssI312
(dp483
g59
I74
sg60
I80
sg61
I89
sg62
I75
sg64
I76
sg65
I77
sg66
I82
sg70
I83
sg68
I86
sg69
I84
sg140
I116
ssI313
(dp484
g249
I-99
sg145
I-99
sg146
I-99
sg147
I-99
sg148
I-99
sg149
I-99
sg150
I-99
sg151
I-99
sg152
I-99
ssI314
(dp485
g438
I-100
sg166
I-100
sg173
I-100
ssI315
(dp486
g59
I74
sg60
I80
sg61
I89
sg62
I75
sg64
I76
sg65
I77
sg66
I82
sg70
I83
sg68
I86
sg69
I84
sg140
I116
ssI316
(dp487
g143
I122
ssI317
(dp488
S'RPAR'
p489
I332
ssI318
(dp490
S'RPAR'
p491
I333
ssI319
(dp492
g199
I175
sg198
I173
sg145
I124
sg146
I123
sg147
I136
sg148
I125
sg149
I137
sg150
I142
sg151
I133
sg152
I138
ssI320
(dp493
g59
I74
sg60
I80
sg61
I89
sg62
I75
sg64
I76
sg65
I77
sg66
I82
sg70
I83
sg68
I86
sg69
I84
sg140
I116
ssI321
(dp494
g251
I-93
sg145
I-93
sg146
I-93
sg147
I-93
sg148
I-93
sg149
I-93
sg150
I-93
sg151
I-93
sg152
I-93
ssI322
(dp495
g455
I-94
sg227
I-94
sg228
I-94
ssI323
(dp496
g59
I74
sg60
I80
sg61
I89
sg62
I75
sg64
I76
sg65
I77
sg66
I82
sg70
I83
sg68
I86
sg69
I84
sg140
I116
ssI324
(dp497
g3
I-158
sg4
I-158
sg5
I-158
sg6
I-158
sg7
I-158
sg8
I-158
sg9
I-158
sg10
I-158
sg11
I-158
sg12
I-158
sg13
I-158
sg15
I-158
sg16
I-158
sg17
I-158
sg18
I-158
sg19
I-158
sg20
I-158
sg21
I-158
sg22
I-158
sg23
I-158
sg24
I-158
sg25
I-158
sg26
I-158
sg27
I-158
sg28
I-158
sg29
I-158
sg30
I-158
ssI325
(dp498
g402
I-163
sg59
I-163
sg171
I-163
sg61
I-163
sg62
I-163
sg69
I-163
sg167
I-163
sg64
I-163
sg65
I-163
sg66
I-163
sg160
I-163
sg68
I-163
sg60
I-163
sg70
I-163
sg67
I-163
ssI326
(dp499
g402
I-190
sg59
I-190
sg171
I-190
sg61
I-190
sg62
I-190
sg69
I-190
sg167
I-190
sg64
I-190
sg65
I-190
sg66
I-190
sg160
I-190
sg68
I-190
sg60
I-190
sg70
I-190
sg67
I-190
ssI327
(dp500
S'DEDENT'
p501
I340
sg356
I308
ssI328
(dp502
g231
I-148
sg3
I-148
sg4
I-148
sg5
I-148
sg170
I-148
sg145
I-148
sg6
I-148
sg7
I-148
sg148
I-148
sg9
I-148
sg227
I-148
sg11
I-148
sg10
I-148
sg12
I-148
sg8
I-148
sg13
I-148
sg15
I-148
sg228
I-148
sg16
I-148
sg17
I-148
sg151
I-148
sg19
I-148
sg168
I-148
sg20
I-148
sg169
I-148
sg21
I-148
sg147
I-148
sg149
I-148
sg22
I-148
sg23
I-148
sg24
I-148
sg152
I-148
sg25
I-148
sg26
I-148
sg27
I-148
sg146
I-148
sg28
I-148
sg29
I-148
sg30
I-148
sg18
I-148
sg150
I-148
ssI329
(dp503
g438
I-103
sg166
I-103
sg173
I-103
ssI330
(dp504
g438
I-104
sg166
I-104
sg173
I-104
ssI331
(dp505
g241
I341
ssI332
(dp506
g382
I-115
ssI333
(dp507
g382
I-114
ssI334
(dp508
g251
I-107
sg198
I173
sg199
I175
sg152
I138
ssI335
(dp509
g251
I-106
sg145
I124
sg146
I123
sg147
I136
sg148
I125
sg149
I137
sg150
I142
sg151
I133
sg152
I138
ssI336
(dp510
g251
I342
ssI337
(dp511
g249
I-87
sg198
I-127
sg145
I-87
sg199
I-127
sg146
I-87
sg147
I-87
sg148
I-87
sg149
I-87
sg150
I-87
sg151
I-87
sg152
I-87
ssI338
(dp512
g455
I-97
sg227
I-97
sg228
I-97
ssI339
(dp513
g455
I-98
sg227
I-98
sg228
I-98
ssI340
(dp514
g3
I-51
sg4
I-51
sg5
I-51
sg6
I-51
sg7
I-51
sg8
I-51
sg9
I-51
sg10
I-51
sg11
I-51
sg12
I-51
sg13
I-51
sg15
I-51
sg16
I-51
sg17
I-51
sg18
I-51
sg19
I-51
sg20
I-51
sg21
I-51
sg22
I-51
sg23
I-51
sg24
I-51
sg25
I-51
sg26
I-51
sg27
I-51
sg28
I-51
sg29
I-51
sg30
I-51
ssI341
(dp515
g382
I-116
ssI342
(dp516
g226
I-109
sg198
I-109
sg145
I-109
sg199
I-109
sg146
I-109
sS'ELSE'
p517
I343
sg147
I-109
sg148
I-109
sg149
I-109
sg150
I-109
sg151
I-109
sg152
I-109
ssI343
(dp518
S'COLON'
p519
I344
ssI344
(dp520
S'INDENT'
p521
I345
ssI345
(dp522
g199
I175
sg198
I173
sg145
I124
sg146
I123
sg147
I136
sg148
I125
sg149
I137
sg150
I142
sg151
I133
sg152
I138
ssI346
(dp523
g249
I347
ssI347
(dp524
g226
I-110
sg198
I-110
sg145
I-110
sg199
I-110
sg146
I-110
sg147
I-110
sg148
I-110
sg149
I-110
sg150
I-110
sg151
I-110
sg152
I-110
ss.(dp1
I0
(dp2
S'meta_license_stmt'
p3
I4
sS'extra_source_files'
p4
I56
sS'library_declaration'
p5
I6
sS'exec_decl'
p6
I8
sS'library'
p7
I9
sS'meta_author_email_stmt'
p8
I10
sS'meta_url_stmt'
p9
I12
sS'meta_classifiers_stmt'
p10
I13
sS'data_files'
p11
I15
sS'description_decl'
p12
I18
sS'meta_download_url_stmt'
p13
I48
sS'path_declaration'
p14
I20
sS'meta_subento_stmt'
p15
I25
sS'meta_maintainer_stmt'
p16
I27
sS'meta_description_from_file_stmt'
p17
I30
sS'exec'
p18
I35
sS'meta_meta_template_file_stmt'
p19
I36
sS'meta_author_stmt'
p20
I38
sS'stmt'
p21
I39
sS'meta_platforms_stmt'
p22
I41
sS'meta_stmt'
p23
I42
sS'flag'
p24
I43
sS'meta_description_stmt'
p25
I44
sS'meta_hook_file_stmt'
p26
I45
sS'path'
p27
I46
sS'flag_declaration'
p28
I19
sS'data_files_declaration'
p29
I49
sS'stmt_list'
p30
I50
sS'dummy'
p31
I51
sS'meta_keywords_stmt'
p32
I53
sS'meta_config_py_stmt'
p33
I54
sS'meta_version_stmt'
p34
I55
sS'meta_maintainer_email_stmt'
p35
I5
sS'meta_name_stmt'
p36
I57
sS'meta_summary_stmt'
p37
I60
sS'empty'
p38
I62
ssI1
(dp39
sI2
(dp40
sI3
(dp41
sI4
(dp42
sI5
(dp43
sI6
(dp44
sI7
(dp45
sI8
(dp46
sI9
(dp47
sI10
(dp48
sI11
(dp49
sI12
(dp50
sI13
(dp51
sI14
(dp52
sI15
(dp53
sI16
(dp54
sI17
(dp55
sI18
(dp56
S'anytoken_no_comma'
p57
I78
sS'literal_no_space'
p58
I88
sS'single_line_newline'
p59
I90
sS'single_line'
p60
I85
sS'single_line_value'
p61
I87
ssI19
(dp62
sI20
(dp63
sI21
(dp64
sI22
(dp65
sI23
(dp66
sI24
(dp67
sI25
(dp68
sI26
(dp69
sI27
(dp70
sI28
(dp71
sI29
(dp72
sI30
(dp73
sI31
(dp74
sI32
(dp75
sI33
(dp76
sI34
(dp77
sI35
(dp78
sI36
(dp79
sI37
(dp80
sI38
(dp81
sI39
(dp82
sI40
(dp83
sI41
(dp84
sI42
(dp85
sI43
(dp86
sI44
(dp87
sI45
(dp88
sI46
(dp89
sI47
(dp90
sI48
(dp91
sI49
(dp92
sI50
(dp93
g3
I4
sg35
I5
sg5
I6
sg6
I8
sg7
I9
sg8
I10
sg9
I12
sg10
I13
sg11
I15
sg12
I18
sg13
I48
sg14
I20
sg15
I25
sg16
I27
sg17
I30
sg18
I35
sg19
I36
sg20
I38
sg21
I108
sg22
I41
sg23
I42
sg24
I43
sg25
I44
sg26
I45
sg27
I46
sg28
I19
sg29
I49
sg31
I51
sg32
I53
sg33
I54
sg34
I55
sg4
I56
sg36
I57
sg37
I60
ssI51
(dp94
sI52
(dp95
sI53
(dp96
sI54
(dp97
sI55
(dp98
sI56
(dp99
sI57
(dp100
sI58
(dp101
sI59
(dp102
sI60
(dp103
sI61
(dp104
sI62
(dp105
sI63
(dp106
sI64
(dp107
S'anytoken_no_comma'
p108
I115
sS'indented_comma_list'
p109
I119
sS'comma_words'
p110
I114
sS'comma_list'
p111
I118
sS'anyword_comma_list'
p112
I117
ssI65
(dp113
g108
I115
sg109
I119
sg110
I114
sS'comma_list'
p114
I120
sg112
I117
ssI66
(dp115
S'word'
p116
I121
ssI67
(dp117
S'packages_stmt'
p118
I128
sS'build_requires_stmt'
p119
I134
sS'sub_directory_stmt'
p120
I140
sS'conditional_stmt'
p121
I139
sS'extension_decl'
p122
I141
sS'install_requires_stmt'
p123
I129
sS'extension_stmt'
p124
I130
sS'compiled_library_decl'
p125
I135
sS'modules_stmt'
p126
I131
sS'library_stmt'
p127
I126
sS'library_stmts'
p128
I132
sS'compiled_library_stmt'
p129
I127
ssI68
(dp130
g108
I115
sg109
I119
sg110
I114
sS'comma_list'
p131
I143
sg112
I117
ssI69
(dp132
S'function'
p133
I144
sS'exec_stmts'
p134
I145
sS'module'
p135
I146
sS'exec_stmt'
p136
I147
ssI70
(dp137
S'version'
p138
I151
ssI71
(dp139
g57
I78
sS'literal_no_space'
p140
I152
sS'literal'
p141
I153
sS'anyword'
p142
I154
ssI72
(dp143
g57
I78
sg140
I152
sg141
I153
sS'anyword'
p144
I156
ssI73
(dp145
g57
I78
sg58
I88
sg60
I85
sS'single_line_value'
p146
I158
ssI74
(dp147
sI75
(dp148
sI76
(dp149
sI77
(dp150
sI78
(dp151
sI79
(dp152
g57
I78
sg58
I88
sg60
I160
ssI80
(dp153
sI81
(dp154
sI82
(dp155
sI83
(dp156
sI84
(dp157
sI85
(dp158
g57
I78
sg140
I152
sS'literal'
p159
I162
ssI86
(dp160
sI87
(dp161
S'newline'
p162
I164
ssI88
(dp163
sI89
(dp164
sI90
(dp165
sI91
(dp166
sI92
(dp167
S'flag_stmts'
p168
I166
sS'flag_description'
p169
I167
sS'flag_stmt'
p170
I170
sS'flag_default'
p171
I168
ssI93
(dp172
S'path_stmts'
p173
I178
sS'conditional_stmt'
p174
I172
sS'path_stmt'
p175
I174
sS'path_description'
p176
I176
sS'path_default'
p177
I177
ssI94
(dp178
S'word'
p179
I179
ssI95
(dp180
g57
I78
sg140
I152
sg141
I153
sS'anyword'
p181
I180
ssI96
(dp182
g57
I78
sg140
I152
sg141
I153
sS'anyword'
p183
I181
ssI97
(dp184
S'word'
p185
I182
ssI98
(dp186
g57
I78
sg58
I88
sg60
I85
sS'single_line_value'
p187
I183
ssI99
(dp188
g57
I78
sg140
I152
sg141
I153
sS'anyword'
p189
I184
ssI100
(dp190
sI101
(dp191
g108
I115
sg109
I119
sg110
I114
sS'comma_list'
p192
I185
sg112
I117
ssI102
(dp193
g57
I78
sg58
I88
sg60
I85
sS'single_line_value'
p194
I186
ssI103
(dp195
S'library_name'
p196
I188
sS'word'
p197
I187
ssI104
(dp198
g57
I78
sg140
I152
sg141
I153
sS'anyword'
p199
I189
ssI105
(dp200
g57
I78
sg140
I152
sg141
I153
sS'anyword'
p201
I190
ssI106
(dp202
g57
I78
sg140
I152
sg141
I153
sS'anyword'
p203
I191
ssI107
(dp204
S'data_files_stmts'
p205
I192
sS'data_files_target'
p206
I193
sS'data_files_files'
p207
I194
sS'data_files_stmt'
p208
I197
sS'data_files_srcdir'
p209
I198
ssI108
(dp210
sI109
(dp211
g108
I115
sg109
I119
sg110
I114
sS'comma_list'
p212
I200
sg112
I117
ssI110
(dp213
S'classifiers'
p214
I208
sS'indented_classifiers_list'
p215
I201
sS'classifiers_list'
p216
I206
sS'classifier_atom'
p217
I202
sS'classifier'
p218
I203
ssI111
(dp219
sI112
(dp220
sI113
(dp221
g57
I78
sg140
I152
sg141
I153
sS'anyword'
p222
I211
ssI114
(dp223
sI115
(dp224
sI116
(dp225
g108
I115
sS'comma_words'
p226
I213
sg112
I117
ssI117
(dp227
g108
I214
ssI118
(dp228
sI119
(dp229
sI120
(dp230
sI121
(dp231
sI122
(dp232
sI123
(dp233
sI124
(dp234
sI125
(dp235
sI126
(dp236
sI127
(dp237
sI128
(dp238
sI129
(dp239
sI130
(dp240
sI131
(dp241
sI132
(dp242
g118
I128
sg119
I134
sg120
I140
sg121
I139
sg122
I141
sg123
I129
sg124
I130
sg125
I135
sg126
I131
sg127
I219
sg129
I127
ssI133
(dp243
sI134
(dp244
sI135
(dp245
sI136
(dp246
sI137
(dp247
sI138
(dp248
S'test'
p249
I231
sS'flag_var'
p250
I233
sS'os_var'
p251
I226
sS'bool'
p252
I232
ssI139
(dp253
sI140
(dp254
sI141
(dp255
sI142
(dp256
sI143
(dp257
sI144
(dp258
sI145
(dp259
g133
I144
sg136
I237
sg135
I146
ssI146
(dp260
sI147
(dp261
sI148
(dp262
sI149
(dp263
sI150
(dp264
sI151
(dp265
sI152
(dp266
sI153
(dp267
sI154
(dp268
g57
I78
sg140
I152
sg141
I240
ssI155
(dp269
sI156
(dp270
g57
I78
sg140
I152
sg141
I240
ssI157
(dp271
g57
I78
sg58
I88
sg60
I160
ssI158
(dp272
sI159
(dp273
sI160
(dp274
g57
I78
sg140
I152
sg159
I162
ssI161
(dp275
S'multi_stmts'
p276
I242
sS'multi_stmt'
p277
I245
sS'indent'
p278
I247
sS'multi_literal'
p279
I243
sS'newline'
p280
I246
sg140
I152
sg57
I78
sS'literal'
p281
I244
sS'indented_block'
p282
I248
ssI162
(dp283
sI163
(dp284
sI164
(dp285
sI165
(dp286
S'multi_stmts'
p287
I250
sg277
I245
sg278
I247
sg279
I243
sg280
I246
sg140
I152
sg57
I78
sg281
I244
sg282
I248
ssI166
(dp288
g169
I167
sg170
I252
sg171
I168
ssI167
(dp289
sI168
(dp290
sI169
(dp291
sI170
(dp292
sI171
(dp293
sI172
(dp294
sI173
(dp295
sI174
(dp296
sI175
(dp297
sI176
(dp298
sI177
(dp299
sI178
(dp300
g174
I172
sg175
I258
sg176
I176
sg177
I177
ssI179
(dp301
sI180
(dp302
g57
I78
sg140
I152
sg141
I240
ssI181
(dp303
g57
I78
sg140
I152
sg141
I240
ssI182
(dp304
sI183
(dp305
sI184
(dp306
g57
I78
sg140
I152
sg141
I240
ssI185
(dp307
sI186
(dp308
sI187
(dp309
sI188
(dp310
sI189
(dp311
g57
I78
sg140
I152
sg141
I240
ssI190
(dp312
g57
I78
sg140
I152
sg141
I240
ssI191
(dp313
g57
I78
sg140
I152
sg141
I240
ssI192
(dp314
g207
I194
sg206
I193
sg208
I260
sg209
I198
ssI193
(dp315
sI194
(dp316
sI195
(dp317
sI196
(dp318
sI197
(dp319
sI198
(dp320
sI199
(dp321
sI200
(dp322
sI201
(dp323
sI202
(dp324
sI203
(dp325
g217
I264
ssI204
(dp326
S'classifiers'
p327
I265
sg217
I202
sg218
I203
ssI205
(dp328
sI206
(dp329
sI207
(dp330
sI208
(dp331
sI209
(dp332
sI210
(dp333
sI211
(dp334
g57
I78
sg140
I152
sg141
I240
ssI212
(dp335
g108
I115
sg112
I267
ssI213
(dp336
sI214
(dp337
sI215
(dp338
g57
I78
sg140
I152
sg141
I153
sS'anyword'
p339
I271
ssI216
(dp340
S'word'
p341
I272
ssI217
(dp342
g57
I78
sg140
I152
sg141
I153
sS'anyword'
p343
I273
ssI218
(dp344
sI219
(dp345
sI220
(dp346
g108
I115
sg109
I119
sg110
I114
sS'comma_list'
p347
I274
sg112
I117
ssI221
(dp348
S'compiled_library_field_stmts'
p349
I277
sS'compiled_library_field_stmt'
p350
I275
ssI222
(dp351
g108
I115
sg109
I119
sg110
I114
sS'comma_list'
p352
I279
sg112
I117
ssI223
(dp353
g108
I115
sg109
I119
sg110
I114
sS'comma_list'
p354
I280
sg112
I117
ssI224
(dp355
sI225
(dp356
sI226
(dp357
sI227
(dp358
sI228
(dp359
sI229
(dp360
sI230
(dp361
sI231
(dp362
sI232
(dp363
sI233
(dp364
sI234
(dp365
S'extension_field_stmts'
p366
I289
sS'extension_field_stmt'
p367
I287
ssI235
(dp368
g108
I115
sg109
I119
sg110
I114
sS'comma_list'
p369
I291
sg112
I117
ssI236
(dp370
sI237
(dp371
sI238
(dp372
g57
I78
sg140
I152
sg141
I153
sS'anyword'
p373
I292
ssI239
(dp374
g57
I78
sg140
I152
sg141
I153
sS'anyword'
p375
I293
ssI240
(dp376
sI241
(dp377
S'multi_stmts'
p378
I294
sg277
I245
sg278
I247
sg279
I243
sg280
I246
sg140
I152
sg57
I78
sg281
I244
sg282
I248
ssI242
(dp379
sI243
(dp380
sI244
(dp381
sI245
(dp382
S'multi_stmts'
p383
I296
sg277
I245
sg278
I247
sg279
I243
sg280
I246
sg140
I152
sg57
I78
sg281
I244
sg282
I248
ssI246
(dp384
sI247
(dp385
S'multi_stmts'
p386
I297
sg277
I245
sg278
I247
sg279
I243
sg280
I246
sS'indented_block_value'
p387
I298
sg57
I78
sg140
I152
sg281
I244
sg282
I248
ssI248
(dp388
sI249
(dp389
sI250
(dp390
sI251
(dp391
sI252
(dp392
sI253
(dp393
g57
I78
sg58
I88
sg60
I85
sS'single_line_value'
p394
I300
ssI254
(dp395
g57
I78
sg140
I152
sg141
I153
sS'anyword'
p396
I301
ssI255
(dp397
g57
I78
sg58
I88
sg60
I85
sS'single_line_value'
p398
I302
ssI256
(dp399
g57
I78
sg140
I152
sg141
I153
sS'anyword'
p400
I303
ssI257
(dp401
sI258
(dp402
sI259
(dp403
sI260
(dp404
sI261
(dp405
g108
I115
sg109
I119
sg110
I114
sS'comma_list'
p406
I304
sg112
I117
ssI262
(dp407
g57
I78
sg140
I152
sg141
I153
sS'anyword'
p408
I305
ssI263
(dp409
g57
I78
sg140
I152
sg141
I153
sS'anyword'
p410
I306
ssI264
(dp411
sI265
(dp412
sI266
(dp413
g218
I310
sg217
I202
ssI267
(dp414
g108
I214
ssI268
(dp415
g108
I115
sS'comma_words'
p416
I311
sg112
I117
ssI269
(dp417
sI270
(dp418
g108
I115
sg112
I267
ssI271
(dp419
g57
I78
sg140
I152
sg141
I240
ssI272
(dp420
sI273
(dp421
g57
I78
sg140
I152
sg141
I240
ssI274
(dp422
sI275
(dp423
sI276
(dp424
sI277
(dp425
g350
I314
ssI278
(dp426
sI279
(dp427
sI280
(dp428
sI281
(dp429
sI282
(dp430
sI283
(dp431
sI284
(dp432
S'word'
p433
I317
ssI285
(dp434
S'word'
p435
I318
ssI286
(dp436
sI287
(dp437
sI288
(dp438
sI289
(dp439
g367
I322
ssI290
(dp440
sI291
(dp441
sI292
(dp442
g57
I78
sg140
I152
sg141
I240
ssI293
(dp443
g57
I78
sg140
I152
sg141
I240
ssI294
(dp444
sI295
(dp445
sI296
(dp446
sI297
(dp447
S'dedent'
p448
I325
ssI298
(dp449
sI299
(dp450
sI300
(dp451
sI301
(dp452
g57
I78
sg140
I152
sg141
I240
ssI302
(dp453
sI303
(dp454
g57
I78
sg140
I152
sg141
I240
ssI304
(dp455
sI305
(dp456
g57
I78
sg140
I152
sg141
I240
ssI306
(dp457
g57
I78
sg140
I152
sg141
I240
ssI307
(dp458
sI308
(dp459
g218
I310
sg217
I202
ssI309
(dp460
S'classifiers'
p461
I327
sg217
I202
sg218
I203
ssI310
(dp462
g217
I264
ssI311
(dp463
sI312
(dp464
g108
I115
sg109
I119
sg110
I114
sS'comma_list'
p465
I329
sg112
I117
ssI313
(dp466
sI314
(dp467
sI315
(dp468
g108
I115
sg109
I119
sg110
I114
sS'comma_list'
p469
I330
sg112
I117
ssI316
(dp470
S'word'
p471
I331
ssI317
(dp472
sI318
(dp473
sI319
(dp474
g118
I128
sg119
I134
sg120
I140
sg121
I337
sg122
I141
sg175
I174
sg123
I129
sg124
I130
sg125
I135
sS'in_conditional_stmts'
p475
I336
sg176
I176
sg126
I131
sg177
I177
sg127
I126
sS'path_stmts'
p476
I334
sS'library_stmts'
p477
I335
sg129
I127
ssI320
(dp478
g108
I115
sg109
I119
sg110
I114
sS'comma_list'
p479
I338
sg112
I117
ssI321
(dp480
sI322
(dp481
sI323
(dp482
g108
I115
sg109
I119
sg110
I114
sS'comma_list'
p483
I339
sg112
I117
ssI324
(dp484
sI325
(dp485
sI326
(dp486
sI327
(dp487
sI328
(dp488
sI329
(dp489
sI330
(dp490
sI331
(dp491
sI332
(dp492
sI333
(dp493
sI334
(dp494
g174
I172
sg175
I258
sg176
I176
sg177
I177
ssI335
(dp495
g118
I128
sg119
I134
sg120
I140
sg121
I139
sg122
I141
sg123
I129
sg124
I130
sg125
I135
sg126
I131
sg127
I219
sg129
I127
ssI336
(dp496
sI337
(dp497
sI338
(dp498
sI339
(dp499
sI340
(dp500
sI341
(dp501
sI342
(dp502
sI343
(dp503
sI344
(dp504
sI345
(dp505
g118
I128
sg119
I134
sg120
I140
sg121
I337
sg122
I141
sg175
I174
sg123
I129
sg124
I130
sg125
I135
sS'in_conditional_stmts'
p506
I346
sg176
I176
sg126
I131
sg177
I177
sg127
I126
sg476
I334
sg477
I335
sg129
I127
ssI346
(dp507
sI347
(dp508
s.(lp1
(S"S' -> stmt_list"
p2
S"S'"
p3
I1
NNNtp4
a(S'stmt_list -> stmt_list stmt'
p5
S'stmt_list'
p6
I2
S'p_stmt_list'
p7
S'/Users/david/src/projects/bento/bento-git/bento/core/parser/parser.py'
p8
I120
tp9
a(S'stmt_list -> stmt'
p10
S'stmt_list'
p11
I1
S'p_stmt_list_term'
p12
S'/Users/david/src/projects/bento/bento-git/bento/core/parser/parser.py'
p13
I126
tp14
a(S'stmt_list -> empty'
p15
S'stmt_list'
p16
I1
S'p_stmt_list_empty'
p17
S'/Users/david/src/projects/bento/bento-git/bento/core/parser/parser.py'
p18
I130
tp19
a(S'stmt_list -> NEWLINE'
p20
S'stmt_list'
p21
I1
S'p_stmt_list_newline'
p22
S'/Users/david/src/projects/bento/bento-git/bento/core/parser/parser.py'
p23
I134
tp24
a(S'stmt -> meta_stmt'
p25
S'stmt'
p26
I1
S'p_stmt'
p27
S'/Users/david/src/projects/bento/bento-git/bento/core/parser/parser.py'
p28
I138
tp29
a(S'stmt -> library'
p30
g26
I1
g27
g28
I139
tp31
a(S'stmt -> exec'
p32
g26
I1
g27
g28
I140
tp33
a(S'stmt -> path'
p34
g26
I1
g27
g28
I141
tp35
a(S'stmt -> flag'
p36
g26
I1
g27
g28
I142
tp37
a(S'stmt -> extra_source_files'
p38
g26
I1
g27
g28
I143
tp39
a(S'stmt -> data_files'
p40
g26
I1
g27
g28
I144
tp41
a(S'stmt -> dummy'
p42
g26
I1
g27
g28
I145
tp43
a(S'empty -> <empty>'
p44
S'empty'
p45
I0
S'p_empty'
p46
S'/Users/david/src/projects/bento/bento-git/bento/core/parser/parser.py'
p47
I150
tp48
a(S'meta_stmt -> meta_name_stmt'
p49
S'meta_stmt'
p50
I1
S'p_meta_stmt'
p51
S'/Users/david/src/projects/bento/bento-git/bento/core/parser/parser.py'
p52
I157
tp53
a(S'meta_stmt -> meta_summary_stmt'
p54
g50
I1
g51
g52
I158
tp55
a(S'meta_stmt -> meta_description_stmt'
p56
g50
I1
g51
g52
I159
tp57
a(S'meta_stmt -> meta_description_from_file_stmt'
p58
g50
I1
g51
g52
I160
tp59
a(S'meta_stmt -> meta_version_stmt'
p60
g50
I1
g51
g52
I161
tp61
a(S'meta_stmt -> meta_url_stmt'
p62
g50
I1
g51
g52
I162
tp63
a(S'meta_stmt -> meta_download_url_stmt'
p64
g50
I1
g51
g52
I163
tp65
a(S'meta_stmt -> meta_author_stmt'
p66
g50
I1
g51
g52
I164
tp67
a(S'meta_stmt -> meta_author_email_stmt'
p68
g50
I1
g51
g52
I165
tp69
a(S'meta_stmt -> meta_maintainer_stmt'
p70
g50
I1
g51
g52
I166
tp71
a(S'meta_stmt -> meta_maintainer_email_stmt'
p72
g50
I1
g51
g52
I167
tp73
a(S'meta_stmt -> meta_license_stmt'
p74
g50
I1
g51
g52
I168
tp75
a(S'meta_stmt -> meta_platforms_stmt'
p76
g50
I1
g51
g52
I169
tp77
a(S'meta_stmt -> meta_keywords_stmt'
p78
g50
I1
g51
g52
I170
tp79
a(S'meta_stmt -> meta_classifiers_stmt'
p80
g50
I1
g51
g52
I171
tp81
a(S'meta_stmt -> meta_hook_file_stmt'
p82
g50
I1
g51
g52
I172
tp83
a(S'meta_stmt -> meta_config_py_stmt'
p84
g50
I1
g51
g52
I173
tp85
a(S'meta_stmt -> meta_meta_template_file_stmt'
p86
g50
I1
g51
g52
I174
tp87
a(S'meta_stmt -> meta_subento_stmt'
p88
g50
I1
g51
g52
I175
tp89
a(S'meta_name_stmt -> NAME_ID COLON WORD'
p90
S'meta_name_stmt'
p91
I3
S'p_meta_name_stmt'
p92
S'/Users/david/src/projects/bento/bento-git/bento/core/parser/parser.py'
p93
I180
tp94
a(S'meta_summary_stmt -> SUMMARY_ID COLON single_line_value'
p95
S'meta_summary_stmt'
p96
I3
S'p_meta_summary_stmt'
p97
S'/Users/david/src/projects/bento/bento-git/bento/core/parser/parser.py'
p98
I185
tp99
a(S'meta_url_stmt -> URL_ID COLON anyword'
p100
S'meta_url_stmt'
p101
I3
S'p_meta_url_stmt'
p102
S'/Users/david/src/projects/bento/bento-git/bento/core/parser/parser.py'
p103
I190
tp104
a(S'meta_download_url_stmt -> DOWNLOAD_URL_ID COLON anyword'
p105
S'meta_download_url_stmt'
p106
I3
S'p_meta_download_url_stmt'
p107
S'/Users/david/src/projects/bento/bento-git/bento/core/parser/parser.py'
p108
I195
tp109
a(S'meta_author_stmt -> AUTHOR_ID COLON single_line_value'
p110
S'meta_author_stmt'
p111
I3
S'p_meta_author_stmt'
p112
S'/Users/david/src/projects/bento/bento-git/bento/core/parser/parser.py'
p113
I200
tp114
a(S'meta_author_email_stmt -> AUTHOR_EMAIL_ID COLON anyword'
p115
S'meta_author_email_stmt'
p116
I3
S'p_meta_author_email_stmt'
p117
S'/Users/david/src/projects/bento/bento-git/bento/core/parser/parser.py'
p118
I205
tp119
a(S'meta_maintainer_stmt -> MAINTAINER_ID COLON single_line_value'
p120
S'meta_maintainer_stmt'
p121
I3
S'p_meta_maintainer_stmt'
p122
S'/Users/david/src/projects/bento/bento-git/bento/core/parser/parser.py'
p123
I210
tp124
a(S'meta_maintainer_email_stmt -> MAINTAINER_EMAIL_ID COLON anyword'
p125
S'meta_maintainer_email_stmt'
p126
I3
S'p_meta_maintainer_email_stmt'
p127
S'/Users/david/src/projects/bento/bento-git/bento/core/parser/parser.py'
p128
I215
tp129
a(S'meta_license_stmt -> LICENSE_ID COLON anyword'
p130
S'meta_license_stmt'
p131
I3
S'p_meta_license_stmt'
p132
S'/Users/david/src/projects/bento/bento-git/bento/core/parser/parser.py'
p133
I220
tp134
a(S'meta_description_from_file_stmt -> DESCRIPTION_FROM_FILE_ID COLON anyword'
p135
S'meta_description_from_file_stmt'
p136
I3
S'p_meta_description_from_file_stmt'
p137
S'/Users/david/src/projects/bento/bento-git/bento/core/parser/parser.py'
p138
I225
tp139
a(S'meta_platforms_stmt -> PLATFORMS_ID COLON comma_list'
p140
S'meta_platforms_stmt'
p141
I3
S'p_meta_platforms_stmt'
p142
S'/Users/david/src/projects/bento/bento-git/bento/core/parser/parser.py'
p143
I229
tp144
a(S'meta_keywords_stmt -> KEYWORDS_ID COLON comma_list'
p145
S'meta_keywords_stmt'
p146
I3
S'p_meta_keywords_stmt'
p147
S'/Users/david/src/projects/bento/bento-git/bento/core/parser/parser.py'
p148
I234
tp149
a(S'meta_version_stmt -> VERSION_ID COLON version'
p150
S'meta_version_stmt'
p151
I3
S'p_meta_version_stmt'
p152
S'/Users/david/src/projects/bento/bento-git/bento/core/parser/parser.py'
p153
I239
tp154
a(S'meta_config_py_stmt -> CONFIG_PY_ID COLON word'
p155
S'meta_config_py_stmt'
p156
I3
S'p_meta_config_py_stmt'
p157
S'/Users/david/src/projects/bento/bento-git/bento/core/parser/parser.py'
p158
I244
tp159
a(S'meta_meta_template_file_stmt -> META_TEMPLATE_FILE_ID COLON word'
p160
S'meta_meta_template_file_stmt'
p161
I3
S'p_meta_meta_template_file_stmt'
p162
S'/Users/david/src/projects/bento/bento-git/bento/core/parser/parser.py'
p163
I249
tp164
a(S'meta_classifiers_stmt -> CLASSIFIERS_ID COLON classifiers_list'
p165
S'meta_classifiers_stmt'
p166
I3
S'p_meta_classifiers_stmt'
p167
S'/Users/david/src/projects/bento/bento-git/bento/core/parser/parser.py'
p168
I254
tp169
a(S'classifiers_list -> indented_classifiers_list'
p170
S'classifiers_list'
p171
I1
S'p_classifiers_list'
p172
S'/Users/david/src/projects/bento/bento-git/bento/core/parser/parser.py'
p173
I258
tp174
a(S'classifiers_list -> classifiers'
p175
S'classifiers_list'
p176
I1
S'p_classifiers_list_term'
p177
S'/Users/david/src/projects/bento/bento-git/bento/core/parser/parser.py'
p178
I263
tp179
a(S'indented_classifiers_list -> classifiers COMMA INDENT classifiers DEDENT'
p180
S'indented_classifiers_list'
p181
I5
S'p_indented_comma_list1'
p182
S'/Users/david/src/projects/bento/bento-git/bento/core/parser/parser.py'
p183
I268
tp184
a(S'indented_classifiers_list -> INDENT classifiers DEDENT'
p185
S'indented_classifiers_list'
p186
I3
S'p_indented_comma_list2'
p187
S'/Users/david/src/projects/bento/bento-git/bento/core/parser/parser.py'
p188
I274
tp189
a(S'classifiers -> classifiers COMMA classifier'
p190
S'classifiers'
p191
I3
S'p_classifiers'
p192
S'/Users/david/src/projects/bento/bento-git/bento/core/parser/parser.py'
p193
I279
tp194
a(S'classifiers -> classifier'
p195
S'classifiers'
p196
I1
S'p_classifiers_term'
p197
S'/Users/david/src/projects/bento/bento-git/bento/core/parser/parser.py'
p198
I284
tp199
a(S'classifier -> classifier classifier_atom'
p200
S'classifier'
p201
I2
S'p_classifier'
p202
S'/Users/david/src/projects/bento/bento-git/bento/core/parser/parser.py'
p203
I288
tp204
a(S'classifier -> classifier_atom'
p205
S'classifier'
p206
I1
S'p_classifier_term'
p207
S'/Users/david/src/projects/bento/bento-git/bento/core/parser/parser.py'
p208
I292
tp209
a(S'classifier_atom -> WORD'
p210
S'classifier_atom'
p211
I1
S'p_classifier_atom'
p212
S'/Users/david/src/projects/bento/bento-git/bento/core/parser/parser.py'
p213
I296
tp214
a(S'classifier_atom -> WS'
p215
g211
I1
g212
g213
I297
tp216
a(S'classifier_atom -> DOUBLE_COLON'
p217
g211
I1
g212
g213
I298
tp218
a(S'dummy -> AND BACKSLASH'
p219
S'dummy'
p220
I2
S'p_dummy'
p221
S'/Users/david/src/projects/bento/bento-git/bento/core/parser/parser.py'
p222
I303
tp223
a(S'meta_subento_stmt -> SUBENTO_ID COLON comma_list'
p224
S'meta_subento_stmt'
p225
I3
S'p_meta_subento_stmt'
p226
S'/Users/david/src/projects/bento/bento-git/bento/core/parser/parser.py'
p227
I307
tp228
a(S'meta_hook_file_stmt -> HOOK_FILE_ID COLON comma_list'
p229
S'meta_hook_file_stmt'
p230
I3
S'p_meta_hook_file_stmt'
p231
S'/Users/david/src/projects/bento/bento-git/bento/core/parser/parser.py'
p232
I311
tp233
a(S'extra_source_files -> EXTRA_SOURCE_FILES_ID COLON comma_list'
p234
S'extra_source_files'
p235
I3
S'p_extra_source_files'
p236
S'/Users/david/src/projects/bento/bento-git/bento/core/parser/parser.py'
p237
I319
tp238
a(S'data_files -> data_files_declaration INDENT data_files_stmts DEDENT'
p239
S'data_files'
p240
I4
S'p_data_files'
p241
S'/Users/david/src/projects/bento/bento-git/bento/core/parser/parser.py'
p242
I323
tp243
a(S'data_files_declaration -> DATAFILES_ID COLON word'
p244
S'data_files_declaration'
p245
I3
S'p_data_files_declaration'
p246
S'/Users/david/src/projects/bento/bento-git/bento/core/parser/parser.py'
p247
I329
tp248
a(S'data_files_stmts -> data_files_stmts data_files_stmt'
p249
S'data_files_stmts'
p250
I2
S'p_data_files_stmts'
p251
S'/Users/david/src/projects/bento/bento-git/bento/core/parser/parser.py'
p252
I333
tp253
a(S'data_files_stmts -> data_files_stmt'
p254
S'data_files_stmts'
p255
I1
S'p_data_files_stmts_term'
p256
S'/Users/david/src/projects/bento/bento-git/bento/core/parser/parser.py'
p257
I337
tp258
a(S'data_files_stmt -> data_files_target'
p259
S'data_files_stmt'
p260
I1
S'p_data_files_stmt'
p261
S'/Users/david/src/projects/bento/bento-git/bento/core/parser/parser.py'
p262
I341
tp263
a(S'data_files_stmt -> data_files_files'
p264
g260
I1
g261
g262
I342
tp265
a(S'data_files_stmt -> data_files_srcdir'
p266
g260
I1
g261
g262
I343
tp267
a(S'data_files_target -> TARGET_ID COLON anyword'
p268
S'data_files_target'
p269
I3
S'p_data_files_target'
p270
S'/Users/david/src/projects/bento/bento-git/bento/core/parser/parser.py'
p271
I348
tp272
a(S'data_files_srcdir -> SRCDIR_ID COLON anyword'
p273
S'data_files_srcdir'
p274
I3
S'p_data_files_srcdir'
p275
S'/Users/david/src/projects/bento/bento-git/bento/core/parser/parser.py'
p276
I352
tp277
a(S'data_files_files -> FILES_ID COLON comma_list'
p278
S'data_files_files'
p279
I3
S'p_data_files_files'
p280
S'/Users/david/src/projects/bento/bento-git/bento/core/parser/parser.py'
p281
I356
tp282
a(S'library -> library_declaration INDENT library_stmts DEDENT'
p283
S'library'
p284
I4
S'p_library'
p285
S'/Users/david/src/projects/bento/bento-git/bento/core/parser/parser.py'
p286
I363
tp287
a(S'library -> library_declaration'
p288
S'library'
p289
I1
S'p_library_decl_only'
p290
S'/Users/david/src/projects/bento/bento-git/bento/core/parser/parser.py'
p291
I369
tp292
a(S'library_declaration -> LIBRARY_ID COLON library_name'
p293
S'library_declaration'
p294
I3
S'p_library_declaration'
p295
S'/Users/david/src/projects/bento/bento-git/bento/core/parser/parser.py'
p296
I374
tp297
a(S'library_name -> word'
p298
S'library_name'
p299
I1
S'p_library_name'
p300
S'/Users/david/src/projects/bento/bento-git/bento/core/parser/parser.py'
p301
I378
tp302
a(S'library_name -> <empty>'
p303
g299
I0
g300
g301
I379
tp304
a(S'library_stmts -> library_stmts library_stmt'
p305
S'library_stmts'
p306
I2
S'p_library_stmts'
p307
S'/Users/david/src/projects/bento/bento-git/bento/core/parser/parser.py'
p308
I387
tp309
a(S'library_stmts -> library_stmt'
p310
S'library_stmts'
p311
I1
S'p_library_stmts_term'
p312
S'/Users/david/src/projects/bento/bento-git/bento/core/parser/parser.py'
p313
I394
tp314
a(S'library_stmt -> modules_stmt'
p315
S'library_stmt'
p316
I1
S'p_library_stmt'
p317
S'/Users/david/src/projects/bento/bento-git/bento/core/parser/parser.py'
p318
I399
tp319
a(S'library_stmt -> packages_stmt'
p320
g316
I1
g317
g318
I400
tp321
a(S'library_stmt -> extension_stmt'
p322
g316
I1
g317
g318
I401
tp323
a(S'library_stmt -> compiled_library_stmt'
p324
g316
I1
g317
g318
I402
tp325
a(S'library_stmt -> build_requires_stmt'
p326
g316
I1
g317
g318
I403
tp327
a(S'library_stmt -> install_requires_stmt'
p328
g316
I1
g317
g318
I404
tp329
a(S'library_stmt -> conditional_stmt'
p330
g316
I1
g317
g318
I405
tp331
a(S'library_stmt -> sub_directory_stmt'
p332
g316
I1
g317
g318
I406
tp333
a(S'packages_stmt -> PACKAGES_ID COLON comma_list'
p334
S'packages_stmt'
p335
I3
S'p_packages_stmt'
p336
S'/Users/david/src/projects/bento/bento-git/bento/core/parser/parser.py'
p337
I411
tp338
a(S'modules_stmt -> MODULES_ID COLON comma_list'
p339
S'modules_stmt'
p340
I3
S'p_modules_stmt'
p341
S'/Users/david/src/projects/bento/bento-git/bento/core/parser/parser.py'
p342
I415
tp343
a(S'build_requires_stmt -> BUILD_REQUIRES_ID COLON comma_list'
p344
S'build_requires_stmt'
p345
I3
S'p_build_requires_stmt'
p346
S'/Users/david/src/projects/bento/bento-git/bento/core/parser/parser.py'
p347
I419
tp348
a(S'install_requires_stmt -> INSTALL_REQUIRES_ID COLON comma_list'
p349
S'install_requires_stmt'
p350
I3
S'p_install_requires_stmt'
p351
S'/Users/david/src/projects/bento/bento-git/bento/core/parser/parser.py'
p352
I423
tp353
a(S'extension_stmt -> extension_decl INDENT extension_field_stmts DEDENT'
p354
S'extension_stmt'
p355
I4
S'p_extension_stmt_content'
p356
S'/Users/david/src/projects/bento/bento-git/bento/core/parser/parser.py'
p357
I427
tp358
a(S'extension_field_stmts -> extension_field_stmts extension_field_stmt'
p359
S'extension_field_stmts'
p360
I2
S'p_extension_field_stmts'
p361
S'/Users/david/src/projects/bento/bento-git/bento/core/parser/parser.py'
p362
I432
tp363
a(S'extension_field_stmts -> extension_field_stmt'
p364
S'extension_field_stmts'
p365
I1
S'p_extension_field_stmts_term'
p366
S'/Users/david/src/projects/bento/bento-git/bento/core/parser/parser.py'
p367
I438
tp368
a(S'extension_decl -> EXTENSION_ID COLON anyword'
p369
S'extension_decl'
p370
I3
S'p_extension_decl'
p371
S'/Users/david/src/projects/bento/bento-git/bento/core/parser/parser.py'
p372
I442
tp373
a(S'extension_field_stmt -> SOURCES_ID COLON comma_list'
p374
S'extension_field_stmt'
p375
I3
S'p_extension_sources'
p376
S'/Users/david/src/projects/bento/bento-git/bento/core/parser/parser.py'
p377
I446
tp378
a(S'extension_field_stmt -> INCLUDE_DIRS_ID COLON comma_list'
p379
S'extension_field_stmt'
p380
I3
S'p_extension_include_dirs'
p381
S'/Users/david/src/projects/bento/bento-git/bento/core/parser/parser.py'
p382
I450
tp383
a(S'compiled_library_stmt -> compiled_library_decl INDENT compiled_library_field_stmts DEDENT'
p384
S'compiled_library_stmt'
p385
I4
S'p_compiled_library_stmt_content'
p386
S'/Users/david/src/projects/bento/bento-git/bento/core/parser/parser.py'
p387
I454
tp388
a(S'compiled_library_field_stmts -> compiled_library_field_stmts compiled_library_field_stmt'
p389
S'compiled_library_field_stmts'
p390
I2
S'p_compiled_library_field_stmts'
p391
S'/Users/david/src/projects/bento/bento-git/bento/core/parser/parser.py'
p392
I459
tp393
a(S'compiled_library_field_stmts -> compiled_library_field_stmt'
p394
S'compiled_library_field_stmts'
p395
I1
S'p_compiled_library_field_stmts_term'
p396
S'/Users/david/src/projects/bento/bento-git/bento/core/parser/parser.py'
p397
I465
tp398
a(S'compiled_library_decl -> COMPILED_LIBRARY_ID COLON anyword'
p399
S'compiled_library_decl'
p400
I3
S'p_compiled_library_decl'
p401
S'/Users/david/src/projects/bento/bento-git/bento/core/parser/parser.py'
p402
I469
tp403
a(S'compiled_library_field_stmt -> SOURCES_ID COLON comma_list'
p404
S'compiled_library_field_stmt'
p405
I3
S'p_compiled_library_sources'
p406
S'/Users/david/src/projects/bento/bento-git/bento/core/parser/parser.py'
p407
I473
tp408
a(S'compiled_library_field_stmt -> INCLUDE_DIRS_ID COLON comma_list'
p409
S'compiled_library_field_stmt'
p410
I3
S'p_compiled_library_include_dirs'
p411
S'/Users/david/src/projects/bento/bento-git/bento/core/parser/parser.py'
p412
I477
tp413
a(S'sub_directory_stmt -> SUB_DIRECTORY_ID COLON word'
p414
S'sub_directory_stmt'
p415
I3
S'p_sub_directory_stmt'
p416
S'/Users/david/src/projects/bento/bento-git/bento/core/parser/parser.py'
p417
I481
tp418
a(S'in_conditional_stmts -> library_stmts'
p419
S'in_conditional_stmts'
p420
I1
S'p_in_conditional_stmts'
p421
S'/Users/david/src/projects/bento/bento-git/bento/core/parser/parser.py'
p422
I488
tp423
a(S'in_conditional_stmts -> path_stmts'
p424
g420
I1
g421
g422
I489
tp425
a(S'conditional_stmt -> IF error'
p426
S'conditional_stmt'
p427
I2
S'p_conditional_if_error'
p428
S'/Users/david/src/projects/bento/bento-git/bento/core/parser/parser.py'
p429
I494
tp430
a(S'conditional_stmt -> IF test COLON INDENT in_conditional_stmts DEDENT'
p431
S'conditional_stmt'
p432
I6
S'p_conditional_if_only'
p433
S'/Users/david/src/projects/bento/bento-git/bento/core/parser/parser.py'
p434
I498
tp435
a(S'conditional_stmt -> IF test COLON INDENT in_conditional_stmts DEDENT ELSE COLON INDENT in_conditional_stmts DEDENT'
p436
S'conditional_stmt'
p437
I11
S'p_conditional_if_else'
p438
S'/Users/david/src/projects/bento/bento-git/bento/core/parser/parser.py'
p439
I502
tp440
a(S'test -> bool'
p441
S'test'
p442
I1
S'p_test'
p443
S'/Users/david/src/projects/bento/bento-git/bento/core/parser/parser.py'
p444
I508
tp445
a(S'test -> os_var'
p446
g442
I1
g443
g444
I509
tp447
a(S'test -> flag_var'
p448
g442
I1
g443
g444
I510
tp449
a(S'os_var -> OS_OP LPAR word RPAR'
p450
S'os_var'
p451
I4
S'p_os_var'
p452
S'/Users/david/src/projects/bento/bento-git/bento/core/parser/parser.py'
p453
I514
tp454
a(S'flag_var -> FLAG_OP LPAR word RPAR'
p455
S'flag_var'
p456
I4
S'p_flag_var'
p457
S'/Users/david/src/projects/bento/bento-git/bento/core/parser/parser.py'
p458
I518
tp459
a(S'flag_var -> NOT_OP FLAG_OP LPAR word RPAR'
p460
S'flag_var'
p461
I5
S'p_not_flag_var'
p462
S'/Users/david/src/projects/bento/bento-git/bento/core/parser/parser.py'
p463
I522
tp464
a(S'bool -> TRUE'
p465
S'bool'
p466
I1
S'p_cond_expr_true'
p467
S'/Users/david/src/projects/bento/bento-git/bento/core/parser/parser.py'
p468
I526
tp469
a(S'bool -> NOT_OP FALSE'
p470
S'bool'
p471
I2
S'p_cond_expr_true_not'
p472
S'/Users/david/src/projects/bento/bento-git/bento/core/parser/parser.py'
p473
I530
tp474
a(S'bool -> FALSE'
p475
S'bool'
p476
I1
S'p_cond_expr_false'
p477
S'/Users/david/src/projects/bento/bento-git/bento/core/parser/parser.py'
p478
I534
tp479
a(S'bool -> NOT_OP TRUE'
p480
S'bool'
p481
I2
S'p_cond_expr_false_not'
p482
S'/Users/david/src/projects/bento/bento-git/bento/core/parser/parser.py'
p483
I538
tp484
a(S'path -> path_declaration INDENT path_stmts DEDENT'
p485
S'path'
p486
I4
S'p_path'
p487
S'/Users/david/src/projects/bento/bento-git/bento/core/parser/parser.py'
p488
I545
tp489
a(S'path_declaration -> PATH_ID COLON anyword'
p490
S'path_declaration'
p491
I3
S'p_path_declaration'
p492
S'/Users/david/src/projects/bento/bento-git/bento/core/parser/parser.py'
p493
I549
tp494
a(S'path_stmts -> path_stmts path_stmt'
p495
S'path_stmts'
p496
I2
S'p_path_stmts'
p497
S'/Users/david/src/projects/bento/bento-git/bento/core/parser/parser.py'
p498
I553
tp499
a(S'path_stmts -> path_stmt'
p500
S'path_stmts'
p501
I1
S'p_path_stmts_term'
p502
S'/Users/david/src/projects/bento/bento-git/bento/core/parser/parser.py'
p503
I557
tp504
a(S'path_stmt -> path_description'
p505
S'path_stmt'
p506
I1
S'p_path_stmt'
p507
S'/Users/david/src/projects/bento/bento-git/bento/core/parser/parser.py'
p508
I561
tp509
a(S'path_stmt -> path_default'
p510
g506
I1
g507
g508
I562
tp511
a(S'path_stmt -> conditional_stmt'
p512
g506
I1
g507
g508
I563
tp513
a(S'path_description -> DESCRIPTION_ID COLON single_line_value'
p514
S'path_description'
p515
I3
S'p_path_description'
p516
S'/Users/david/src/projects/bento/bento-git/bento/core/parser/parser.py'
p517
I567
tp518
a(S'path_default -> DEFAULT_ID COLON anyword'
p519
S'path_default'
p520
I3
S'p_path_default'
p521
S'/Users/david/src/projects/bento/bento-git/bento/core/parser/parser.py'
p522
I572
tp523
a(S'flag -> flag_declaration INDENT flag_stmts DEDENT'
p524
S'flag'
p525
I4
S'p_flag'
p526
S'/Users/david/src/projects/bento/bento-git/bento/core/parser/parser.py'
p527
I579
tp528
a(S'flag_declaration -> FLAG_ID COLON anyword'
p529
S'flag_declaration'
p530
I3
S'p_flag_declaration'
p531
S'/Users/david/src/projects/bento/bento-git/bento/core/parser/parser.py'
p532
I583
tp533
a(S'flag_stmts -> flag_stmts flag_stmt'
p534
S'flag_stmts'
p535
I2
S'p_flag_stmts'
p536
S'/Users/david/src/projects/bento/bento-git/bento/core/parser/parser.py'
p537
I587
tp538
a(S'flag_stmts -> flag_stmt'
p539
S'flag_stmts'
p540
I1
S'p_flag_stmts_term'
p541
S'/Users/david/src/projects/bento/bento-git/bento/core/parser/parser.py'
p542
I591
tp543
a(S'flag_stmt -> flag_description'
p544
S'flag_stmt'
p545
I1
S'p_flag_stmt'
p546
S'/Users/david/src/projects/bento/bento-git/bento/core/parser/parser.py'
p547
I595
tp548
a(S'flag_stmt -> flag_default'
p549
g545
I1
g546
g547
I596
tp550
a(S'flag_description -> DESCRIPTION_ID COLON single_line_value'
p551
S'flag_description'
p552
I3
S'p_flag_description'
p553
S'/Users/david/src/projects/bento/bento-git/bento/core/parser/parser.py'
p554
I600
tp555
a(S'flag_default -> DEFAULT_ID COLON anyword'
p556
S'flag_default'
p557
I3
S'p_flag_default'
p558
S'/Users/david/src/projects/bento/bento-git/bento/core/parser/parser.py'
p559
I605
tp560
a(S'exec -> exec_decl INDENT exec_stmts DEDENT'
p561
S'exec'
p562
I4
S'p_executable'
p563
S'/Users/david/src/projects/bento/bento-git/bento/core/parser/parser.py'
p564
I612
tp565
a(S'exec_decl -> EXECUTABLE_ID COLON anyword'
p566
S'exec_decl'
p567
I3
S'p_exec_declaration'
p568
S'/Users/david/src/projects/bento/bento-git/bento/core/parser/parser.py'
p569
I616
tp570
a(S'exec_stmts -> exec_stmts exec_stmt'
p571
S'exec_stmts'
p572
I2
S'p_exec_stmts'
p573
S'/Users/david/src/projects/bento/bento-git/bento/core/parser/parser.py'
p574
I620
tp575
a(S'exec_stmts -> exec_stmt'
p576
S'exec_stmts'
p577
I1
S'p_exec_stmts_term'
p578
S'/Users/david/src/projects/bento/bento-git/bento/core/parser/parser.py'
p579
I624
tp580
a(S'exec_stmt -> function'
p581
S'exec_stmt'
p582
I1
S'p_exec_stmt'
p583
S'/Users/david/src/projects/bento/bento-git/bento/core/parser/parser.py'
p584
I628
tp585
a(S'exec_stmt -> module'
p586
g582
I1
g583
g584
I629
tp587
a(S'module -> MODULE_ID COLON anyword'
p588
S'module'
p589
I3
S'p_exec_module'
p590
S'/Users/david/src/projects/bento/bento-git/bento/core/parser/parser.py'
p591
I633
tp592
a(S'function -> FUNCTION_ID COLON anyword'
p593
S'function'
p594
I3
S'p_exec_function'
p595
S'/Users/david/src/projects/bento/bento-git/bento/core/parser/parser.py'
p596
I637
tp597
a(S'comma_list -> indented_comma_list'
p598
S'comma_list'
p599
I1
S'p_comma_list_indented'
p600
S'/Users/david/src/projects/bento/bento-git/bento/core/parser/parser.py'
p601
I645
tp602
a(S'comma_list -> comma_words'
p603
S'comma_list'
p604
I1
S'p_comma_list'
p605
S'/Users/david/src/projects/bento/bento-git/bento/core/parser/parser.py'
p606
I650
tp607
a(S'indented_comma_list -> comma_words COMMA INDENT comma_words DEDENT'
p608
S'indented_comma_list'
p609
I5
S'p_indented_comma_list'
p610
S'/Users/david/src/projects/bento/bento-git/bento/core/parser/parser.py'
p611
I655
tp612
a(S'indented_comma_list -> INDENT comma_words DEDENT'
p613
S'indented_comma_list'
p614
I3
S'p_indented_comma_list_term'
p615
S'/Users/david/src/projects/bento/bento-git/bento/core/parser/parser.py'
p616
I661
tp617
a(S'comma_words -> comma_words COMMA anyword_comma_list'
p618
S'comma_words'
p619
I3
S'p_comma_words'
p620
S'/Users/david/src/projects/bento/bento-git/bento/core/parser/parser.py'
p621
I666
tp622
a(S'comma_words -> anyword_comma_list'
p623
S'comma_words'
p624
I1
S'p_comma_words_term'
p625
S'/Users/david/src/projects/bento/bento-git/bento/core/parser/parser.py'
p626
I672
tp627
a(S'single_line_value -> WS single_line'
p628
S'single_line_value'
p629
I2
S'p_single_line'
p630
S'/Users/david/src/projects/bento/bento-git/bento/core/parser/parser.py'
p631
I677
tp632
a(S'single_line_value -> single_line'
p633
S'single_line_value'
p634
I1
S'p_single_line_no_space'
p635
S'/Users/david/src/projects/bento/bento-git/bento/core/parser/parser.py'
p636
I681
tp637
a(S'single_line -> single_line literal'
p638
S'single_line'
p639
I2
S'p_single_line_string'
p640
S'/Users/david/src/projects/bento/bento-git/bento/core/parser/parser.py'
p641
I685
tp642
a(S'single_line -> literal_no_space'
p643
S'single_line'
p644
I1
S'p_single_line_string_term'
p645
S'/Users/david/src/projects/bento/bento-git/bento/core/parser/parser.py'
p646
I689
tp647
a(S'meta_description_stmt -> description_decl single_line_newline INDENT multi_stmts DEDENT'
p648
S'meta_description_stmt'
p649
I5
S'p_meta_description_stmt_start_same_line'
p650
S'/Users/david/src/projects/bento/bento-git/bento/core/parser/parser.py'
p651
I693
tp652
a(S'meta_description_stmt -> description_decl NEWLINE INDENT multi_stmts DEDENT'
p653
S'meta_description_stmt'
p654
I5
S'p_meta_description_stmt_indented_block'
p655
S'/Users/david/src/projects/bento/bento-git/bento/core/parser/parser.py'
p656
I699
tp657
a(S'meta_description_stmt -> description_decl WS NEWLINE INDENT multi_stmts DEDENT'
p658
S'meta_description_stmt'
p659
I6
S'p_meta_description_stmt_indented_block2'
p660
S'/Users/david/src/projects/bento/bento-git/bento/core/parser/parser.py'
p661
I705
tp662
a(S'meta_description_stmt -> description_decl single_line_value'
p663
S'meta_description_stmt'
p664
I2
S'p_meta_description_stmt_single'
p665
S'/Users/david/src/projects/bento/bento-git/bento/core/parser/parser.py'
p666
I711
tp667
a(S'single_line_newline -> single_line_value newline'
p668
S'single_line_newline'
p669
I2
S'p_single_line_newline'
p670
S'/Users/david/src/projects/bento/bento-git/bento/core/parser/parser.py'
p671
I716
tp672
a(S'description_decl -> DESCRIPTION_ID COLON'
p673
S'description_decl'
p674
I2
S'p_description_decl'
p675
S'/Users/david/src/projects/bento/bento-git/bento/core/parser/parser.py'
p676
I721
tp677
a(S'indented_block -> indent indented_block_value'
p678
S'indented_block'
p679
I2
S'p_indented_block'
p680
S'/Users/david/src/projects/bento/bento-git/bento/core/parser/parser.py'
p681
I725
tp682
a(S'indented_block_value -> multi_stmts dedent'
p683
S'indented_block_value'
p684
I2
S'p_indented_block_value'
p685
S'/Users/david/src/projects/bento/bento-git/bento/core/parser/parser.py'
p686
I729
tp687
a(S'multi_stmts -> multi_stmt multi_stmts'
p688
S'multi_stmts'
p689
I2
S'p_multi_stmts'
p690
S'/Users/david/src/projects/bento/bento-git/bento/core/parser/parser.py'
p691
I733
tp692
a(S'multi_stmts -> multi_stmt'
p693
S'multi_stmts'
p694
I1
S'p_multi_stmts_term'
p695
S'/Users/david/src/projects/bento/bento-git/bento/core/parser/parser.py'
p696
I737
tp697
a(S'multi_stmt -> indented_block'
p698
S'multi_stmt'
p699
I1
S'p_multi_stmt_ind_block'
p700
S'/Users/david/src/projects/bento/bento-git/bento/core/parser/parser.py'
p701
I741
tp702
a(S'multi_stmt -> multi_literal'
p703
S'multi_stmt'
p704
I1
S'p_multi_stmt_term'
p705
S'/Users/david/src/projects/bento/bento-git/bento/core/parser/parser.py'
p706
I745
tp707
a(S'newline -> NEWLINE'
p708
S'newline'
p709
I1
S'p_newline'
p710
S'/Users/david/src/projects/bento/bento-git/bento/core/parser/parser.py'
p711
I749
tp712
a(S'anyword -> anyword literal'
p713
S'anyword'
p714
I2
S'p_anyword'
p715
S'/Users/david/src/projects/bento/bento-git/bento/core/parser/parser.py'
p716
I754
tp717
a(S'anyword -> literal'
p718
S'anyword'
p719
I1
S'p_anyword_term'
p720
S'/Users/david/src/projects/bento/bento-git/bento/core/parser/parser.py'
p721
I758
tp722
a(S'anyword_comma_list -> anyword_comma_list anytoken_no_comma'
p723
S'anyword_comma_list'
p724
I2
S'p_anyword_comma_list'
p725
S'/Users/david/src/projects/bento/bento-git/bento/core/parser/parser.py'
p726
I762
tp727
a(S'anyword_comma_list -> anytoken_no_comma'
p728
S'anyword_comma_list'
p729
I1
S'p_anyword_comma_list_term'
p730
S'/Users/david/src/projects/bento/bento-git/bento/core/parser/parser.py'
p731
I766
tp732
a(S'anytoken_no_comma -> WORD'
p733
S'anytoken_no_comma'
p734
I1
S'p_anytoken_no_comma'
p735
S'/Users/david/src/projects/bento/bento-git/bento/core/parser/parser.py'
p736
I771
tp737
a(S'anytoken_no_comma -> COLON'
p738
g734
I1
g735
g736
I772
tp739
a(S'anytoken_no_comma -> DOUBLE_COLON'
p740
g734
I1
g735
g736
I773
tp741
a(S'anytoken_no_comma -> LPAR'
p742
g734
I1
g735
g736
I774
tp743
a(S'anytoken_no_comma -> RPAR'
p744
g734
I1
g735
g736
I775
tp745
a(S'anytoken_no_comma -> LESS'
p746
g734
I1
g735
g736
I776
tp747
a(S'anytoken_no_comma -> SLASH'
p748
g734
I1
g735
g736
I777
tp749
a(S'anytoken_no_comma -> SHARP'
p750
g734
I1
g735
g736
I778
tp751
a(S'anytoken_no_comma -> EQUAL'
p752
g734
I1
g735
g736
I779
tp753
a(S'anytoken_no_comma -> GREATER'
p754
g734
I1
g735
g736
I780
tp755
a(S'literal_no_space -> anytoken_no_comma'
p756
S'literal_no_space'
p757
I1
S'p_literal_no_space'
p758
S'/Users/david/src/projects/bento/bento-git/bento/core/parser/parser.py'
p759
I785
tp760
a(S'literal_no_space -> COMMA'
p761
S'literal_no_space'
p762
I1
S'p_literal_no_space_term'
p763
S'/Users/david/src/projects/bento/bento-git/bento/core/parser/parser.py'
p764
I790
tp765
a(S'literal -> literal_no_space'
p766
S'literal'
p767
I1
S'p_literal'
p768
S'/Users/david/src/projects/bento/bento-git/bento/core/parser/parser.py'
p769
I795
tp770
a(S'literal -> WS'
p771
S'literal'
p772
I1
S'p_literal_term'
p773
S'/Users/david/src/projects/bento/bento-git/bento/core/parser/parser.py'
p774
I800
tp775
a(S'multi_literal -> literal'
p776
S'multi_literal'
p777
I1
S'p_multi_literal'
p778
S'/Users/david/src/projects/bento/bento-git/bento/core/parser/parser.py'
p779
I805
tp780
a(S'multi_literal -> newline'
p781
S'multi_literal'
p782
I1
S'p_multi_literal2'
p783
S'/Users/david/src/projects/bento/bento-git/bento/core/parser/parser.py'
p784
I810
tp785
a(S'indent -> INDENT'
p786
S'indent'
p787
I1
S'p_indent'
p788
S'/Users/david/src/projects/bento/bento-git/bento/core/parser/parser.py'
p789
I815
tp790
a(S'dedent -> DEDENT'
p791
S'dedent'
p792
I1
S'p_dedent'
p793
S'/Users/david/src/projects/bento/bento-git/bento/core/parser/parser.py'
p794
I820
tp795
a(S'word -> WORD'
p796
S'word'
p797
I1
S'p_word'
p798
S'/Users/david/src/projects/bento/bento-git/bento/core/parser/parser.py'
p799
I825
tp800
a(S'version -> WORD'
p801
S'version'
p802
I1
S'p_version'
p803
S'/Users/david/src/projects/bento/bento-git/bento/core/parser/parser.py'
p804
I829
tp805
a.