(dp0
(S'J'
p1
S'+'
p2
tp3
I-100
s(S'S'
p4
S'W'
p5
tp6
I1
s(S'V'
p7
S'0'
p8
tp9
I-10
s(g4
S'N'
p10
tp11
I1
s(g8
S'R'
p12
tp13
I-10
s(g8
g1
tp14
I-10
s(S'H'
p15
g5
tp16
I1
s(S'X'
p17
S'M'
p18
tp19
I0
s(g5
g12
tp20
I1
s(g7
g18
tp21
I-10
s(g10
g12
tp22
I1
s(S'_'
p23
g4
tp24
I-10
s(g1
g12
tp25
I1
s(g2
g15
tp26
I-100
s(g12
g12
tp27
I10
s(g7
g23
tp28
I-10
s(g2
g8
tp29
I-100
s(g8
S'K'
p30
tp31
I-10
s(g23
g15
tp32
I-10
s(g17
g15
tp33
I0
s(g18
S'P'
p34
tp35
I1
s(g7
g10
tp36
I-10
s(g10
g4
tp37
I1
s(g18
g30
tp38
I1
s(g12
g30
tp39
I1
s(g30
g5
tp40
I1
s(g7
g17
tp41
I0
s(g17
g30
tp42
I0
s(g34
g12
tp43
I1
s(g8
g15
tp44
I-10
s(g34
g30
tp45
I1
s(g5
g34
tp46
I1
s(g17
g10
tp47
I0
s(g17
g17
tp48
I0
s(g2
g17
tp49
I-5
s(g15
g30
tp50
I1
s(g1
S'T'
p51
tp52
I1
s(g30
g7
tp53
I-10
s(g23
g17
tp54
I0
s(g17
g34
tp55
I0
s(g51
g10
tp56
I1
s(g23
g10
tp57
I-10
s(g2
g34
tp58
I-100
s(g5
g5
tp59
I10
s(g51
g5
tp60
I1
s(g2
g2
tp61
I0
s(g18
g12
tp62
I1
s(g7
g15
tp63
I-10
s(g23
g2
tp64
I-100
s(g12
g18
tp65
I1
s(g8
g17
tp66
I0
s(g4
g4
tp67
I10
s(g15
g12
tp68
I1
s(g4
g1
tp69
I1
s(g34
g34
tp70
I10
s(g12
g23
tp71
I-10
s(g8
g10
tp72
I-10
s(g17
g2
tp73
I-5
s(g5
g7
tp74
I-10
s(g17
g8
tp75
I0
s(g23
g12
tp76
I-10
s(g8
g2
tp77
I-100
s(g1
g15
tp78
I1
s(g23
g5
tp79
I-10
s(g1
g7
tp80
I-10
s(g30
g51
tp81
I1
s(g1
g4
tp82
I1
s(g18
g8
tp83
I-10
s(g18
g2
tp84
I-100
s(g2
g5
tp85
I-100
s(g10
g18
tp86
I1
s(g7
g1
tp87
I-10
s(g12
g1
tp88
I1
s(g2
g30
tp89
I-100
s(g1
g5
tp90
I1
s(g30
g4
tp91
I1
s(g7
g51
tp92
I-10
s(g15
g34
tp93
I1
s(g4
g15
tp94
I1
s(g34
g7
tp95
I-10
s(g2
g7
tp96
I-100
s(g17
g5
tp97
I0
s(g10
g10
tp98
I10
s(g5
g51
tp99
I1
s(g1
g8
tp100
I-10
s(g8
g7
tp101
I-10
s(g7
g30
tp102
I-10
s(g10
g17
tp103
I0
s(g34
g17
tp104
I0
s(g8
g23
tp105
I1
s(g12
g34
tp106
I1
s(g30
g12
tp107
I1
s(g12
g4
tp108
I1
s(g23
g30
tp109
I-10
s(g51
g2
tp110
I-100
s(g8
g18
tp111
I-10
s(g51
g1
tp112
I1
s(g51
g8
tp113
I-10
s(g51
g4
tp114
I1
s(g18
g5
tp115
I1
s(g51
g17
tp116
I0
s(g18
g10
tp117
I1
s(g4
g17
tp118
I0
s(g1
g17
tp119
I0
s(g34
g23
tp120
I-10
s(g7
g7
tp121
I10
s(g10
g2
tp122
I-100
s(g15
g7
tp123
I-10
s(g34
g51
tp124
I1
s(g2
g51
tp125
I-100
s(g15
g23
tp126
I-10
s(g34
g18
tp127
I1
s(g10
g15
tp128
I1
s(g5
g23
tp129
I-10
s(g15
g18
tp130
I1
s(g4
g2
tp131
I-100
s(g17
g12
tp132
I0
s(g1
g1
tp133
I10
s(g30
g34
tp134
I1
s(g7
g5
tp135
I-10
s(g12
g7
tp136
I-10
s(g2
g4
tp137
I-100
s(g30
g10
tp138
I1
s(g51
g15
tp139
I1
s(g23
g8
tp140
I1
s(g12
g2
tp141
I-100
s(g4
g23
tp142
I-10
s(g18
g15
tp143
I1
s(g4
g7
tp144
I-10
s(g1
g30
tp145
I1
s(g30
g23
tp146
I-10
s(g4
g18
tp147
I1
s(g7
g34
tp148
I-10
s(g15
g51
tp149
I1
s(g34
g1
tp150
I1
s(g2
g12
tp151
I-100
s(g30
g18
tp152
I1
s(g15
g2
tp153
I-100
s(g10
g1
tp154
I1
s(g15
g1
tp155
I1
s(g12
g10
tp156
I1
s(g5
g30
tp157
I1
s(g12
g51
tp158
I1
s(g8
g4
tp159
I-10
s(g51
g7
tp160
I-10
s(g18
g17
tp161
I0
s(g10
g30
tp162
I1
s(g51
g23
tp163
I-10
s(g18
g4
tp164
I1
s(g1
g34
tp165
I1
s(g18
g1
tp166
I1
s(g5
g1
tp167
I1
s(g4
g51
tp168
I1
s(g1
g18
tp169
I1
s(g8
g34
tp170
I-10
s(g4
g30
tp171
I1
s(g34
g4
tp172
I1
s(g7
g12
tp173
I-10
s(g5
g17
tp174
I0
s(g34
g15
tp175
I1
s(g30
g8
tp176
I-10
s(g30
g30
tp177
I10
s(g34
g2
tp178
I-100
s(g10
g51
tp179
I1
s(g15
g15
tp180
I10
s(g4
g8
tp181
I-10
s(g2
g10
tp182
I-100
s(g23
g34
tp183
I-10
s(g23
g23
tp184
I10
s(g1
g10
tp185
I1
s(g7
g4
tp186
I-10
s(g10
g8
tp187
I-10
s(g23
g18
tp188
I-10
s(g2
g23
tp189
I-100
s(g30
g1
tp190
I1
s(g51
g51
tp191
I10
s(g18
g18
tp192
I10
s(g2
g18
tp193
I-100
s(g5
g15
tp194
I1
s(g17
g1
tp195
I0
s(g4
g12
tp196
I1
s(g15
g8
tp197
I-10
s(g12
g5
tp198
I1
s(g5
g8
tp199
I-10
s(g15
g4
tp200
I1
s(g5
g2
tp201
I-100
s(g34
g8
tp202
I-10
s(g34
g10
tp203
I1
s(g17
g23
tp204
I0
s(g10
g7
tp205
I-10
s(g7
g2
tp206
I-100
s(g15
g10
tp207
I1
s(g12
g8
tp208
I-10
s(g23
g7
tp209
I-10
s(g15
g17
tp210
I0
s(g17
g4
tp211
I0
s(g12
g17
tp212
I0
s(g8
g5
tp213
I-10
s(g51
g18
tp214
I1
s(g17
g7
tp215
I0
s(g8
g8
tp216
I10
s(g30
g15
tp217
I1
s(g51
g12
tp218
I1
s(g18
g51
tp219
I1
s(g10
g5
tp220
I1
s(g1
g23
tp221
I-10
s(g30
g2
tp222
I-100
s(g5
g10
tp223
I1
s(g4
g34
tp224
I1
s(g8
g51
tp225
I-10
s(g34
g5
tp226
I1
s(g17
g51
tp227
I0
s(g10
g34
tp228
I1
s(g12
g15
tp229
I1
s(g2
g1
tp230
I-100
s(g23
g51
tp231
I-10
s(g5
g18
tp232
I1
s(g30
g17
tp233
I0
s(g23
g1
tp234
I-10
s(g5
g4
tp235
I1
s(g51
g30
tp236
I1
s(g18
g23
tp237
I-10
s(g51
g34
tp238
I1
s(g18
g7
tp239
I-10
s(g10
g23
tp240
I-10
s.