S'3.2'
p1
.S'LALR'
p1
.S'\xa2>0\xb1\xa4?NS\xa7\x83A\xde\xf2\x05\xf7H'
p1
.(dp1
I0
(dp2
S'SUBENTO_ID'
p3
I1
sS'KEYWORDS_ID'
p4
I2
sS'CONFIG_PY_ID'
p5
I3
sS'MAINTAINER_ID'
p6
I33
sS'PLATFORMS_ID'
p7
I7
sS'META_TEMPLATE_FILE_ID'
p8
I21
sS'FLAG_ID'
p9
I14
sS'SUMMARY_ID'
p10
I17
sS'URL_ID'
p11
I16
sS'LIBRARY_ID'
p12
I34
sS'DESCRIPTION_FROM_FILE_ID'
p13
I22
sS'NEWLINE'
p14
I23
sS'PATH_ID'
p15
I24
sS'AUTHOR_ID'
p16
I28
sS'EXECUTABLE_ID'
p17
I29
sS'HOOK_FILE_ID'
p18
I32
sS'$end'
p19
I-13
sS'DATAFILES_ID'
p20
I26
sS'DOWNLOAD_URL_ID'
p21
I40
sS'LICENSE_ID'
p22
I37
sS'MAINTAINER_EMAIL_ID'
p23
I47
sS'AUTHOR_EMAIL_ID'
p24
I63
sS'AND'
p25
I31
sS'EXTRA_SOURCE_FILES_ID'
p26
I52
sS'DESCRIPTION_ID'
p27
I59
sS'VERSION_ID'
p28
I11
sS'CLASSIFIERS_ID'
p29
I58
sS'NAME_ID'
p30
I61
ssI1
(dp31
S'COLON'
p32
I64
ssI2
(dp33
S'COLON'
p34
I65
ssI3
(dp35
S'COLON'
p36
I66
ssI4
(dp37
g3
I-25
sg4
I-25
sg5
I-25
sg6
I-25
sg7
I-25
sg8
I-25
sg9
I-25
sg10
I-25
sg11
I-25
sg12
I-25
sg13
I-25
sg15
I-25
sg16
I-25
sg17
I-25
sg18
I-25
sg19
I-25
sg20
I-25
sg21
I-25
sg22
I-25
sg23
I-25
sg24
I-25
sg25
I-25
sg26
I-25
sg27
I-25
sg28
I-25
sg29
I-25
sg30
I-25
ssI5
(dp38
g3
I-24
sg4
I-24
sg5
I-24
sg6
I-24
sg7
I-24
sg8
I-24
sg9
I-24
sg10
I-24
sg11
I-24
sg12
I-24
sg13
I-24
sg15
I-24
sg16
I-24
sg17
I-24
sg18
I-24
sg19
I-24
sg20
I-24
sg21
I-24
sg22
I-24
sg23
I-24
sg24
I-24
sg25
I-24
sg26
I-24
sg27
I-24
sg28
I-24
sg29
I-24
sg30
I-24
ssI6
(dp39
g3
I-75
sg4
I-75
sg5
I-75
sg6
I-75
sg7
I-75
sg8
I-75
sg9
I-75
sg10
I-75
sg11
I-75
sg12
I-75
sg13
I-75
sg15
I-75
sg16
I-75
sg17
I-75
sg18
I-75
sg19
I-75
sg20
I-75
sg21
I-75
sg22
I-75
sg23
I-75
sg24
I-75
sg25
I-75
sg26
I-75
sS'INDENT'
p40
I67
sg27
I-75
sg28
I-75
sg29
I-75
sg30
I-75
ssI7
(dp41
S'COLON'
p42
I68
ssI8
(dp43
S'INDENT'
p44
I69
ssI9
(dp45
g3
I-6
sg4
I-6
sg5
I-6
sg6
I-6
sg7
I-6
sg8
I-6
sg9
I-6
sg10
I-6
sg11
I-6
sg12
I-6
sg13
I-6
sg15
I-6
sg16
I-6
sg17
I-6
sg18
I-6
sg19
I-6
sg20
I-6
sg21
I-6
sg22
I-6
sg23
I-6
sg24
I-6
sg25
I-6
sg26
I-6
sg27
I-6
sg28
I-6
sg29
I-6
sg30
I-6
ssI10
(dp46
g3
I-22
sg4
I-22
sg5
I-22
sg6
I-22
sg7
I-22
sg8
I-22
sg9
I-22
sg10
I-22
sg11
I-22
sg12
I-22
sg13
I-22
sg15
I-22
sg16
I-22
sg17
I-22
sg18
I-22
sg19
I-22
sg20
I-22
sg21
I-22
sg22
I-22
sg23
I-22
sg24
I-22
sg25
I-22
sg26
I-22
sg27
I-22
sg28
I-22
sg29
I-22
sg30
I-22
ssI11
(dp47
S'COLON'
p48
I70
ssI12
(dp49
g3
I-19
sg4
I-19
sg5
I-19
sg6
I-19
sg7
I-19
sg8
I-19
sg9
I-19
sg10
I-19
sg11
I-19
sg12
I-19
sg13
I-19
sg15
I-19
sg16
I-19
sg17
I-19
sg18
I-19
sg19
I-19
sg20
I-19
sg21
I-19
sg22
I-19
sg23
I-19
sg24
I-19
sg25
I-19
sg26
I-19
sg27
I-19
sg28
I-19
sg29
I-19
sg30
I-19
ssI13
(dp50
g3
I-28
sg4
I-28
sg5
I-28
sg6
I-28
sg7
I-28
sg8
I-28
sg9
I-28
sg10
I-28
sg11
I-28
sg12
I-28
sg13
I-28
sg15
I-28
sg16
I-28
sg17
I-28
sg18
I-28
sg19
I-28
sg20
I-28
sg21
I-28
sg22
I-28
sg23
I-28
sg24
I-28
sg25
I-28
sg26
I-28
sg27
I-28
sg28
I-28
sg29
I-28
sg30
I-28
ssI14
(dp51
S'COLON'
p52
I71
ssI15
(dp53
g3
I-11
sg4
I-11
sg5
I-11
sg6
I-11
sg7
I-11
sg8
I-11
sg9
I-11
sg10
I-11
sg11
I-11
sg12
I-11
sg13
I-11
sg15
I-11
sg16
I-11
sg17
I-11
sg18
I-11
sg19
I-11
sg20
I-11
sg21
I-11
sg22
I-11
sg23
I-11
sg24
I-11
sg25
I-11
sg26
I-11
sg27
I-11
sg28
I-11
sg29
I-11
sg30
I-11
ssI16
(dp54
S'COLON'
p55
I72
ssI17
(dp56
S'COLON'
p57
I73
ssI18
(dp58
S'LPAR'
p59
I74
sS'WORD'
p60
I80
sS'GREATER'
p61
I89
sS'LESS'
p62
I75
sS'NEWLINE'
p63
I81
sS'EQUAL'
p64
I76
sS'RPAR'
p65
I77
sS'DOUBLE_COLON'
p66
I82
sS'COMMA'
p67
I91
sS'SLASH'
p68
I86
sS'SHARP'
p69
I84
sS'COLON'
p70
I83
sS'WS'
p71
I79
ssI19
(dp72
S'INDENT'
p73
I92
ssI20
(dp74
S'INDENT'
p75
I93
ssI21
(dp76
S'COLON'
p77
I94
ssI22
(dp78
S'COLON'
p79
I95
ssI23
(dp80
g3
I-4
sg4
I-4
sg5
I-4
sg6
I-4
sg7
I-4
sg8
I-4
sg9
I-4
sg10
I-4
sg11
I-4
sg12
I-4
sg13
I-4
sg15
I-4
sg16
I-4
sg17
I-4
sg18
I-4
sg19
I-4
sg20
I-4
sg21
I-4
sg22
I-4
sg23
I-4
sg24
I-4
sg25
I-4
sg26
I-4
sg27
I-4
sg28
I-4
sg29
I-4
sg30
I-4
ssI24
(dp81
S'COLON'
p82
I96
ssI25
(dp83
g3
I-32
sg4
I-32
sg5
I-32
sg6
I-32
sg7
I-32
sg8
I-32
sg9
I-32
sg10
I-32
sg11
I-32
sg12
I-32
sg13
I-32
sg15
I-32
sg16
I-32
sg17
I-32
sg18
I-32
sg19
I-32
sg20
I-32
sg21
I-32
sg22
I-32
sg23
I-32
sg24
I-32
sg25
I-32
sg26
I-32
sg27
I-32
sg28
I-32
sg29
I-32
sg30
I-32
ssI26
(dp84
S'COLON'
p85
I97
ssI27
(dp86
g3
I-23
sg4
I-23
sg5
I-23
sg6
I-23
sg7
I-23
sg8
I-23
sg9
I-23
sg10
I-23
sg11
I-23
sg12
I-23
sg13
I-23
sg15
I-23
sg16
I-23
sg17
I-23
sg18
I-23
sg19
I-23
sg20
I-23
sg21
I-23
sg22
I-23
sg23
I-23
sg24
I-23
sg25
I-23
sg26
I-23
sg27
I-23
sg28
I-23
sg29
I-23
sg30
I-23
ssI28
(dp87
S'COLON'
p88
I98
ssI29
(dp89
S'COLON'
p90
I99
ssI30
(dp91
g3
I-17
sg4
I-17
sg5
I-17
sg6
I-17
sg7
I-17
sg8
I-17
sg9
I-17
sg10
I-17
sg11
I-17
sg12
I-17
sg13
I-17
sg15
I-17
sg16
I-17
sg17
I-17
sg18
I-17
sg19
I-17
sg20
I-17
sg21
I-17
sg22
I-17
sg23
I-17
sg24
I-17
sg25
I-17
sg26
I-17
sg27
I-17
sg28
I-17
sg29
I-17
sg30
I-17
ssI31
(dp92
S'BACKSLASH'
p93
I100
ssI32
(dp94
S'COLON'
p95
I101
ssI33
(dp96
S'COLON'
p97
I102
ssI34
(dp98
S'COLON'
p99
I103
ssI35
(dp100
g3
I-7
sg4
I-7
sg5
I-7
sg6
I-7
sg7
I-7
sg8
I-7
sg9
I-7
sg10
I-7
sg11
I-7
sg12
I-7
sg13
I-7
sg15
I-7
sg16
I-7
sg17
I-7
sg18
I-7
sg19
I-7
sg20
I-7
sg21
I-7
sg22
I-7
sg23
I-7
sg24
I-7
sg25
I-7
sg26
I-7
sg27
I-7
sg28
I-7
sg29
I-7
sg30
I-7
ssI36
(dp101
g3
I-31
sg4
I-31
sg5
I-31
sg6
I-31
sg7
I-31
sg8
I-31
sg9
I-31
sg10
I-31
sg11
I-31
sg12
I-31
sg13
I-31
sg15
I-31
sg16
I-31
sg17
I-31
sg18
I-31
sg19
I-31
sg20
I-31
sg21
I-31
sg22
I-31
sg23
I-31
sg24
I-31
sg25
I-31
sg26
I-31
sg27
I-31
sg28
I-31
sg29
I-31
sg30
I-31
ssI37
(dp102
S'COLON'
p103
I104
ssI38
(dp104
g3
I-21
sg4
I-21
sg5
I-21
sg6
I-21
sg7
I-21
sg8
I-21
sg9
I-21
sg10
I-21
sg11
I-21
sg12
I-21
sg13
I-21
sg15
I-21
sg16
I-21
sg17
I-21
sg18
I-21
sg19
I-21
sg20
I-21
sg21
I-21
sg22
I-21
sg23
I-21
sg24
I-21
sg25
I-21
sg26
I-21
sg27
I-21
sg28
I-21
sg29
I-21
sg30
I-21
ssI39
(dp105
g3
I-2
sg4
I-2
sg5
I-2
sg6
I-2
sg7
I-2
sg8
I-2
sg9
I-2
sg10
I-2
sg11
I-2
sg12
I-2
sg13
I-2
sg15
I-2
sg16
I-2
sg17
I-2
sg18
I-2
sg19
I-2
sg20
I-2
sg21
I-2
sg22
I-2
sg23
I-2
sg24
I-2
sg25
I-2
sg26
I-2
sg27
I-2
sg28
I-2
sg29
I-2
sg30
I-2
ssI40
(dp106
S'COLON'
p107
I105
ssI41
(dp108
g3
I-26
sg4
I-26
sg5
I-26
sg6
I-26
sg7
I-26
sg8
I-26
sg9
I-26
sg10
I-26
sg11
I-26
sg12
I-26
sg13
I-26
sg15
I-26
sg16
I-26
sg17
I-26
sg18
I-26
sg19
I-26
sg20
I-26
sg21
I-26
sg22
I-26
sg23
I-26
sg24
I-26
sg25
I-26
sg26
I-26
sg27
I-26
sg28
I-26
sg29
I-26
sg30
I-26
ssI42
(dp109
g3
I-5
sg4
I-5
sg5
I-5
sg6
I-5
sg7
I-5
sg8
I-5
sg9
I-5
sg10
I-5
sg11
I-5
sg12
I-5
sg13
I-5
sg15
I-5
sg16
I-5
sg17
I-5
sg18
I-5
sg19
I-5
sg20
I-5
sg21
I-5
sg22
I-5
sg23
I-5
sg24
I-5
sg25
I-5
sg26
I-5
sg27
I-5
sg28
I-5
sg29
I-5
sg30
I-5
ssI43
(dp110
g3
I-9
sg4
I-9
sg5
I-9
sg6
I-9
sg7
I-9
sg8
I-9
sg9
I-9
sg10
I-9
sg11
I-9
sg12
I-9
sg13
I-9
sg15
I-9
sg16
I-9
sg17
I-9
sg18
I-9
sg19
I-9
sg20
I-9
sg21
I-9
sg22
I-9
sg23
I-9
sg24
I-9
sg25
I-9
sg26
I-9
sg27
I-9
sg28
I-9
sg29
I-9
sg30
I-9
ssI44
(dp111
g3
I-16
sg4
I-16
sg5
I-16
sg6
I-16
sg7
I-16
sg8
I-16
sg9
I-16
sg10
I-16
sg11
I-16
sg12
I-16
sg13
I-16
sg15
I-16
sg16
I-16
sg17
I-16
sg18
I-16
sg19
I-16
sg20
I-16
sg21
I-16
sg22
I-16
sg23
I-16
sg24
I-16
sg25
I-16
sg26
I-16
sg27
I-16
sg28
I-16
sg29
I-16
sg30
I-16
ssI45
(dp112
g3
I-29
sg4
I-29
sg5
I-29
sg6
I-29
sg7
I-29
sg8
I-29
sg9
I-29
sg10
I-29
sg11
I-29
sg12
I-29
sg13
I-29
sg15
I-29
sg16
I-29
sg17
I-29
sg18
I-29
sg19
I-29
sg20
I-29
sg21
I-29
sg22
I-29
sg23
I-29
sg24
I-29
sg25
I-29
sg26
I-29
sg27
I-29
sg28
I-29
sg29
I-29
sg30
I-29
ssI46
(dp113
g3
I-8
sg4
I-8
sg5
I-8
sg6
I-8
sg7
I-8
sg8
I-8
sg9
I-8
sg10
I-8
sg11
I-8
sg12
I-8
sg13
I-8
sg15
I-8
sg16
I-8
sg17
I-8
sg18
I-8
sg19
I-8
sg20
I-8
sg21
I-8
sg22
I-8
sg23
I-8
sg24
I-8
sg25
I-8
sg26
I-8
sg27
I-8
sg28
I-8
sg29
I-8
sg30
I-8
ssI47
(dp114
S'COLON'
p115
I106
ssI48
(dp116
g3
I-20
sg4
I-20
sg5
I-20
sg6
I-20
sg7
I-20
sg8
I-20
sg9
I-20
sg10
I-20
sg11
I-20
sg12
I-20
sg13
I-20
sg15
I-20
sg16
I-20
sg17
I-20
sg18
I-20
sg19
I-20
sg20
I-20
sg21
I-20
sg22
I-20
sg23
I-20
sg24
I-20
sg25
I-20
sg26
I-20
sg27
I-20
sg28
I-20
sg29
I-20
sg30
I-20
ssI49
(dp117
S'INDENT'
p118
I107
ssI50
(dp119
g3
I1
sg4
I2
sg5
I3
sg6
I33
sg7
I7
sg8
I21
sg9
I14
sg10
I17
sg11
I16
sg12
I34
sg13
I22
sg15
I24
sg16
I28
sg17
I29
sg18
I32
sS'$end'
p120
I0
sg20
I26
sg21
I40
sg22
I37
sg23
I47
sg24
I63
sg25
I31
sg26
I52
sg27
I59
sg28
I11
sg29
I58
sg30
I61
ssI51
(dp121
g3
I-12
sg4
I-12
sg5
I-12
sg6
I-12
sg7
I-12
sg8
I-12
sg9
I-12
sg10
I-12
sg11
I-12
sg12
I-12
sg13
I-12
sg15
I-12
sg16
I-12
sg17
I-12
sg18
I-12
sg19
I-12
sg20
I-12
sg21
I-12
sg22
I-12
sg23
I-12
sg24
I-12
sg25
I-12
sg26
I-12
sg27
I-12
sg28
I-12
sg29
I-12
sg30
I-12
ssI52
(dp122
S'COLON'
p123
I109
ssI53
(dp124
g3
I-27
sg4
I-27
sg5
I-27
sg6
I-27
sg7
I-27
sg8
I-27
sg9
I-27
sg10
I-27
sg11
I-27
sg12
I-27
sg13
I-27
sg15
I-27
sg16
I-27
sg17
I-27
sg18
I-27
sg19
I-27
sg20
I-27
sg21
I-27
sg22
I-27
sg23
I-27
sg24
I-27
sg25
I-27
sg26
I-27
sg27
I-27
sg28
I-27
sg29
I-27
sg30
I-27
ssI54
(dp125
g3
I-30
sg4
I-30
sg5
I-30
sg6
I-30
sg7
I-30
sg8
I-30
sg9
I-30
sg10
I-30
sg11
I-30
sg12
I-30
sg13
I-30
sg15
I-30
sg16
I-30
sg17
I-30
sg18
I-30
sg19
I-30
sg20
I-30
sg21
I-30
sg22
I-30
sg23
I-30
sg24
I-30
sg25
I-30
sg26
I-30
sg27
I-30
sg28
I-30
sg29
I-30
sg30
I-30
ssI55
(dp126
g3
I-18
sg4
I-18
sg5
I-18
sg6
I-18
sg7
I-18
sg8
I-18
sg9
I-18
sg10
I-18
sg11
I-18
sg12
I-18
sg13
I-18
sg15
I-18
sg16
I-18
sg17
I-18
sg18
I-18
sg19
I-18
sg20
I-18
sg21
I-18
sg22
I-18
sg23
I-18
sg24
I-18
sg25
I-18
sg26
I-18
sg27
I-18
sg28
I-18
sg29
I-18
sg30
I-18
ssI56
(dp127
g3
I-10
sg4
I-10
sg5
I-10
sg6
I-10
sg7
I-10
sg8
I-10
sg9
I-10
sg10
I-10
sg11
I-10
sg12
I-10
sg13
I-10
sg15
I-10
sg16
I-10
sg17
I-10
sg18
I-10
sg19
I-10
sg20
I-10
sg21
I-10
sg22
I-10
sg23
I-10
sg24
I-10
sg25
I-10
sg26
I-10
sg27
I-10
sg28
I-10
sg29
I-10
sg30
I-10
ssI57
(dp128
g3
I-14
sg4
I-14
sg5
I-14
sg6
I-14
sg7
I-14
sg8
I-14
sg9
I-14
sg10
I-14
sg11
I-14
sg12
I-14
sg13
I-14
sg15
I-14
sg16
I-14
sg17
I-14
sg18
I-14
sg19
I-14
sg20
I-14
sg21
I-14
sg22
I-14
sg23
I-14
sg24
I-14
sg25
I-14
sg26
I-14
sg27
I-14
sg28
I-14
sg29
I-14
sg30
I-14
ssI58
(dp129
S'COLON'
p130
I110
ssI59
(dp131
S'COLON'
p132
I111
ssI60
(dp133
g3
I-15
sg4
I-15
sg5
I-15
sg6
I-15
sg7
I-15
sg8
I-15
sg9
I-15
sg10
I-15
sg11
I-15
sg12
I-15
sg13
I-15
sg15
I-15
sg16
I-15
sg17
I-15
sg18
I-15
sg19
I-15
sg20
I-15
sg21
I-15
sg22
I-15
sg23
I-15
sg24
I-15
sg25
I-15
sg26
I-15
sg27
I-15
sg28
I-15
sg29
I-15
sg30
I-15
ssI61
(dp134
S'COLON'
p135
I112
ssI62
(dp136
g3
I-3
sg4
I-3
sg5
I-3
sg6
I-3
sg7
I-3
sg8
I-3
sg9
I-3
sg10
I-3
sg11
I-3
sg12
I-3
sg13
I-3
sg15
I-3
sg16
I-3
sg17
I-3
sg18
I-3
sg19
I-3
sg20
I-3
sg21
I-3
sg22
I-3
sg23
I-3
sg24
I-3
sg25
I-3
sg26
I-3
sg27
I-3
sg28
I-3
sg29
I-3
sg30
I-3
ssI63
(dp137
S'COLON'
p138
I113
ssI64
(dp139
g59
I74
sg60
I80
sg61
I89
sg62
I75
sg64
I76
sg65
I77
sg66
I82
sg70
I83
sg68
I86
sg69
I84
sS'INDENT'
p140
I116
ssI65
(dp141
g59
I74
sg60
I80
sg61
I89
sg62
I75
sg64
I76
sg65
I77
sg66
I82
sg70
I83
sg68
I86
sg69
I84
sg140
I116
ssI66
(dp142
S'WORD'
p143
I122
ssI67
(dp144
S'COMPILED_LIBRARY_ID'
p145
I123
sS'INSTALL_REQUIRES_ID'
p146
I135
sS'EXTENSION_ID'
p147
I124
sS'MODULES_ID'
p148
I136
sS'BUILD_REQUIRES_ID'
p149
I134
sS'PACKAGES_ID'
p150
I132
sS'IF'
p151
I137
ssI68
(dp152
g59
I74
sg60
I80
sg61
I89
sg62
I75
sg64
I76
sg65
I77
sg66
I82
sg70
I83
sg68
I86
sg69
I84
sg140
I116
ssI69
(dp153
S'MODULE_ID'
p154
I146
sS'FUNCTION_ID'
p155
I147
ssI70
(dp156
S'WORD'
p157
I148
ssI71
(dp158
g59
I74
sg60
I80
sg61
I89
sg62
I75
sg64
I76
sg65
I77
sg66
I82
sg67
I91
sg68
I86
sg69
I84
sg70
I83
sS'WS'
p159
I153
ssI72
(dp160
g59
I74
sg60
I80
sg61
I89
sg62
I75
sg64
I76
sg65
I77
sg66
I82
sg67
I91
sg68
I86
sg69
I84
sg70
I83
sg159
I153
ssI73
(dp161
g59
I74
sg60
I80
sg61
I89
sg62
I75
sg64
I76
sg65
I77
sg66
I82
sg67
I91
sg68
I86
sg69
I84
sg70
I83
sS'WS'
p162
I155
ssI74
(dp163
S'DEDENT'
p164
I-171
sg59
I-171
sg3
I-171
sg4
I-171
sg5
I-171
sg62
I-171
sg6
I-171
sg7
I-171
sg64
I-171
sg65
I-171
sg70
I-171
sg159
I-171
sg8
I-171
sg154
I-171
sg9
I-171
sg10
I-171
sg11
I-171
sS'INCLUDE_DIRS_ID'
p165
I-171
sg12
I-171
sg155
I-171
sg60
I-171
sg13
I-171
sS'SOURCES_ID'
p166
I-171
sS'NEWLINE'
p167
I-171
sg15
I-171
sg66
I-171
sg67
I-171
sg69
I-171
sg16
I-171
sg17
I-171
sg18
I-171
sg19
I-171
sS'SRCDIR_ID'
p168
I-171
sg20
I-171
sS'TARGET_ID'
p169
I-171
sg21
I-171
sg146
I-171
sg68
I-171
sg148
I-171
sg22
I-171
sg23
I-171
sg24
I-171
sg151
I-171
sg25
I-171
sS'FILES_ID'
p170
I-171
sg26
I-171
sS'INDENT'
p171
I-171
sg61
I-171
sg27
I-171
sg145
I-171
sg28
I-171
sg29
I-171
sS'DEFAULT_ID'
p172
I-171
sg30
I-171
sg150
I-171
sg149
I-171
sg147
I-171
ssI75
(dp173
g164
I-173
sg59
I-173
sg3
I-173
sg4
I-173
sg5
I-173
sg62
I-173
sg6
I-173
sg7
I-173
sg64
I-173
sg65
I-173
sg70
I-173
sg159
I-173
sg8
I-173
sg154
I-173
sg9
I-173
sg10
I-173
sg11
I-173
sg165
I-173
sg12
I-173
sg155
I-173
sg60
I-173
sg13
I-173
sg166
I-173
sg167
I-173
sg15
I-173
sg66
I-173
sg67
I-173
sg69
I-173
sg16
I-173
sg17
I-173
sg18
I-173
sg19
I-173
sg168
I-173
sg20
I-173
sg169
I-173
sg21
I-173
sg146
I-173
sg68
I-173
sg148
I-173
sg22
I-173
sg23
I-173
sg24
I-173
sg151
I-173
sg25
I-173
sg170
I-173
sg26
I-173
sg171
I-173
sg61
I-173
sg27
I-173
sg145
I-173
sg28
I-173
sg29
I-173
sg172
I-173
sg30
I-173
sg150
I-173
sg149
I-173
sg147
I-173
ssI76
(dp174
g164
I-176
sg59
I-176
sg3
I-176
sg4
I-176
sg5
I-176
sg62
I-176
sg6
I-176
sg7
I-176
sg64
I-176
sg65
I-176
sg70
I-176
sg159
I-176
sg8
I-176
sg154
I-176
sg9
I-176
sg10
I-176
sg11
I-176
sg165
I-176
sg12
I-176
sg155
I-176
sg60
I-176
sg13
I-176
sg166
I-176
sg167
I-176
sg15
I-176
sg66
I-176
sg67
I-176
sg69
I-176
sg16
I-176
sg17
I-176
sg18
I-176
sg19
I-176
sg168
I-176
sg20
I-176
sg169
I-176
sg21
I-176
sg146
I-176
sg68
I-176
sg148
I-176
sg22
I-176
sg23
I-176
sg24
I-176
sg151
I-176
sg25
I-176
sg170
I-176
sg26
I-176
sg171
I-176
sg61
I-176
sg27
I-176
sg145
I-176
sg28
I-176
sg29
I-176
sg172
I-176
sg30
I-176
sg150
I-176
sg149
I-176
sg147
I-176
ssI77
(dp175
g164
I-172
sg59
I-172
sg3
I-172
sg4
I-172
sg5
I-172
sg62
I-172
sg6
I-172
sg7
I-172
sg64
I-172
sg65
I-172
sg70
I-172
sg159
I-172
sg8
I-172
sg154
I-172
sg9
I-172
sg10
I-172
sg11
I-172
sg165
I-172
sg12
I-172
sg155
I-172
sg60
I-172
sg13
I-172
sg166
I-172
sg167
I-172
sg15
I-172
sg66
I-172
sg67
I-172
sg69
I-172
sg16
I-172
sg17
I-172
sg18
I-172
sg19
I-172
sg168
I-172
sg20
I-172
sg169
I-172
sg21
I-172
sg146
I-172
sg68
I-172
sg148
I-172
sg22
I-172
sg23
I-172
sg24
I-172
sg151
I-172
sg25
I-172
sg170
I-172
sg26
I-172
sg171
I-172
sg61
I-172
sg27
I-172
sg145
I-172
sg28
I-172
sg29
I-172
sg172
I-172
sg30
I-172
sg150
I-172
sg149
I-172
sg147
I-172
ssI78
(dp176
S'DEDENT'
p177
I-178
sg59
I-178
sg3
I-178
sg4
I-178
sg5
I-178
sg62
I-178
sg6
I-178
sg7
I-178
sg64
I-178
sg65
I-178
sg70
I-178
sg159
I-178
sg8
I-178
sg154
I-178
sg9
I-178
sg10
I-178
sg11
I-178
sg167
I-178
sg12
I-178
sg155
I-178
sg60
I-178
sg13
I-178
sg170
I-178
sg15
I-178
sg66
I-178
sg67
I-178
sg69
I-178
sg16
I-178
sg17
I-178
sg18
I-178
sg19
I-178
sg168
I-178
sg20
I-178
sg169
I-178
sg21
I-178
sg68
I-178
sg22
I-178
sg23
I-178
sg24
I-178
sg25
I-178
sg26
I-178
sg44
I-178
sg61
I-178
sg27
I-178
sg28
I-178
sg29
I-178
sS'DEFAULT_ID'
p178
I-178
sg30
I-178
ssI79
(dp179
g59
I74
sg60
I80
sg61
I89
sg62
I75
sS'NEWLINE'
p180
I157
sg64
I76
sg65
I77
sg66
I82
sg70
I83
sg68
I86
sg69
I84
sg67
I91
ssI80
(dp181
g164
I-168
sg59
I-168
sg3
I-168
sg4
I-168
sg5
I-168
sg62
I-168
sg6
I-168
sg7
I-168
sg64
I-168
sg65
I-168
sg70
I-168
sg159
I-168
sg8
I-168
sg154
I-168
sg9
I-168
sg10
I-168
sg11
I-168
sg165
I-168
sg12
I-168
sg155
I-168
sg60
I-168
sg13
I-168
sg166
I-168
sg167
I-168
sg15
I-168
sg66
I-168
sg67
I-168
sg69
I-168
sg16
I-168
sg17
I-168
sg18
I-168
sg19
I-168
sg168
I-168
sg20
I-168
sg169
I-168
sg21
I-168
sg146
I-168
sg68
I-168
sg148
I-168
sg22
I-168
sg23
I-168
sg24
I-168
sg151
I-168
sg25
I-168
sg170
I-168
sg26
I-168
sg171
I-168
sg61
I-168
sg27
I-168
sg145
I-168
sg28
I-168
sg29
I-168
sg172
I-168
sg30
I-168
sg150
I-168
sg149
I-168
sg147
I-168
ssI81
(dp182
S'INDENT'
p183
I159
ssI82
(dp184
g164
I-170
sg59
I-170
sg3
I-170
sg4
I-170
sg5
I-170
sg62
I-170
sg6
I-170
sg7
I-170
sg64
I-170
sg65
I-170
sg70
I-170
sg159
I-170
sg8
I-170
sg154
I-170
sg9
I-170
sg10
I-170
sg11
I-170
sg165
I-170
sg12
I-170
sg155
I-170
sg60
I-170
sg13
I-170
sg166
I-170
sg167
I-170
sg15
I-170
sg66
I-170
sg67
I-170
sg69
I-170
sg16
I-170
sg17
I-170
sg18
I-170
sg19
I-170
sg168
I-170
sg20
I-170
sg169
I-170
sg21
I-170
sg146
I-170
sg68
I-170
sg148
I-170
sg22
I-170
sg23
I-170
sg24
I-170
sg151
I-170
sg25
I-170
sg170
I-170
sg26
I-170
sg171
I-170
sg61
I-170
sg27
I-170
sg145
I-170
sg28
I-170
sg29
I-170
sg172
I-170
sg30
I-170
sg150
I-170
sg149
I-170
sg147
I-170
ssI83
(dp185
g164
I-169
sg59
I-169
sg3
I-169
sg4
I-169
sg5
I-169
sg62
I-169
sg6
I-169
sg7
I-169
sg64
I-169
sg65
I-169
sg70
I-169
sg159
I-169
sg8
I-169
sg154
I-169
sg9
I-169
sg10
I-169
sg11
I-169
sg165
I-169
sg12
I-169
sg155
I-169
sg60
I-169
sg13
I-169
sg166
I-169
sg167
I-169
sg15
I-169
sg66
I-169
sg67
I-169
sg69
I-169
sg16
I-169
sg17
I-169
sg18
I-169
sg19
I-169
sg168
I-169
sg20
I-169
sg169
I-169
sg21
I-169
sg146
I-169
sg68
I-169
sg148
I-169
sg22
I-169
sg23
I-169
sg24
I-169
sg151
I-169
sg25
I-169
sg170
I-169
sg26
I-169
sg171
I-169
sg61
I-169
sg27
I-169
sg145
I-169
sg28
I-169
sg29
I-169
sg172
I-169
sg30
I-169
sg150
I-169
sg149
I-169
sg147
I-169
ssI84
(dp186
g164
I-175
sg59
I-175
sg3
I-175
sg4
I-175
sg5
I-175
sg62
I-175
sg6
I-175
sg7
I-175
sg64
I-175
sg65
I-175
sg70
I-175
sg159
I-175
sg8
I-175
sg154
I-175
sg9
I-175
sg10
I-175
sg11
I-175
sg165
I-175
sg12
I-175
sg155
I-175
sg60
I-175
sg13
I-175
sg166
I-175
sg167
I-175
sg15
I-175
sg66
I-175
sg67
I-175
sg69
I-175
sg16
I-175
sg17
I-175
sg18
I-175
sg19
I-175
sg168
I-175
sg20
I-175
sg169
I-175
sg21
I-175
sg146
I-175
sg68
I-175
sg148
I-175
sg22
I-175
sg23
I-175
sg24
I-175
sg151
I-175
sg25
I-175
sg170
I-175
sg26
I-175
sg171
I-175
sg61
I-175
sg27
I-175
sg145
I-175
sg28
I-175
sg29
I-175
sg172
I-175
sg30
I-175
sg150
I-175
sg149
I-175
sg147
I-175
ssI85
(dp187
S'DEDENT'
p188
I-148
sg59
I74
sg3
I-148
sg4
I-148
sg5
I-148
sg62
I75
sg6
I-148
sg7
I-148
sg64
I76
sg65
I77
sg178
I-148
sg159
I153
sg8
I-148
sg9
I-148
sg10
I-148
sg11
I-148
sg12
I-148
sg60
I80
sg13
I-148
sg167
I-148
sg15
I-148
sg66
I82
sg67
I91
sg70
I83
sg16
I-148
sg17
I-148
sg18
I-148
sg19
I-148
sg20
I-148
sg21
I-148
sg68
I86
sg69
I84
sg22
I-148
sg23
I-148
sg24
I-148
sg25
I-148
sg26
I-148
sg61
I89
sg27
I-148
sg28
I-148
sg29
I-148
sg30
I-148
ssI86
(dp189
g164
I-174
sg59
I-174
sg3
I-174
sg4
I-174
sg5
I-174
sg62
I-174
sg6
I-174
sg7
I-174
sg64
I-174
sg65
I-174
sg70
I-174
sg159
I-174
sg8
I-174
sg154
I-174
sg9
I-174
sg10
I-174
sg11
I-174
sg165
I-174
sg12
I-174
sg155
I-174
sg60
I-174
sg13
I-174
sg166
I-174
sg167
I-174
sg15
I-174
sg66
I-174
sg67
I-174
sg69
I-174
sg16
I-174
sg17
I-174
sg18
I-174
sg19
I-174
sg168
I-174
sg20
I-174
sg169
I-174
sg21
I-174
sg146
I-174
sg68
I-174
sg148
I-174
sg22
I-174
sg23
I-174
sg24
I-174
sg151
I-174
sg25
I-174
sg170
I-174
sg26
I-174
sg171
I-174
sg61
I-174
sg27
I-174
sg145
I-174
sg28
I-174
sg29
I-174
sg172
I-174
sg30
I-174
sg150
I-174
sg149
I-174
sg147
I-174
ssI87
(dp190
g3
I-154
sg4
I-154
sg5
I-154
sg6
I-154
sg7
I-154
sg8
I-154
sg9
I-154
sg10
I-154
sg11
I-154
sg12
I-154
sg13
I-154
sg167
I161
sg15
I-154
sg16
I-154
sg17
I-154
sg18
I-154
sg19
I-154
sg20
I-154
sg21
I-154
sg22
I-154
sg23
I-154
sg24
I-154
sg25
I-154
sg26
I-154
sg27
I-154
sg28
I-154
sg29
I-154
sg30
I-154
ssI88
(dp191
S'DEDENT'
p192
I-150
sg59
I-150
sg3
I-150
sg4
I-150
sg5
I-150
sg62
I-150
sg6
I-150
sg7
I-150
sg64
I-150
sg65
I-150
sg172
I-150
sg159
I-150
sg8
I-150
sg9
I-150
sg10
I-150
sg11
I-150
sg167
I-150
sg12
I-150
sg60
I-150
sg13
I-150
sg70
I-150
sg15
I-150
sg66
I-150
sg67
I-150
sg69
I-150
sg16
I-150
sg17
I-150
sg18
I-150
sg19
I-150
sg20
I-150
sg21
I-150
sg68
I-150
sg22
I-150
sg23
I-150
sg24
I-150
sg25
I-150
sg26
I-150
sg61
I-150
sS'DESCRIPTION_ID'
p193
I-150
sg28
I-150
sg29
I-150
sg30
I-150
ssI89
(dp194
g164
I-177
sg59
I-177
sg3
I-177
sg4
I-177
sg5
I-177
sg62
I-177
sg6
I-177
sg7
I-177
sg64
I-177
sg65
I-177
sg70
I-177
sg159
I-177
sg8
I-177
sg154
I-177
sg9
I-177
sg10
I-177
sg11
I-177
sg165
I-177
sg12
I-177
sg155
I-177
sg60
I-177
sg13
I-177
sg166
I-177
sg167
I-177
sg15
I-177
sg66
I-177
sg67
I-177
sg69
I-177
sg16
I-177
sg17
I-177
sg18
I-177
sg19
I-177
sg168
I-177
sg20
I-177
sg169
I-177
sg21
I-177
sg146
I-177
sg68
I-177
sg148
I-177
sg22
I-177
sg23
I-177
sg24
I-177
sg151
I-177
sg25
I-177
sg170
I-177
sg26
I-177
sg171
I-177
sg61
I-177
sg27
I-177
sg145
I-177
sg28
I-177
sg29
I-177
sg172
I-177
sg30
I-177
sg150
I-177
sg149
I-177
sg147
I-177
ssI90
(dp195
S'INDENT'
p196
I163
ssI91
(dp197
g177
I-179
sg59
I-179
sg3
I-179
sg4
I-179
sg5
I-179
sg62
I-179
sg6
I-179
sg7
I-179
sg64
I-179
sg65
I-179
sg70
I-179
sg159
I-179
sg8
I-179
sg154
I-179
sg9
I-179
sg10
I-179
sg11
I-179
sg167
I-179
sg12
I-179
sg155
I-179
sg60
I-179
sg13
I-179
sg170
I-179
sg15
I-179
sg66
I-179
sg67
I-179
sg69
I-179
sg16
I-179
sg17
I-179
sg18
I-179
sg19
I-179
sg168
I-179
sg20
I-179
sg169
I-179
sg21
I-179
sg68
I-179
sg22
I-179
sg23
I-179
sg24
I-179
sg25
I-179
sg26
I-179
sg44
I-179
sg61
I-179
sg27
I-179
sg28
I-179
sg29
I-179
sg178
I-179
sg30
I-179
ssI92
(dp198
S'DESCRIPTION_ID'
p199
I167
sg178
I169
ssI93
(dp200
g193
I170
sg172
I172
ssI94
(dp201
g143
I122
ssI95
(dp202
g59
I74
sg60
I80
sg61
I89
sg62
I75
sg64
I76
sg65
I77
sg66
I82
sg67
I91
sg68
I86
sg69
I84
sg70
I83
sg159
I153
ssI96
(dp203
g59
I74
sg60
I80
sg61
I89
sg62
I75
sg64
I76
sg65
I77
sg66
I82
sg67
I91
sg68
I86
sg69
I84
sg70
I83
sg159
I153
ssI97
(dp204
g143
I122
ssI98
(dp205
g59
I74
sg60
I80
sg61
I89
sg62
I75
sg64
I76
sg65
I77
sg66
I82
sg67
I91
sg68
I86
sg69
I84
sg70
I83
sg162
I155
ssI99
(dp206
g59
I74
sg60
I80
sg61
I89
sg62
I75
sg64
I76
sg65
I77
sg66
I82
sg67
I91
sg68
I86
sg69
I84
sg70
I83
sg159
I153
ssI100
(dp207
g3
I-60
sg4
I-60
sg5
I-60
sg6
I-60
sg7
I-60
sg8
I-60
sg9
I-60
sg10
I-60
sg11
I-60
sg12
I-60
sg13
I-60
sg15
I-60
sg16
I-60
sg17
I-60
sg18
I-60
sg19
I-60
sg20
I-60
sg21
I-60
sg22
I-60
sg23
I-60
sg24
I-60
sg25
I-60
sg26
I-60
sg27
I-60
sg28
I-60
sg29
I-60
sg30
I-60
ssI101
(dp208
g59
I74
sg60
I80
sg61
I89
sg62
I75
sg64
I76
sg65
I77
sg66
I82
sg70
I83
sg68
I86
sg69
I84
sg140
I116
ssI102
(dp209
g59
I74
sg60
I80
sg61
I89
sg62
I75
sg64
I76
sg65
I77
sg66
I82
sg67
I91
sg68
I86
sg69
I84
sg70
I83
sg162
I155
ssI103
(dp210
g3
I-78
sg4
I-78
sg5
I-78
sg6
I-78
sg7
I-78
sg8
I-78
sg9
I-78
sg10
I-78
sg11
I-78
sg12
I-78
sg143
I122
sg13
I-78
sg15
I-78
sg16
I-78
sg17
I-78
sg18
I-78
sg19
I-78
sg20
I-78
sg21
I-78
sg22
I-78
sg23
I-78
sg24
I-78
sg25
I-78
sg26
I-78
sg40
I-78
sg27
I-78
sg28
I-78
sg29
I-78
sg30
I-78
ssI104
(dp211
g59
I74
sg60
I80
sg61
I89
sg62
I75
sg64
I76
sg65
I77
sg66
I82
sg67
I91
sg68
I86
sg69
I84
sg70
I83
sg159
I153
ssI105
(dp212
g59
I74
sg60
I80
sg61
I89
sg62
I75
sg64
I76
sg65
I77
sg66
I82
sg67
I91
sg68
I86
sg69
I84
sg70
I83
sg159
I153
ssI106
(dp213
g59
I74
sg60
I80
sg61
I89
sg62
I75
sg64
I76
sg65
I77
sg66
I82
sg67
I91
sg68
I86
sg69
I84
sg70
I83
sg159
I153
ssI107
(dp214
g168
I196
sg169
I193
sg170
I192
ssI108
(dp215
g3
I-1
sg4
I-1
sg5
I-1
sg6
I-1
sg7
I-1
sg8
I-1
sg9
I-1
sg10
I-1
sg11
I-1
sg12
I-1
sg13
I-1
sg15
I-1
sg16
I-1
sg17
I-1
sg18
I-1
sg19
I-1
sg20
I-1
sg21
I-1
sg22
I-1
sg23
I-1
sg24
I-1
sg25
I-1
sg26
I-1
sg27
I-1
sg28
I-1
sg29
I-1
sg30
I-1
ssI109
(dp216
g59
I74
sg60
I80
sg61
I89
sg62
I75
sg64
I76
sg65
I77
sg66
I82
sg70
I83
sg68
I86
sg69
I84
sg140
I116
ssI110
(dp217
S'WORD'
p218
I204
sS'DOUBLE_COLON'
p219
I202
sS'INDENT'
p220
I201
sS'WS'
p221
I206
ssI111
(dp222
g59
I-156
sg60
I-156
sg61
I-156
sg62
I-156
sg63
I-156
sg64
I-156
sg65
I-156
sg66
I-156
sg67
I-156
sg68
I-156
sg69
I-156
sg70
I-156
sg71
I-156
ssI112
(dp223
S'WORD'
p224
I207
ssI113
(dp225
g59
I74
sg60
I80
sg61
I89
sg62
I75
sg64
I76
sg65
I77
sg66
I82
sg67
I91
sg68
I86
sg69
I84
sg70
I83
sg159
I153
ssI114
(dp226
S'DEDENT'
p227
I-142
sg3
I-142
sg4
I-142
sg5
I-142
sg170
I-142
sg6
I-142
sg7
I-142
sg8
I-142
sg9
I-142
sg10
I-142
sg11
I-142
sg165
I-142
sg12
I-142
sg13
I-142
sg15
I-142
sg166
I-142
sS'COMMA'
p228
I209
sg16
I-142
sg17
I-142
sg18
I-142
sg19
I-142
sg168
I-142
sg20
I-142
sg169
I-142
sg21
I-142
sg146
I-142
sg148
I-142
sg22
I-142
sg23
I-142
sg24
I-142
sg151
I-142
sg25
I-142
sg26
I-142
sg27
I-142
sg145
I-142
sg28
I-142
sg29
I-142
sg30
I-142
sg150
I-142
sg149
I-142
sg147
I-142
ssI115
(dp229
S'DEDENT'
p230
I-167
sg59
I-167
sg3
I-167
sg4
I-167
sg5
I-167
sg62
I-167
sg6
I-167
sg7
I-167
sg64
I-167
sg65
I-167
sg147
I-167
sg9
I-167
sg165
I-167
sg11
I-167
sg10
I-167
sg12
I-167
sg60
I-167
sg8
I-167
sg13
I-167
sg170
I-167
sg15
I-167
sg66
I-167
sg70
I-167
sg69
I-167
sg16
I-167
sg17
I-167
sg150
I-167
sg19
I-167
sg168
I-167
sg20
I-167
sg169
I-167
sg21
I-167
sg146
I-167
sg68
I-167
sg148
I-167
sg22
I-167
sg23
I-167
sg24
I-167
sg151
I-167
sg25
I-167
sg26
I-167
sg61
I-167
sg27
I-167
sg145
I-167
sg28
I-167
sg29
I-167
sg30
I-167
sg18
I-167
sg149
I-167
sg228
I-167
sg166
I-167
ssI116
(dp231
g59
I74
sg60
I80
sg61
I89
sg62
I75
sg64
I76
sg65
I77
sg66
I82
sg70
I83
sg68
I86
sg69
I84
ssI117
(dp232
g227
I-146
sg59
I74
sg3
I-146
sg4
I-146
sg5
I-146
sg170
I-146
sg6
I-146
sg7
I-146
sg64
I76
sg65
I77
sg70
I83
sg147
I-146
sg9
I-146
sg165
I-146
sg11
I-146
sg10
I-146
sg12
I-146
sg60
I80
sg8
I-146
sg13
I-146
sg62
I75
sg15
I-146
sg66
I82
sg228
I-146
sg166
I-146
sg16
I-146
sg17
I-146
sg150
I-146
sg19
I-146
sg168
I-146
sg69
I84
sg20
I-146
sg169
I-146
sg21
I-146
sg146
I-146
sg68
I86
sg148
I-146
sg22
I-146
sg23
I-146
sg24
I-146
sg151
I-146
sg25
I-146
sg26
I-146
sg61
I89
sg27
I-146
sg145
I-146
sg28
I-146
sg29
I-146
sg30
I-146
sg18
I-146
sg149
I-146
ssI118
(dp233
g3
I-61
sg4
I-61
sg5
I-61
sg6
I-61
sg7
I-61
sg8
I-61
sg9
I-61
sg10
I-61
sg11
I-61
sg12
I-61
sg13
I-61
sg15
I-61
sg16
I-61
sg17
I-61
sg18
I-61
sg19
I-61
sg20
I-61
sg21
I-61
sg22
I-61
sg23
I-61
sg24
I-61
sg25
I-61
sg26
I-61
sg27
I-61
sg28
I-61
sg29
I-61
sg30
I-61
ssI119
(dp234
g227
I-141
sg3
I-141
sg4
I-141
sg5
I-141
sg170
I-141
sg6
I-141
sg7
I-141
sg8
I-141
sg9
I-141
sg10
I-141
sg11
I-141
sg165
I-141
sg12
I-141
sg13
I-141
sg15
I-141
sg166
I-141
sg16
I-141
sg17
I-141
sg18
I-141
sg19
I-141
sg168
I-141
sg20
I-141
sg169
I-141
sg21
I-141
sg146
I-141
sg148
I-141
sg22
I-141
sg23
I-141
sg24
I-141
sg151
I-141
sg25
I-141
sg26
I-141
sg27
I-141
sg145
I-141
sg28
I-141
sg29
I-141
sg30
I-141
sg150
I-141
sg149
I-141
sg147
I-141
ssI120
(dp235
g3
I-44
sg4
I-44
sg5
I-44
sg6
I-44
sg7
I-44
sg8
I-44
sg9
I-44
sg10
I-44
sg11
I-44
sg12
I-44
sg13
I-44
sg15
I-44
sg16
I-44
sg17
I-44
sg18
I-44
sg19
I-44
sg20
I-44
sg21
I-44
sg22
I-44
sg23
I-44
sg24
I-44
sg25
I-44
sg26
I-44
sg27
I-44
sg28
I-44
sg29
I-44
sg30
I-44
ssI121
(dp236
g3
I-46
sg4
I-46
sg5
I-46
sg6
I-46
sg7
I-46
sg8
I-46
sg9
I-46
sg10
I-46
sg11
I-46
sg12
I-46
sg13
I-46
sg15
I-46
sg16
I-46
sg17
I-46
sg18
I-46
sg19
I-46
sg20
I-46
sg21
I-46
sg22
I-46
sg23
I-46
sg24
I-46
sg25
I-46
sg26
I-46
sg27
I-46
sg28
I-46
sg29
I-46
sg30
I-46
ssI122
(dp237
g3
I-186
sg4
I-186
sg5
I-186
sg6
I-186
sg7
I-186
sS'RPAR'
p238
I-186
sg8
I-186
sg9
I-186
sg10
I-186
sg11
I-186
sg12
I-186
sg13
I-186
sg15
I-186
sg16
I-186
sg17
I-186
sg18
I-186
sg19
I-186
sg20
I-186
sg21
I-186
sg22
I-186
sg23
I-186
sg24
I-186
sg25
I-186
sg26
I-186
sg40
I-186
sg27
I-186
sg28
I-186
sg29
I-186
sg30
I-186
ssI123
(dp239
S'COLON'
p240
I212
ssI124
(dp241
S'COLON'
p242
I213
ssI125
(dp243
S'DEDENT'
p244
I-80
sg145
I-80
sg146
I-80
sg147
I-80
sg148
I-80
sg149
I-80
sg150
I-80
sg151
I-80
ssI126
(dp245
g244
I-84
sg145
I-84
sg146
I-84
sg147
I-84
sg148
I-84
sg149
I-84
sg150
I-84
sg151
I-84
ssI127
(dp246
g244
I-82
sg145
I-82
sg146
I-82
sg147
I-82
sg148
I-82
sg149
I-82
sg150
I-82
sg151
I-82
ssI128
(dp247
g244
I-86
sg145
I-86
sg146
I-86
sg147
I-86
sg148
I-86
sg149
I-86
sg150
I-86
sg151
I-86
ssI129
(dp248
g244
I-83
sg145
I-83
sg146
I-83
sg147
I-83
sg148
I-83
sg149
I-83
sg150
I-83
sg151
I-83
ssI130
(dp249
g244
I-81
sg145
I-81
sg146
I-81
sg147
I-81
sg148
I-81
sg149
I-81
sg150
I-81
sg151
I-81
ssI131
(dp250
g227
I214
sg145
I123
sg146
I135
sg147
I124
sg148
I136
sg149
I134
sg150
I132
sg151
I137
ssI132
(dp251
S'COLON'
p252
I216
ssI133
(dp253
g244
I-85
sg145
I-85
sg146
I-85
sg147
I-85
sg148
I-85
sg149
I-85
sg150
I-85
sg151
I-85
ssI134
(dp254
S'COLON'
p255
I217
ssI135
(dp256
S'COLON'
p257
I218
ssI136
(dp258
S'COLON'
p259
I219
ssI137
(dp260
S'FALSE'
p261
I224
sS'OS_OP'
p262
I225
sS'error'
p263
I226
sS'NOT_OP'
p264
I220
sS'TRUE'
p265
I229
sS'FLAG_OP'
p266
I221
ssI138
(dp267
g244
I-87
sg145
I-87
sg146
I-87
sg147
I-87
sg148
I-87
sg149
I-87
sg150
I-87
sg151
I-87
ssI139
(dp268
S'INDENT'
p269
I230
ssI140
(dp270
S'INDENT'
p271
I231
ssI141
(dp272
g3
I-43
sg4
I-43
sg5
I-43
sg6
I-43
sg7
I-43
sg8
I-43
sg9
I-43
sg10
I-43
sg11
I-43
sg12
I-43
sg13
I-43
sg15
I-43
sg16
I-43
sg17
I-43
sg18
I-43
sg19
I-43
sg20
I-43
sg21
I-43
sg22
I-43
sg23
I-43
sg24
I-43
sg25
I-43
sg26
I-43
sg27
I-43
sg28
I-43
sg29
I-43
sg30
I-43
ssI142
(dp273
g164
I-137
sg154
I-137
sg155
I-137
ssI143
(dp274
g164
I232
sg154
I146
sg155
I147
ssI144
(dp275
g164
I-138
sg154
I-138
sg155
I-138
ssI145
(dp276
g164
I-136
sg154
I-136
sg155
I-136
ssI146
(dp277
S'COLON'
p278
I234
ssI147
(dp279
S'COLON'
p280
I235
ssI148
(dp281
g3
I-187
sg4
I-187
sg5
I-187
sg6
I-187
sg7
I-187
sg8
I-187
sg9
I-187
sg10
I-187
sg11
I-187
sg12
I-187
sg13
I-187
sg15
I-187
sg16
I-187
sg17
I-187
sg18
I-187
sg19
I-187
sg20
I-187
sg21
I-187
sg22
I-187
sg23
I-187
sg24
I-187
sg25
I-187
sg26
I-187
sg27
I-187
sg28
I-187
sg29
I-187
sg30
I-187
ssI149
(dp282
g3
I-45
sg4
I-45
sg5
I-45
sg6
I-45
sg7
I-45
sg8
I-45
sg9
I-45
sg10
I-45
sg11
I-45
sg12
I-45
sg13
I-45
sg15
I-45
sg16
I-45
sg17
I-45
sg18
I-45
sg19
I-45
sg20
I-45
sg21
I-45
sg22
I-45
sg23
I-45
sg24
I-45
sg25
I-45
sg26
I-45
sg27
I-45
sg28
I-45
sg29
I-45
sg30
I-45
ssI150
(dp283
g188
I-180
sg59
I-180
sg3
I-180
sg4
I-180
sg5
I-180
sg62
I-180
sg6
I-180
sg7
I-180
sg64
I-180
sg65
I-180
sg70
I-180
sg159
I-180
sg8
I-180
sg154
I-180
sg9
I-180
sg10
I-180
sg11
I-180
sg167
I-180
sg12
I-180
sg155
I-180
sg60
I-180
sg13
I-180
sg170
I-180
sg15
I-180
sg66
I-180
sg67
I-180
sg69
I-180
sg16
I-180
sg17
I-180
sg18
I-180
sg19
I-180
sg168
I-180
sg20
I-180
sg169
I-180
sg21
I-180
sg68
I-180
sg22
I-180
sg23
I-180
sg24
I-180
sg25
I-180
sg26
I-180
sg44
I-180
sg61
I-180
sg27
I-180
sg28
I-180
sg29
I-180
sg178
I-180
sg30
I-180
ssI151
(dp284
g192
I-165
sg59
I-165
sg3
I-165
sg4
I-165
sg5
I-165
sg62
I-165
sg6
I-165
sg7
I-165
sg64
I-165
sg65
I-165
sg70
I-165
sg159
I-165
sg8
I-165
sg154
I-165
sg9
I-165
sg10
I-165
sg11
I-165
sg12
I-165
sg155
I-165
sg60
I-165
sg13
I-165
sg170
I-165
sg15
I-165
sg66
I-165
sg67
I-165
sg69
I-165
sg16
I-165
sg17
I-165
sg18
I-165
sg19
I-165
sg168
I-165
sg20
I-165
sg169
I-165
sg21
I-165
sg68
I-165
sg22
I-165
sg23
I-165
sg24
I-165
sg25
I-165
sg26
I-165
sg75
I-165
sg61
I-165
sg27
I-165
sg28
I-165
sg29
I-165
sg172
I-165
sg30
I-165
ssI152
(dp285
g59
I74
sg73
I-126
sg61
I89
sg62
I75
sg69
I84
sg64
I76
sg65
I77
sg66
I82
sg159
I153
sg68
I86
sg60
I80
sg70
I83
sg67
I91
ssI153
(dp286
g188
I-181
sg59
I-181
sg3
I-181
sg4
I-181
sg5
I-181
sg62
I-181
sg6
I-181
sg7
I-181
sg64
I-181
sg65
I-181
sg70
I-181
sg159
I-181
sg8
I-181
sg154
I-181
sg9
I-181
sg10
I-181
sg11
I-181
sg167
I-181
sg12
I-181
sg155
I-181
sg60
I-181
sg13
I-181
sg170
I-181
sg15
I-181
sg66
I-181
sg67
I-181
sg69
I-181
sg16
I-181
sg17
I-181
sg18
I-181
sg19
I-181
sg168
I-181
sg20
I-181
sg169
I-181
sg21
I-181
sg68
I-181
sg22
I-181
sg23
I-181
sg24
I-181
sg25
I-181
sg26
I-181
sg44
I-181
sg61
I-181
sg27
I-181
sg28
I-181
sg29
I-181
sg178
I-181
sg30
I-181
ssI154
(dp287
g59
I74
sg3
I-35
sg4
I-35
sg5
I-35
sg62
I75
sg6
I-35
sg7
I-35
sg64
I76
sg65
I77
sg159
I153
sg8
I-35
sg9
I-35
sg10
I-35
sg11
I-35
sg12
I-35
sg60
I80
sg13
I-35
sg15
I-35
sg66
I82
sg67
I91
sg70
I83
sg16
I-35
sg17
I-35
sg18
I-35
sg19
I-35
sg20
I-35
sg21
I-35
sg68
I86
sg69
I84
sg22
I-35
sg23
I-35
sg24
I-35
sg25
I-35
sg26
I-35
sg61
I89
sg27
I-35
sg28
I-35
sg29
I-35
sg30
I-35
ssI155
(dp288
g59
I74
sg60
I80
sg61
I89
sg62
I75
sg64
I76
sg65
I77
sg66
I82
sg70
I83
sg68
I86
sg69
I84
sg67
I91
ssI156
(dp289
g3
I-34
sg4
I-34
sg5
I-34
sg6
I-34
sg7
I-34
sg8
I-34
sg9
I-34
sg10
I-34
sg11
I-34
sg12
I-34
sg13
I-34
sg15
I-34
sg16
I-34
sg17
I-34
sg18
I-34
sg19
I-34
sg20
I-34
sg21
I-34
sg22
I-34
sg23
I-34
sg24
I-34
sg25
I-34
sg26
I-34
sg27
I-34
sg28
I-34
sg29
I-34
sg30
I-34
ssI157
(dp290
S'INDENT'
p291
I237
ssI158
(dp292
g188
I-147
sg59
I74
sg3
I-147
sg4
I-147
sg5
I-147
sg62
I75
sg6
I-147
sg7
I-147
sg64
I76
sg65
I77
sg178
I-147
sg159
I153
sg8
I-147
sg9
I-147
sg10
I-147
sg11
I-147
sg12
I-147
sg60
I80
sg13
I-147
sg167
I-147
sg15
I-147
sg66
I82
sg67
I91
sg70
I83
sg16
I-147
sg17
I-147
sg18
I-147
sg19
I-147
sg20
I-147
sg21
I-147
sg68
I86
sg69
I84
sg22
I-147
sg23
I-147
sg24
I-147
sg25
I-147
sg26
I-147
sg61
I89
sg27
I-147
sg28
I-147
sg29
I-147
sg30
I-147
ssI159
(dp293
g59
I74
sg171
I245
sg61
I89
sg62
I75
sg69
I84
sg167
I161
sg64
I76
sg65
I77
sg66
I82
sg159
I153
sg68
I86
sg60
I80
sg70
I83
sg67
I91
ssI160
(dp294
g192
I-149
sg59
I-149
sg3
I-149
sg4
I-149
sg5
I-149
sg62
I-149
sg6
I-149
sg7
I-149
sg64
I-149
sg65
I-149
sg172
I-149
sg159
I-149
sg8
I-149
sg9
I-149
sg10
I-149
sg11
I-149
sg167
I-149
sg12
I-149
sg60
I-149
sg13
I-149
sg70
I-149
sg15
I-149
sg66
I-149
sg67
I-149
sg69
I-149
sg16
I-149
sg17
I-149
sg18
I-149
sg19
I-149
sg20
I-149
sg21
I-149
sg68
I-149
sg22
I-149
sg23
I-149
sg24
I-149
sg25
I-149
sg26
I-149
sg61
I-149
sg193
I-149
sg28
I-149
sg29
I-149
sg30
I-149
ssI161
(dp295
S'DEDENT'
p296
I-163
sg59
I-163
sg171
I-163
sg61
I-163
sg62
I-163
sg69
I-163
sg167
I-163
sg64
I-163
sg65
I-163
sg66
I-163
sg159
I-163
sg68
I-163
sg60
I-163
sg70
I-163
sg67
I-163
ssI162
(dp297
g196
I-155
ssI163
(dp298
g59
I74
sg171
I245
sg61
I89
sg62
I75
sg69
I84
sg167
I161
sg64
I76
sg65
I77
sg66
I82
sg159
I153
sg68
I86
sg60
I80
sg70
I83
sg67
I91
ssI164
(dp299
g188
I247
sg199
I167
sg178
I169
ssI165
(dp300
g188
I-129
sg199
I-129
sg178
I-129
ssI166
(dp301
g188
I-130
sg199
I-130
sg178
I-130
ssI167
(dp302
S'COLON'
p303
I249
ssI168
(dp304
g188
I-128
sg199
I-128
sg178
I-128
ssI169
(dp305
S'COLON'
p306
I250
ssI170
(dp307
S'COLON'
p308
I251
ssI171
(dp309
g192
I-120
sg193
I-120
sg172
I-120
ssI172
(dp310
S'COLON'
p311
I252
ssI173
(dp312
g192
I-121
sg193
I-121
sg172
I-121
ssI174
(dp313
g192
I-122
sg193
I-122
sg172
I-122
ssI175
(dp314
g192
I253
sg193
I170
sg172
I172
ssI176
(dp315
g3
I-47
sg4
I-47
sg5
I-47
sg6
I-47
sg7
I-47
sg8
I-47
sg9
I-47
sg10
I-47
sg11
I-47
sg12
I-47
sg13
I-47
sg15
I-47
sg16
I-47
sg17
I-47
sg18
I-47
sg19
I-47
sg20
I-47
sg21
I-47
sg22
I-47
sg23
I-47
sg24
I-47
sg25
I-47
sg26
I-47
sg27
I-47
sg28
I-47
sg29
I-47
sg30
I-47
ssI177
(dp316
g59
I74
sg3
I-42
sg4
I-42
sg5
I-42
sg62
I75
sg6
I-42
sg7
I-42
sg64
I76
sg65
I77
sg159
I153
sg8
I-42
sg9
I-42
sg10
I-42
sg11
I-42
sg12
I-42
sg60
I80
sg13
I-42
sg15
I-42
sg66
I82
sg67
I91
sg70
I83
sg16
I-42
sg17
I-42
sg18
I-42
sg19
I-42
sg20
I-42
sg21
I-42
sg68
I86
sg69
I84
sg22
I-42
sg23
I-42
sg24
I-42
sg25
I-42
sg26
I-42
sg61
I89
sg27
I-42
sg28
I-42
sg29
I-42
sg30
I-42
ssI178
(dp317
g59
I74
sg75
I-118
sg61
I89
sg62
I75
sg69
I84
sg64
I76
sg65
I77
sg66
I82
sg159
I153
sg68
I86
sg60
I80
sg70
I83
sg67
I91
ssI179
(dp318
g118
I-65
ssI180
(dp319
g3
I-37
sg4
I-37
sg5
I-37
sg6
I-37
sg7
I-37
sg8
I-37
sg9
I-37
sg10
I-37
sg11
I-37
sg12
I-37
sg13
I-37
sg15
I-37
sg16
I-37
sg17
I-37
sg18
I-37
sg19
I-37
sg20
I-37
sg21
I-37
sg22
I-37
sg23
I-37
sg24
I-37
sg25
I-37
sg26
I-37
sg27
I-37
sg28
I-37
sg29
I-37
sg30
I-37
ssI181
(dp320
g59
I74
sg44
I-134
sg61
I89
sg62
I75
sg69
I84
sg64
I76
sg65
I77
sg66
I82
sg159
I153
sg68
I86
sg60
I80
sg70
I83
sg67
I91
ssI182
(dp321
g3
I-62
sg4
I-62
sg5
I-62
sg6
I-62
sg7
I-62
sg8
I-62
sg9
I-62
sg10
I-62
sg11
I-62
sg12
I-62
sg13
I-62
sg15
I-62
sg16
I-62
sg17
I-62
sg18
I-62
sg19
I-62
sg20
I-62
sg21
I-62
sg22
I-62
sg23
I-62
sg24
I-62
sg25
I-62
sg26
I-62
sg27
I-62
sg28
I-62
sg29
I-62
sg30
I-62
ssI183
(dp322
g3
I-39
sg4
I-39
sg5
I-39
sg6
I-39
sg7
I-39
sg8
I-39
sg9
I-39
sg10
I-39
sg11
I-39
sg12
I-39
sg13
I-39
sg15
I-39
sg16
I-39
sg17
I-39
sg18
I-39
sg19
I-39
sg20
I-39
sg21
I-39
sg22
I-39
sg23
I-39
sg24
I-39
sg25
I-39
sg26
I-39
sg27
I-39
sg28
I-39
sg29
I-39
sg30
I-39
ssI184
(dp323
g3
I-77
sg4
I-77
sg5
I-77
sg6
I-77
sg7
I-77
sg8
I-77
sg9
I-77
sg10
I-77
sg11
I-77
sg12
I-77
sg13
I-77
sg15
I-77
sg16
I-77
sg17
I-77
sg18
I-77
sg19
I-77
sg20
I-77
sg21
I-77
sg22
I-77
sg23
I-77
sg24
I-77
sg25
I-77
sg26
I-77
sg40
I-77
sg27
I-77
sg28
I-77
sg29
I-77
sg30
I-77
ssI185
(dp324
g3
I-76
sg4
I-76
sg5
I-76
sg6
I-76
sg7
I-76
sg8
I-76
sg9
I-76
sg10
I-76
sg11
I-76
sg12
I-76
sg13
I-76
sg15
I-76
sg16
I-76
sg17
I-76
sg18
I-76
sg19
I-76
sg20
I-76
sg21
I-76
sg22
I-76
sg23
I-76
sg24
I-76
sg25
I-76
sg26
I-76
sg40
I-76
sg27
I-76
sg28
I-76
sg29
I-76
sg30
I-76
ssI186
(dp325
g59
I74
sg3
I-41
sg4
I-41
sg5
I-41
sg62
I75
sg6
I-41
sg7
I-41
sg64
I76
sg65
I77
sg159
I153
sg8
I-41
sg9
I-41
sg10
I-41
sg11
I-41
sg12
I-41
sg60
I80
sg13
I-41
sg15
I-41
sg66
I82
sg67
I91
sg70
I83
sg16
I-41
sg17
I-41
sg18
I-41
sg19
I-41
sg20
I-41
sg21
I-41
sg68
I86
sg69
I84
sg22
I-41
sg23
I-41
sg24
I-41
sg25
I-41
sg26
I-41
sg61
I89
sg27
I-41
sg28
I-41
sg29
I-41
sg30
I-41
ssI187
(dp326
g59
I74
sg3
I-36
sg4
I-36
sg5
I-36
sg62
I75
sg6
I-36
sg7
I-36
sg64
I76
sg65
I77
sg159
I153
sg8
I-36
sg9
I-36
sg10
I-36
sg11
I-36
sg12
I-36
sg60
I80
sg13
I-36
sg15
I-36
sg66
I82
sg67
I91
sg70
I83
sg16
I-36
sg17
I-36
sg18
I-36
sg19
I-36
sg20
I-36
sg21
I-36
sg68
I86
sg69
I84
sg22
I-36
sg23
I-36
sg24
I-36
sg25
I-36
sg26
I-36
sg61
I89
sg27
I-36
sg28
I-36
sg29
I-36
sg30
I-36
ssI188
(dp327
g59
I74
sg3
I-40
sg4
I-40
sg5
I-40
sg62
I75
sg6
I-40
sg7
I-40
sg64
I76
sg65
I77
sg159
I153
sg8
I-40
sg9
I-40
sg10
I-40
sg11
I-40
sg12
I-40
sg60
I80
sg13
I-40
sg15
I-40
sg66
I82
sg67
I91
sg70
I83
sg16
I-40
sg17
I-40
sg18
I-40
sg19
I-40
sg20
I-40
sg21
I-40
sg68
I86
sg69
I84
sg22
I-40
sg23
I-40
sg24
I-40
sg25
I-40
sg26
I-40
sg61
I89
sg27
I-40
sg28
I-40
sg29
I-40
sg30
I-40
ssI189
(dp328
g177
I255
sg168
I196
sg169
I193
sg170
I192
ssI190
(dp329
g177
I-68
sg168
I-68
sg169
I-68
sg170
I-68
ssI191
(dp330
g177
I-69
sg168
I-69
sg169
I-69
sg170
I-69
ssI192
(dp331
S'COLON'
p332
I257
ssI193
(dp333
S'COLON'
p334
I258
ssI194
(dp335
g177
I-67
sg168
I-67
sg169
I-67
sg170
I-67
ssI195
(dp336
g177
I-70
sg168
I-70
sg169
I-70
sg170
I-70
ssI196
(dp337
S'COLON'
p338
I259
ssI197
(dp339
g3
I-63
sg4
I-63
sg5
I-63
sg6
I-63
sg7
I-63
sg8
I-63
sg9
I-63
sg10
I-63
sg11
I-63
sg12
I-63
sg13
I-63
sg15
I-63
sg16
I-63
sg17
I-63
sg18
I-63
sg19
I-63
sg20
I-63
sg21
I-63
sg22
I-63
sg23
I-63
sg24
I-63
sg25
I-63
sg26
I-63
sg27
I-63
sg28
I-63
sg29
I-63
sg30
I-63
ssI198
(dp340
g3
I-49
sg4
I-49
sg5
I-49
sg6
I-49
sg7
I-49
sg8
I-49
sg9
I-49
sg10
I-49
sg11
I-49
sg12
I-49
sg13
I-49
sg15
I-49
sg16
I-49
sg17
I-49
sg18
I-49
sg19
I-49
sg20
I-49
sg21
I-49
sg22
I-49
sg23
I-49
sg24
I-49
sg25
I-49
sg26
I-49
sg27
I-49
sg28
I-49
sg29
I-49
sg30
I-49
ssI199
(dp341
S'DEDENT'
p342
I-56
sg3
I-56
sg4
I-56
sg5
I-56
sg6
I-56
sg7
I-56
sg221
I-56
sg8
I-56
sg9
I-56
sg10
I-56
sg11
I-56
sg12
I-56
sg218
I-56
sg13
I-56
sg15
I-56
sg219
I-56
sS'COMMA'
p343
I-56
sg16
I-56
sg17
I-56
sg18
I-56
sg19
I-56
sg20
I-56
sg21
I-56
sg22
I-56
sg23
I-56
sg24
I-56
sg25
I-56
sg26
I-56
sg27
I-56
sg28
I-56
sg29
I-56
sg30
I-56
ssI200
(dp344
g342
I-54
sg3
I-54
sg4
I-54
sg5
I-54
sg6
I-54
sg7
I-54
sg221
I206
sg8
I-54
sg9
I-54
sg10
I-54
sg11
I-54
sg12
I-54
sg218
I204
sg13
I-54
sg15
I-54
sg219
I202
sS'COMMA'
p345
I-54
sg16
I-54
sg17
I-54
sg18
I-54
sg19
I-54
sg20
I-54
sg21
I-54
sg22
I-54
sg23
I-54
sg24
I-54
sg25
I-54
sg26
I-54
sg27
I-54
sg28
I-54
sg29
I-54
sg30
I-54
ssI201
(dp346
g221
I206
sg219
I202
sg218
I204
ssI202
(dp347
g342
I-59
sg3
I-59
sg4
I-59
sg5
I-59
sg6
I-59
sg7
I-59
sg221
I-59
sg8
I-59
sg9
I-59
sg10
I-59
sg11
I-59
sg12
I-59
sg218
I-59
sg13
I-59
sg15
I-59
sg219
I-59
sg343
I-59
sg16
I-59
sg17
I-59
sg18
I-59
sg19
I-59
sg20
I-59
sg21
I-59
sg22
I-59
sg23
I-59
sg24
I-59
sg25
I-59
sg26
I-59
sg27
I-59
sg28
I-59
sg29
I-59
sg30
I-59
ssI203
(dp348
g3
I-48
sg4
I-48
sg5
I-48
sg6
I-48
sg7
I-48
sg8
I-48
sg9
I-48
sg10
I-48
sg11
I-48
sg12
I-48
sg13
I-48
sg15
I-48
sg16
I-48
sg17
I-48
sg18
I-48
sg19
I-48
sg20
I-48
sg21
I-48
sg22
I-48
sg23
I-48
sg24
I-48
sg25
I-48
sg26
I-48
sg27
I-48
sg28
I-48
sg29
I-48
sg30
I-48
ssI204
(dp349
g342
I-57
sg3
I-57
sg4
I-57
sg5
I-57
sg6
I-57
sg7
I-57
sg221
I-57
sg8
I-57
sg9
I-57
sg10
I-57
sg11
I-57
sg12
I-57
sg218
I-57
sg13
I-57
sg15
I-57
sg219
I-57
sg343
I-57
sg16
I-57
sg17
I-57
sg18
I-57
sg19
I-57
sg20
I-57
sg21
I-57
sg22
I-57
sg23
I-57
sg24
I-57
sg25
I-57
sg26
I-57
sg27
I-57
sg28
I-57
sg29
I-57
sg30
I-57
ssI205
(dp350
g3
I-50
sg4
I-50
sg5
I-50
sg6
I-50
sg7
I-50
sg8
I-50
sg9
I-50
sg10
I-50
sg11
I-50
sg12
I-50
sg13
I-50
sg15
I-50
sg345
I262
sg16
I-50
sg17
I-50
sg18
I-50
sg19
I-50
sg20
I-50
sg21
I-50
sg22
I-50
sg23
I-50
sg24
I-50
sg25
I-50
sg26
I-50
sg27
I-50
sg28
I-50
sg29
I-50
sg30
I-50
ssI206
(dp351
g342
I-58
sg3
I-58
sg4
I-58
sg5
I-58
sg6
I-58
sg7
I-58
sg221
I-58
sg8
I-58
sg9
I-58
sg10
I-58
sg11
I-58
sg12
I-58
sg218
I-58
sg13
I-58
sg15
I-58
sg219
I-58
sg343
I-58
sg16
I-58
sg17
I-58
sg18
I-58
sg19
I-58
sg20
I-58
sg21
I-58
sg22
I-58
sg23
I-58
sg24
I-58
sg25
I-58
sg26
I-58
sg27
I-58
sg28
I-58
sg29
I-58
sg30
I-58
ssI207
(dp352
g3
I-33
sg4
I-33
sg5
I-33
sg6
I-33
sg7
I-33
sg8
I-33
sg9
I-33
sg10
I-33
sg11
I-33
sg12
I-33
sg13
I-33
sg15
I-33
sg16
I-33
sg17
I-33
sg18
I-33
sg19
I-33
sg20
I-33
sg21
I-33
sg22
I-33
sg23
I-33
sg24
I-33
sg25
I-33
sg26
I-33
sg27
I-33
sg28
I-33
sg29
I-33
sg30
I-33
ssI208
(dp353
g59
I74
sg3
I-38
sg4
I-38
sg5
I-38
sg62
I75
sg6
I-38
sg7
I-38
sg64
I76
sg65
I77
sg159
I153
sg8
I-38
sg9
I-38
sg10
I-38
sg11
I-38
sg12
I-38
sg60
I80
sg13
I-38
sg15
I-38
sg66
I82
sg67
I91
sg70
I83
sg16
I-38
sg17
I-38
sg18
I-38
sg19
I-38
sg20
I-38
sg21
I-38
sg68
I86
sg69
I84
sg22
I-38
sg23
I-38
sg24
I-38
sg25
I-38
sg26
I-38
sg61
I89
sg27
I-38
sg28
I-38
sg29
I-38
sg30
I-38
ssI209
(dp354
g59
I74
sg60
I80
sg61
I89
sg62
I75
sg64
I76
sg65
I77
sg66
I82
sg70
I83
sg68
I86
sg69
I84
sS'INDENT'
p355
I264
ssI210
(dp356
S'DEDENT'
p357
I265
sS'COMMA'
p358
I266
ssI211
(dp359
g230
I-166
sg59
I-166
sg3
I-166
sg4
I-166
sg5
I-166
sg62
I-166
sg6
I-166
sg7
I-166
sg64
I-166
sg65
I-166
sg147
I-166
sg9
I-166
sg165
I-166
sg11
I-166
sg10
I-166
sg12
I-166
sg60
I-166
sg8
I-166
sg13
I-166
sg170
I-166
sg15
I-166
sg66
I-166
sg70
I-166
sg69
I-166
sg16
I-166
sg17
I-166
sg150
I-166
sg19
I-166
sg168
I-166
sg20
I-166
sg169
I-166
sg21
I-166
sg146
I-166
sg68
I-166
sg148
I-166
sg22
I-166
sg23
I-166
sg24
I-166
sg151
I-166
sg25
I-166
sg26
I-166
sg61
I-166
sg27
I-166
sg145
I-166
sg28
I-166
sg29
I-166
sg30
I-166
sg18
I-166
sg149
I-166
sg228
I-166
sg166
I-166
ssI212
(dp360
g59
I74
sg60
I80
sg61
I89
sg62
I75
sg64
I76
sg65
I77
sg66
I82
sg67
I91
sg68
I86
sg69
I84
sg70
I83
sg159
I153
ssI213
(dp361
g59
I74
sg60
I80
sg61
I89
sg62
I75
sg64
I76
sg65
I77
sg66
I82
sg67
I91
sg68
I86
sg69
I84
sg70
I83
sg159
I153
ssI214
(dp362
g3
I-74
sg4
I-74
sg5
I-74
sg6
I-74
sg7
I-74
sg8
I-74
sg9
I-74
sg10
I-74
sg11
I-74
sg12
I-74
sg13
I-74
sg15
I-74
sg16
I-74
sg17
I-74
sg18
I-74
sg19
I-74
sg20
I-74
sg21
I-74
sg22
I-74
sg23
I-74
sg24
I-74
sg25
I-74
sg26
I-74
sg27
I-74
sg28
I-74
sg29
I-74
sg30
I-74
ssI215
(dp363
g244
I-79
sg145
I-79
sg146
I-79
sg147
I-79
sg148
I-79
sg149
I-79
sg150
I-79
sg151
I-79
ssI216
(dp364
g59
I74
sg60
I80
sg61
I89
sg62
I75
sg64
I76
sg65
I77
sg66
I82
sg70
I83
sg68
I86
sg69
I84
sg140
I116
ssI217
(dp365
g59
I74
sg60
I80
sg61
I89
sg62
I75
sg64
I76
sg65
I77
sg66
I82
sg70
I83
sg68
I86
sg69
I84
sg140
I116
ssI218
(dp366
g59
I74
sg60
I80
sg61
I89
sg62
I75
sg64
I76
sg65
I77
sg66
I82
sg70
I83
sg68
I86
sg69
I84
sg140
I116
ssI219
(dp367
g59
I74
sg60
I80
sg61
I89
sg62
I75
sg64
I76
sg65
I77
sg66
I82
sg70
I83
sg68
I86
sg69
I84
sg140
I116
ssI220
(dp368
S'TRUE'
p369
I274
sS'FALSE'
p370
I273
sS'FLAG_OP'
p371
I275
ssI221
(dp372
S'LPAR'
p373
I276
ssI222
(dp374
S'COLON'
p375
I-109
ssI223
(dp376
g375
I-108
ssI224
(dp377
g375
I-115
ssI225
(dp378
S'LPAR'
p379
I277
ssI226
(dp380
S'DEDENT'
p381
I-104
sg145
I-104
sg146
I-104
sg147
I-104
sg148
I-104
sg149
I-104
sg150
I-104
sg151
I-104
ssI227
(dp382
g375
I278
ssI228
(dp383
g375
I-107
ssI229
(dp384
g375
I-113
ssI230
(dp385
g165
I282
sg166
I280
ssI231
(dp386
S'INCLUDE_DIRS_ID'
p387
I286
sS'SOURCES_ID'
p388
I284
ssI232
(dp389
g3
I-133
sg4
I-133
sg5
I-133
sg6
I-133
sg7
I-133
sg8
I-133
sg9
I-133
sg10
I-133
sg11
I-133
sg12
I-133
sg13
I-133
sg15
I-133
sg16
I-133
sg17
I-133
sg18
I-133
sg19
I-133
sg20
I-133
sg21
I-133
sg22
I-133
sg23
I-133
sg24
I-133
sg25
I-133
sg26
I-133
sg27
I-133
sg28
I-133
sg29
I-133
sg30
I-133
ssI233
(dp390
g164
I-135
sg154
I-135
sg155
I-135
ssI234
(dp391
g59
I74
sg60
I80
sg61
I89
sg62
I75
sg64
I76
sg65
I77
sg66
I82
sg67
I91
sg68
I86
sg69
I84
sg70
I83
sg159
I153
ssI235
(dp392
g59
I74
sg60
I80
sg61
I89
sg62
I75
sg64
I76
sg65
I77
sg66
I82
sg67
I91
sg68
I86
sg69
I84
sg70
I83
sg159
I153
ssI236
(dp393
g192
I-164
sg59
I-164
sg3
I-164
sg4
I-164
sg5
I-164
sg62
I-164
sg6
I-164
sg7
I-164
sg64
I-164
sg65
I-164
sg70
I-164
sg159
I-164
sg8
I-164
sg154
I-164
sg9
I-164
sg10
I-164
sg11
I-164
sg12
I-164
sg155
I-164
sg60
I-164
sg13
I-164
sg170
I-164
sg15
I-164
sg66
I-164
sg67
I-164
sg69
I-164
sg16
I-164
sg17
I-164
sg18
I-164
sg19
I-164
sg168
I-164
sg20
I-164
sg169
I-164
sg21
I-164
sg68
I-164
sg22
I-164
sg23
I-164
sg24
I-164
sg25
I-164
sg26
I-164
sg75
I-164
sg61
I-164
sg27
I-164
sg28
I-164
sg29
I-164
sg172
I-164
sg30
I-164
ssI237
(dp394
g59
I74
sg171
I245
sg61
I89
sg62
I75
sg69
I84
sg167
I161
sg64
I76
sg65
I77
sg66
I82
sg159
I153
sg68
I86
sg60
I80
sg70
I83
sg67
I91
ssI238
(dp395
S'DEDENT'
p396
I290
ssI239
(dp397
S'DEDENT'
p398
I-162
sg59
I-162
sg171
I-162
sg61
I-162
sg62
I-162
sg69
I-162
sg167
I-162
sg64
I-162
sg65
I-162
sg66
I-162
sg159
I-162
sg68
I-162
sg60
I-162
sg70
I-162
sg67
I-162
ssI240
(dp399
S'DEDENT'
p400
I-182
sg59
I-182
sg171
I-182
sg61
I-182
sg62
I-182
sg69
I-182
sg167
I-182
sg64
I-182
sg65
I-182
sg66
I-182
sg159
I-182
sg68
I-182
sg60
I-182
sg70
I-182
sg67
I-182
ssI241
(dp401
g296
I-160
sg59
I74
sg171
I245
sg61
I89
sg62
I75
sg69
I84
sg167
I161
sg64
I76
sg65
I77
sg70
I83
sg159
I153
sg68
I86
sg60
I80
sg67
I91
sg66
I82
ssI242
(dp402
g400
I-183
sg59
I-183
sg171
I-183
sg61
I-183
sg62
I-183
sg69
I-183
sg167
I-183
sg64
I-183
sg65
I-183
sg66
I-183
sg159
I-183
sg68
I-183
sg60
I-183
sg70
I-183
sg67
I-183
ssI243
(dp403
g59
I74
sg171
I245
sg61
I89
sg62
I75
sg69
I84
sg167
I161
sg64
I76
sg65
I77
sg66
I82
sg159
I153
sg68
I86
sg60
I80
sg70
I83
sg67
I91
ssI244
(dp404
g398
I-161
sg59
I-161
sg171
I-161
sg61
I-161
sg62
I-161
sg69
I-161
sg167
I-161
sg64
I-161
sg65
I-161
sg66
I-161
sg159
I-161
sg68
I-161
sg60
I-161
sg70
I-161
sg67
I-161
ssI245
(dp405
g59
I-184
sg171
I-184
sg61
I-184
sg62
I-184
sg69
I-184
sg167
I-184
sg64
I-184
sg65
I-184
sg66
I-184
sg159
I-184
sg68
I-184
sg60
I-184
sg70
I-184
sg67
I-184
ssI246
(dp406
g398
I294
ssI247
(dp407
g3
I-125
sg4
I-125
sg5
I-125
sg6
I-125
sg7
I-125
sg8
I-125
sg9
I-125
sg10
I-125
sg11
I-125
sg12
I-125
sg13
I-125
sg15
I-125
sg16
I-125
sg17
I-125
sg18
I-125
sg19
I-125
sg20
I-125
sg21
I-125
sg22
I-125
sg23
I-125
sg24
I-125
sg25
I-125
sg26
I-125
sg27
I-125
sg28
I-125
sg29
I-125
sg30
I-125
ssI248
(dp408
g188
I-127
sg199
I-127
sg178
I-127
ssI249
(dp409
g59
I74
sg60
I80
sg61
I89
sg62
I75
sg64
I76
sg65
I77
sg66
I82
sg67
I91
sg68
I86
sg69
I84
sg70
I83
sg162
I155
ssI250
(dp410
g59
I74
sg60
I80
sg61
I89
sg62
I75
sg64
I76
sg65
I77
sg66
I82
sg67
I91
sg68
I86
sg69
I84
sg70
I83
sg159
I153
ssI251
(dp411
g59
I74
sg60
I80
sg61
I89
sg62
I75
sg64
I76
sg65
I77
sg66
I82
sg67
I91
sg68
I86
sg69
I84
sg70
I83
sg162
I155
ssI252
(dp412
g59
I74
sg60
I80
sg61
I89
sg62
I75
sg64
I76
sg65
I77
sg66
I82
sg67
I91
sg68
I86
sg69
I84
sg70
I83
sg159
I153
ssI253
(dp413
g3
I-117
sg4
I-117
sg5
I-117
sg6
I-117
sg7
I-117
sg8
I-117
sg9
I-117
sg10
I-117
sg11
I-117
sg12
I-117
sg13
I-117
sg15
I-117
sg16
I-117
sg17
I-117
sg18
I-117
sg19
I-117
sg20
I-117
sg21
I-117
sg22
I-117
sg23
I-117
sg24
I-117
sg25
I-117
sg26
I-117
sg27
I-117
sg28
I-117
sg29
I-117
sg30
I-117
ssI254
(dp414
g192
I-119
sg193
I-119
sg172
I-119
ssI255
(dp415
g3
I-64
sg4
I-64
sg5
I-64
sg6
I-64
sg7
I-64
sg8
I-64
sg9
I-64
sg10
I-64
sg11
I-64
sg12
I-64
sg13
I-64
sg15
I-64
sg16
I-64
sg17
I-64
sg18
I-64
sg19
I-64
sg20
I-64
sg21
I-64
sg22
I-64
sg23
I-64
sg24
I-64
sg25
I-64
sg26
I-64
sg27
I-64
sg28
I-64
sg29
I-64
sg30
I-64
ssI256
(dp416
g177
I-66
sg168
I-66
sg169
I-66
sg170
I-66
ssI257
(dp417
g59
I74
sg60
I80
sg61
I89
sg62
I75
sg64
I76
sg65
I77
sg66
I82
sg70
I83
sg68
I86
sg69
I84
sg140
I116
ssI258
(dp418
g59
I74
sg60
I80
sg61
I89
sg62
I75
sg64
I76
sg65
I77
sg66
I82
sg67
I91
sg68
I86
sg69
I84
sg70
I83
sg159
I153
ssI259
(dp419
g59
I74
sg60
I80
sg61
I89
sg62
I75
sg64
I76
sg65
I77
sg66
I82
sg67
I91
sg68
I86
sg69
I84
sg70
I83
sg159
I153
ssI260
(dp420
g342
I-55
sg3
I-55
sg4
I-55
sg5
I-55
sg6
I-55
sg7
I-55
sg221
I-55
sg8
I-55
sg9
I-55
sg10
I-55
sg11
I-55
sg12
I-55
sg218
I-55
sg13
I-55
sg15
I-55
sg219
I-55
sg343
I-55
sg16
I-55
sg17
I-55
sg18
I-55
sg19
I-55
sg20
I-55
sg21
I-55
sg22
I-55
sg23
I-55
sg24
I-55
sg25
I-55
sg26
I-55
sg27
I-55
sg28
I-55
sg29
I-55
sg30
I-55
ssI261
(dp421
g342
I302
sg343
I303
ssI262
(dp422
g218
I204
sg219
I202
sS'INDENT'
p423
I304
sg221
I206
ssI263
(dp424
g227
I-145
sg59
I74
sg3
I-145
sg4
I-145
sg5
I-145
sg170
I-145
sg6
I-145
sg7
I-145
sg64
I76
sg65
I77
sg70
I83
sg147
I-145
sg9
I-145
sg165
I-145
sg11
I-145
sg10
I-145
sg12
I-145
sg60
I80
sg8
I-145
sg13
I-145
sg62
I75
sg15
I-145
sg66
I82
sg228
I-145
sg166
I-145
sg16
I-145
sg17
I-145
sg150
I-145
sg19
I-145
sg168
I-145
sg69
I84
sg20
I-145
sg169
I-145
sg21
I-145
sg146
I-145
sg68
I86
sg148
I-145
sg22
I-145
sg23
I-145
sg24
I-145
sg151
I-145
sg25
I-145
sg26
I-145
sg61
I89
sg27
I-145
sg145
I-145
sg28
I-145
sg29
I-145
sg30
I-145
sg18
I-145
sg149
I-145
ssI264
(dp425
g59
I74
sg60
I80
sg61
I89
sg62
I75
sg64
I76
sg65
I77
sg66
I82
sg70
I83
sg68
I86
sg69
I84
ssI265
(dp426
S'DEDENT'
p427
I-144
sg3
I-144
sg4
I-144
sg5
I-144
sg170
I-144
sg6
I-144
sg7
I-144
sg8
I-144
sg9
I-144
sg387
I-144
sg11
I-144
sg10
I-144
sg12
I-144
sg13
I-144
sg15
I-144
sg388
I-144
sg16
I-144
sg17
I-144
sg18
I-144
sg19
I-144
sg168
I-144
sg20
I-144
sg169
I-144
sg21
I-144
sg146
I-144
sg148
I-144
sg22
I-144
sg23
I-144
sg24
I-144
sg151
I-144
sg25
I-144
sg26
I-144
sg27
I-144
sg145
I-144
sg28
I-144
sg29
I-144
sg30
I-144
sg150
I-144
sg149
I-144
sg147
I-144
ssI266
(dp428
g59
I74
sg60
I80
sg61
I89
sg62
I75
sg64
I76
sg65
I77
sg66
I82
sg70
I83
sg68
I86
sg69
I84
ssI267
(dp429
g59
I74
sg269
I-101
sg61
I89
sg62
I75
sg69
I84
sg64
I76
sg65
I77
sg66
I82
sg159
I153
sg68
I86
sg60
I80
sg70
I83
sg67
I91
ssI268
(dp430
g59
I74
sg271
I-95
sg61
I89
sg62
I75
sg69
I84
sg64
I76
sg65
I77
sg66
I82
sg159
I153
sg68
I86
sg60
I80
sg70
I83
sg67
I91
ssI269
(dp431
g227
I-88
sg145
I-88
sg146
I-88
sg147
I-88
sg148
I-88
sg149
I-88
sg150
I-88
sg151
I-88
ssI270
(dp432
g227
I-90
sg145
I-90
sg146
I-90
sg147
I-90
sg148
I-90
sg149
I-90
sg150
I-90
sg151
I-90
ssI271
(dp433
g244
I-91
sg145
I-91
sg146
I-91
sg147
I-91
sg148
I-91
sg149
I-91
sg150
I-91
sg151
I-91
ssI272
(dp434
g381
I-89
sg145
I-89
sg146
I-89
sg147
I-89
sg148
I-89
sg149
I-89
sg150
I-89
sg151
I-89
ssI273
(dp435
g375
I-114
ssI274
(dp436
g375
I-116
ssI275
(dp437
S'LPAR'
p438
I307
ssI276
(dp439
g143
I122
ssI277
(dp440
g143
I122
ssI278
(dp441
S'INDENT'
p442
I310
ssI279
(dp443
g230
I-100
sg165
I-100
sg166
I-100
ssI280
(dp444
S'COLON'
p445
I311
ssI281
(dp446
g230
I312
sg165
I282
sg166
I280
ssI282
(dp447
S'COLON'
p448
I314
ssI283
(dp449
g427
I-94
sg387
I-94
sg388
I-94
ssI284
(dp450
S'COLON'
p451
I315
ssI285
(dp452
g427
I316
sg387
I286
sg388
I284
ssI286
(dp453
S'COLON'
p454
I318
ssI287
(dp455
g164
I-139
sg59
I74
sg60
I80
sg61
I89
sg62
I75
sg64
I76
sg65
I77
sg70
I83
sg159
I153
sg68
I86
sg69
I84
sg154
I-139
sg155
I-139
sg66
I82
sg67
I91
ssI288
(dp456
g164
I-140
sg59
I74
sg60
I80
sg61
I89
sg62
I75
sg64
I76
sg65
I77
sg70
I83
sg159
I153
sg68
I86
sg69
I84
sg154
I-140
sg155
I-140
sg66
I82
sg67
I91
ssI289
(dp457
g400
I319
ssI290
(dp458
g3
I-152
sg4
I-152
sg5
I-152
sg6
I-152
sg7
I-152
sg8
I-152
sg9
I-152
sg10
I-152
sg11
I-152
sg12
I-152
sg13
I-152
sg15
I-152
sg16
I-152
sg17
I-152
sg18
I-152
sg19
I-152
sg20
I-152
sg21
I-152
sg22
I-152
sg23
I-152
sg24
I-152
sg25
I-152
sg26
I-152
sg27
I-152
sg28
I-152
sg29
I-152
sg30
I-152
ssI291
(dp459
g296
I-159
ssI292
(dp460
g296
I321
ssI293
(dp461
g398
I-157
sg59
I-157
sg171
I-157
sg61
I-157
sg62
I-157
sg69
I-157
sg167
I-157
sg64
I-157
sg65
I-157
sg66
I-157
sg159
I-157
sg68
I-157
sg60
I-157
sg70
I-157
sg67
I-157
ssI294
(dp462
g3
I-151
sg4
I-151
sg5
I-151
sg6
I-151
sg7
I-151
sg8
I-151
sg9
I-151
sg10
I-151
sg11
I-151
sg12
I-151
sg13
I-151
sg15
I-151
sg16
I-151
sg17
I-151
sg18
I-151
sg19
I-151
sg20
I-151
sg21
I-151
sg22
I-151
sg23
I-151
sg24
I-151
sg25
I-151
sg26
I-151
sg27
I-151
sg28
I-151
sg29
I-151
sg30
I-151
ssI295
(dp463
g188
I-131
sg199
I-131
sg178
I-131
ssI296
(dp464
g188
I-132
sg59
I74
sg60
I80
sg61
I89
sg62
I75
sg199
I-132
sg70
I83
sg64
I76
sg65
I77
sg178
I-132
sg159
I153
sg68
I86
sg69
I84
sg67
I91
sg66
I82
ssI297
(dp465
g192
I-123
sg193
I-123
sg172
I-123
ssI298
(dp466
g192
I-124
sg59
I74
sg60
I80
sg61
I89
sg62
I75
sg193
I-124
sg70
I83
sg64
I76
sg65
I77
sg172
I-124
sg159
I153
sg68
I86
sg69
I84
sg67
I91
sg66
I82
ssI299
(dp467
g177
I-73
sg168
I-73
sg169
I-73
sg170
I-73
ssI300
(dp468
g177
I-71
sg168
I-71
sg60
I80
sg61
I89
sg170
I-71
sg62
I75
sg169
I-71
sg64
I76
sg65
I77
sg70
I83
sg67
I91
sg68
I86
sg69
I84
sg159
I153
sg66
I82
sg59
I74
ssI301
(dp469
g177
I-72
sg168
I-72
sg60
I80
sg61
I89
sg170
I-72
sg62
I75
sg169
I-72
sg64
I76
sg65
I77
sg70
I83
sg67
I91
sg68
I86
sg69
I84
sg159
I153
sg66
I82
sg59
I74
ssI302
(dp470
g3
I-52
sg4
I-52
sg5
I-52
sg6
I-52
sg7
I-52
sg8
I-52
sg9
I-52
sg10
I-52
sg11
I-52
sg12
I-52
sg13
I-52
sg15
I-52
sg16
I-52
sg17
I-52
sg18
I-52
sg19
I-52
sg20
I-52
sg21
I-52
sg22
I-52
sg23
I-52
sg24
I-52
sg25
I-52
sg26
I-52
sg27
I-52
sg28
I-52
sg29
I-52
sg30
I-52
ssI303
(dp471
g221
I206
sg219
I202
sg218
I204
ssI304
(dp472
g221
I206
sg219
I202
sg218
I204
ssI305
(dp473
g342
I-53
sg3
I-53
sg4
I-53
sg5
I-53
sg6
I-53
sg7
I-53
sg221
I206
sg8
I-53
sg9
I-53
sg10
I-53
sg11
I-53
sg12
I-53
sg218
I204
sg13
I-53
sg15
I-53
sg219
I202
sg345
I-53
sg16
I-53
sg17
I-53
sg18
I-53
sg19
I-53
sg20
I-53
sg21
I-53
sg22
I-53
sg23
I-53
sg24
I-53
sg25
I-53
sg26
I-53
sg27
I-53
sg28
I-53
sg29
I-53
sg30
I-53
ssI306
(dp474
S'DEDENT'
p475
I323
sg358
I266
ssI307
(dp476
g143
I122
ssI308
(dp477
g238
I325
ssI309
(dp478
S'RPAR'
p479
I326
ssI310
(dp480
g145
I123
sg146
I135
sg147
I124
sg148
I136
sg149
I134
sg150
I132
sg151
I137
ssI311
(dp481
g59
I74
sg60
I80
sg61
I89
sg62
I75
sg64
I76
sg65
I77
sg66
I82
sg70
I83
sg68
I86
sg69
I84
sg140
I116
ssI312
(dp482
g381
I-98
sg145
I-98
sg146
I-98
sg147
I-98
sg148
I-98
sg149
I-98
sg150
I-98
sg151
I-98
ssI313
(dp483
g230
I-99
sg165
I-99
sg166
I-99
ssI314
(dp484
g59
I74
sg60
I80
sg61
I89
sg62
I75
sg64
I76
sg65
I77
sg66
I82
sg70
I83
sg68
I86
sg69
I84
sg140
I116
ssI315
(dp485
g59
I74
sg60
I80
sg61
I89
sg62
I75
sg64
I76
sg65
I77
sg66
I82
sg70
I83
sg68
I86
sg69
I84
sg140
I116
ssI316
(dp486
g244
I-92
sg145
I-92
sg146
I-92
sg147
I-92
sg148
I-92
sg149
I-92
sg150
I-92
sg151
I-92
ssI317
(dp487
g427
I-93
sg387
I-93
sg388
I-93
ssI318
(dp488
g59
I74
sg60
I80
sg61
I89
sg62
I75
sg64
I76
sg65
I77
sg66
I82
sg70
I83
sg68
I86
sg69
I84
sg140
I116
ssI319
(dp489
g3
I-153
sg4
I-153
sg5
I-153
sg6
I-153
sg7
I-153
sg8
I-153
sg9
I-153
sg10
I-153
sg11
I-153
sg12
I-153
sg13
I-153
sg15
I-153
sg16
I-153
sg17
I-153
sg18
I-153
sg19
I-153
sg20
I-153
sg21
I-153
sg22
I-153
sg23
I-153
sg24
I-153
sg25
I-153
sg26
I-153
sg27
I-153
sg28
I-153
sg29
I-153
sg30
I-153
ssI320
(dp490
g396
I-158
sg59
I-158
sg171
I-158
sg61
I-158
sg62
I-158
sg69
I-158
sg167
I-158
sg64
I-158
sg65
I-158
sg66
I-158
sg159
I-158
sg68
I-158
sg60
I-158
sg70
I-158
sg67
I-158
ssI321
(dp491
g396
I-185
sg59
I-185
sg171
I-185
sg61
I-185
sg62
I-185
sg69
I-185
sg167
I-185
sg64
I-185
sg65
I-185
sg66
I-185
sg159
I-185
sg68
I-185
sg60
I-185
sg70
I-185
sg67
I-185
ssI322
(dp492
S'DEDENT'
p493
I332
sg343
I303
ssI323
(dp494
g427
I-143
sg3
I-143
sg4
I-143
sg5
I-143
sg170
I-143
sg6
I-143
sg7
I-143
sg8
I-143
sg9
I-143
sg387
I-143
sg11
I-143
sg10
I-143
sg12
I-143
sg13
I-143
sg15
I-143
sg388
I-143
sg16
I-143
sg17
I-143
sg18
I-143
sg19
I-143
sg168
I-143
sg20
I-143
sg169
I-143
sg21
I-143
sg146
I-143
sg148
I-143
sg22
I-143
sg23
I-143
sg24
I-143
sg151
I-143
sg25
I-143
sg26
I-143
sg27
I-143
sg145
I-143
sg28
I-143
sg29
I-143
sg30
I-143
sg150
I-143
sg149
I-143
sg147
I-143
ssI324
(dp495
S'RPAR'
p496
I333
ssI325
(dp497
g375
I-111
ssI326
(dp498
g375
I-110
ssI327
(dp499
g244
I334
sg145
I123
sg146
I135
sg147
I124
sg148
I136
sg149
I134
sg150
I132
sg151
I137
ssI328
(dp500
g230
I-102
sg165
I-102
sg166
I-102
ssI329
(dp501
g230
I-103
sg165
I-103
sg166
I-103
ssI330
(dp502
g427
I-96
sg387
I-96
sg388
I-96
ssI331
(dp503
g427
I-97
sg387
I-97
sg388
I-97
ssI332
(dp504
g3
I-51
sg4
I-51
sg5
I-51
sg6
I-51
sg7
I-51
sg8
I-51
sg9
I-51
sg10
I-51
sg11
I-51
sg12
I-51
sg13
I-51
sg15
I-51
sg16
I-51
sg17
I-51
sg18
I-51
sg19
I-51
sg20
I-51
sg21
I-51
sg22
I-51
sg23
I-51
sg24
I-51
sg25
I-51
sg26
I-51
sg27
I-51
sg28
I-51
sg29
I-51
sg30
I-51
ssI333
(dp505
g375
I-112
ssI334
(dp506
g381
I-105
sg145
I-105
sS'ELSE'
p507
I335
sg146
I-105
sg147
I-105
sg148
I-105
sg149
I-105
sg150
I-105
sg151
I-105
ssI335
(dp508
S'COLON'
p509
I336
ssI336
(dp510
S'INDENT'
p511
I337
ssI337
(dp512
g145
I123
sg146
I135
sg147
I124
sg148
I136
sg149
I134
sg150
I132
sg151
I137
ssI338
(dp513
g381
I339
sg145
I123
sg146
I135
sg147
I124
sg148
I136
sg149
I134
sg150
I132
sg151
I137
ssI339
(dp514
g381
I-106
sg145
I-106
sg146
I-106
sg147
I-106
sg148
I-106
sg149
I-106
sg150
I-106
sg151
I-106
ss.(dp1
I0
(dp2
S'meta_license_stmt'
p3
I4
sS'extra_source_files'
p4
I56
sS'library_declaration'
p5
I6
sS'exec_decl'
p6
I8
sS'library'
p7
I9
sS'meta_author_email_stmt'
p8
I10
sS'meta_url_stmt'
p9
I12
sS'meta_classifiers_stmt'
p10
I13
sS'data_files'
p11
I15
sS'description_decl'
p12
I18
sS'meta_download_url_stmt'
p13
I48
sS'path_declaration'
p14
I20
sS'meta_subento_stmt'
p15
I25
sS'meta_maintainer_stmt'
p16
I27
sS'meta_description_from_file_stmt'
p17
I30
sS'exec'
p18
I35
sS'meta_meta_template_file_stmt'
p19
I36
sS'meta_author_stmt'
p20
I38
sS'stmt'
p21
I39
sS'meta_platforms_stmt'
p22
I41
sS'meta_stmt'
p23
I42
sS'flag'
p24
I43
sS'meta_description_stmt'
p25
I44
sS'meta_hook_file_stmt'
p26
I45
sS'path'
p27
I46
sS'flag_declaration'
p28
I19
sS'data_files_declaration'
p29
I49
sS'stmt_list'
p30
I50
sS'dummy'
p31
I51
sS'meta_keywords_stmt'
p32
I53
sS'meta_config_py_stmt'
p33
I54
sS'meta_version_stmt'
p34
I55
sS'meta_maintainer_email_stmt'
p35
I5
sS'meta_name_stmt'
p36
I57
sS'meta_summary_stmt'
p37
I60
sS'empty'
p38
I62
ssI1
(dp39
sI2
(dp40
sI3
(dp41
sI4
(dp42
sI5
(dp43
sI6
(dp44
sI7
(dp45
sI8
(dp46
sI9
(dp47
sI10
(dp48
sI11
(dp49
sI12
(dp50
sI13
(dp51
sI14
(dp52
sI15
(dp53
sI16
(dp54
sI17
(dp55
sI18
(dp56
S'anytoken_no_comma'
p57
I78
sS'literal_no_space'
p58
I88
sS'single_line_newline'
p59
I90
sS'single_line'
p60
I85
sS'single_line_value'
p61
I87
ssI19
(dp62
sI20
(dp63
sI21
(dp64
sI22
(dp65
sI23
(dp66
sI24
(dp67
sI25
(dp68
sI26
(dp69
sI27
(dp70
sI28
(dp71
sI29
(dp72
sI30
(dp73
sI31
(dp74
sI32
(dp75
sI33
(dp76
sI34
(dp77
sI35
(dp78
sI36
(dp79
sI37
(dp80
sI38
(dp81
sI39
(dp82
sI40
(dp83
sI41
(dp84
sI42
(dp85
sI43
(dp86
sI44
(dp87
sI45
(dp88
sI46
(dp89
sI47
(dp90
sI48
(dp91
sI49
(dp92
sI50
(dp93
g3
I4
sg35
I5
sg5
I6
sg6
I8
sg7
I9
sg8
I10
sg9
I12
sg10
I13
sg11
I15
sg12
I18
sg13
I48
sg14
I20
sg15
I25
sg16
I27
sg17
I30
sg18
I35
sg19
I36
sg20
I38
sg21
I108
sg22
I41
sg23
I42
sg24
I43
sg25
I44
sg26
I45
sg27
I46
sg28
I19
sg29
I49
sg31
I51
sg32
I53
sg33
I54
sg34
I55
sg4
I56
sg36
I57
sg37
I60
ssI51
(dp94
sI52
(dp95
sI53
(dp96
sI54
(dp97
sI55
(dp98
sI56
(dp99
sI57
(dp100
sI58
(dp101
sI59
(dp102
sI60
(dp103
sI61
(dp104
sI62
(dp105
sI63
(dp106
sI64
(dp107
S'anytoken_no_comma'
p108
I115
sS'indented_comma_list'
p109
I119
sS'comma_words'
p110
I114
sS'comma_list'
p111
I118
sS'anyword_comma_list'
p112
I117
ssI65
(dp113
g108
I115
sg109
I119
sg110
I114
sS'comma_list'
p114
I120
sg112
I117
ssI66
(dp115
S'word'
p116
I121
ssI67
(dp117
S'packages_stmt'
p118
I127
sS'build_requires_stmt'
p119
I133
sS'conditional_stmt'
p120
I138
sS'extension_decl'
p121
I140
sS'install_requires_stmt'
p122
I128
sS'extension_stmt'
p123
I129
sS'compiled_library_decl'
p124
I139
sS'modules_stmt'
p125
I130
sS'library_stmt'
p126
I125
sS'library_stmts'
p127
I131
sS'compiled_library_stmt'
p128
I126
ssI68
(dp129
g108
I115
sg109
I119
sg110
I114
sS'comma_list'
p130
I141
sg112
I117
ssI69
(dp131
S'function'
p132
I142
sS'exec_stmts'
p133
I143
sS'module'
p134
I144
sS'exec_stmt'
p135
I145
ssI70
(dp136
S'version'
p137
I149
ssI71
(dp138
g57
I78
sS'literal_no_space'
p139
I150
sS'literal'
p140
I151
sS'anyword'
p141
I152
ssI72
(dp142
g57
I78
sg139
I150
sg140
I151
sS'anyword'
p143
I154
ssI73
(dp144
g57
I78
sg58
I88
sg60
I85
sS'single_line_value'
p145
I156
ssI74
(dp146
sI75
(dp147
sI76
(dp148
sI77
(dp149
sI78
(dp150
sI79
(dp151
g57
I78
sg58
I88
sg60
I158
ssI80
(dp152
sI81
(dp153
sI82
(dp154
sI83
(dp155
sI84
(dp156
sI85
(dp157
g57
I78
sg139
I150
sS'literal'
p158
I160
ssI86
(dp159
sI87
(dp160
S'newline'
p161
I162
ssI88
(dp162
sI89
(dp163
sI90
(dp164
sI91
(dp165
sI92
(dp166
S'flag_stmts'
p167
I164
sS'flag_description'
p168
I165
sS'flag_stmt'
p169
I168
sS'flag_default'
p170
I166
ssI93
(dp171
S'path_stmts'
p172
I175
sS'path_stmt'
p173
I171
sS'path_description'
p174
I173
sS'path_default'
p175
I174
ssI94
(dp176
S'word'
p177
I176
ssI95
(dp178
g57
I78
sg139
I150
sg140
I151
sS'anyword'
p179
I177
ssI96
(dp180
g57
I78
sg139
I150
sg140
I151
sS'anyword'
p181
I178
ssI97
(dp182
S'word'
p183
I179
ssI98
(dp184
g57
I78
sg58
I88
sg60
I85
sS'single_line_value'
p185
I180
ssI99
(dp186
g57
I78
sg139
I150
sg140
I151
sS'anyword'
p187
I181
ssI100
(dp188
sI101
(dp189
g108
I115
sg109
I119
sg110
I114
sS'comma_list'
p190
I182
sg112
I117
ssI102
(dp191
g57
I78
sg58
I88
sg60
I85
sS'single_line_value'
p192
I183
ssI103
(dp193
S'library_name'
p194
I185
sS'word'
p195
I184
ssI104
(dp196
g57
I78
sg139
I150
sg140
I151
sS'anyword'
p197
I186
ssI105
(dp198
g57
I78
sg139
I150
sg140
I151
sS'anyword'
p199
I187
ssI106
(dp200
g57
I78
sg139
I150
sg140
I151
sS'anyword'
p201
I188
ssI107
(dp202
S'data_files_stmts'
p203
I189
sS'data_files_target'
p204
I190
sS'data_files_files'
p205
I191
sS'data_files_stmt'
p206
I194
sS'data_files_srcdir'
p207
I195
ssI108
(dp208
sI109
(dp209
g108
I115
sg109
I119
sg110
I114
sS'comma_list'
p210
I197
sg112
I117
ssI110
(dp211
S'classifiers'
p212
I205
sS'indented_classifiers_list'
p213
I198
sS'classifiers_list'
p214
I203
sS'classifier_atom'
p215
I199
sS'classifier'
p216
I200
ssI111
(dp217
sI112
(dp218
sI113
(dp219
g57
I78
sg139
I150
sg140
I151
sS'anyword'
p220
I208
ssI114
(dp221
sI115
(dp222
sI116
(dp223
g108
I115
sS'comma_words'
p224
I210
sg112
I117
ssI117
(dp225
g108
I211
ssI118
(dp226
sI119
(dp227
sI120
(dp228
sI121
(dp229
sI122
(dp230
sI123
(dp231
sI124
(dp232
sI125
(dp233
sI126
(dp234
sI127
(dp235
sI128
(dp236
sI129
(dp237
sI130
(dp238
sI131
(dp239
g118
I127
sg119
I133
sg120
I138
sg121
I140
sg122
I128
sg123
I129
sg124
I139
sg125
I130
sg126
I215
sg128
I126
ssI132
(dp240
sI133
(dp241
sI134
(dp242
sI135
(dp243
sI136
(dp244
sI137
(dp245
S'test'
p246
I227
sS'bool'
p247
I228
sS'os_var'
p248
I223
sS'flag_var'
p249
I222
ssI138
(dp250
sI139
(dp251
sI140
(dp252
sI141
(dp253
sI142
(dp254
sI143
(dp255
g132
I142
sg135
I233
sg134
I144
ssI144
(dp256
sI145
(dp257
sI146
(dp258
sI147
(dp259
sI148
(dp260
sI149
(dp261
sI150
(dp262
sI151
(dp263
sI152
(dp264
g57
I78
sg139
I150
sg140
I236
ssI153
(dp265
sI154
(dp266
g57
I78
sg139
I150
sg140
I236
ssI155
(dp267
g57
I78
sg58
I88
sg60
I158
ssI156
(dp268
sI157
(dp269
sI158
(dp270
g57
I78
sg139
I150
sg158
I160
ssI159
(dp271
S'multi_stmts'
p272
I238
sS'multi_stmt'
p273
I241
sS'indent'
p274
I243
sS'multi_literal'
p275
I239
sS'newline'
p276
I242
sg139
I150
sg57
I78
sS'literal'
p277
I240
sS'indented_block'
p278
I244
ssI160
(dp279
sI161
(dp280
sI162
(dp281
sI163
(dp282
S'multi_stmts'
p283
I246
sg273
I241
sg274
I243
sg275
I239
sg276
I242
sg139
I150
sg57
I78
sg277
I240
sg278
I244
ssI164
(dp284
g168
I165
sg169
I248
sg170
I166
ssI165
(dp285
sI166
(dp286
sI167
(dp287
sI168
(dp288
sI169
(dp289
sI170
(dp290
sI171
(dp291
sI172
(dp292
sI173
(dp293
sI174
(dp294
sI175
(dp295
g173
I254
sg174
I173
sg175
I174
ssI176
(dp296
sI177
(dp297
g57
I78
sg139
I150
sg140
I236
ssI178
(dp298
g57
I78
sg139
I150
sg140
I236
ssI179
(dp299
sI180
(dp300
sI181
(dp301
g57
I78
sg139
I150
sg140
I236
ssI182
(dp302
sI183
(dp303
sI184
(dp304
sI185
(dp305
sI186
(dp306
g57
I78
sg139
I150
sg140
I236
ssI187
(dp307
g57
I78
sg139
I150
sg140
I236
ssI188
(dp308
g57
I78
sg139
I150
sg140
I236
ssI189
(dp309
g205
I191
sg204
I190
sg206
I256
sg207
I195
ssI190
(dp310
sI191
(dp311
sI192
(dp312
sI193
(dp313
sI194
(dp314
sI195
(dp315
sI196
(dp316
sI197
(dp317
sI198
(dp318
sI199
(dp319
sI200
(dp320
g215
I260
ssI201
(dp321
S'classifiers'
p322
I261
sg215
I199
sg216
I200
ssI202
(dp323
sI203
(dp324
sI204
(dp325
sI205
(dp326
sI206
(dp327
sI207
(dp328
sI208
(dp329
g57
I78
sg139
I150
sg140
I236
ssI209
(dp330
g108
I115
sg112
I263
ssI210
(dp331
sI211
(dp332
sI212
(dp333
g57
I78
sg139
I150
sg140
I151
sS'anyword'
p334
I267
ssI213
(dp335
g57
I78
sg139
I150
sg140
I151
sS'anyword'
p336
I268
ssI214
(dp337
sI215
(dp338
sI216
(dp339
g108
I115
sg109
I119
sg110
I114
sS'comma_list'
p340
I269
sg112
I117
ssI217
(dp341
g108
I115
sg109
I119
sg110
I114
sS'comma_list'
p342
I270
sg112
I117
ssI218
(dp343
g108
I115
sg109
I119
sg110
I114
sS'comma_list'
p344
I271
sg112
I117
ssI219
(dp345
g108
I115
sg109
I119
sg110
I114
sS'comma_list'
p346
I272
sg112
I117
ssI220
(dp347
sI221
(dp348
sI222
(dp349
sI223
(dp350
sI224
(dp351
sI225
(dp352
sI226
(dp353
sI227
(dp354
sI228
(dp355
sI229
(dp356
sI230
(dp357
S'compiled_library_field_stmts'
p358
I281
sS'compiled_library_field_stmt'
p359
I279
ssI231
(dp360
S'extension_field_stmts'
p361
I285
sS'extension_field_stmt'
p362
I283
ssI232
(dp363
sI233
(dp364
sI234
(dp365
g57
I78
sg139
I150
sg140
I151
sS'anyword'
p366
I287
ssI235
(dp367
g57
I78
sg139
I150
sg140
I151
sS'anyword'
p368
I288
ssI236
(dp369
sI237
(dp370
S'multi_stmts'
p371
I289
sg273
I241
sg274
I243
sg275
I239
sg276
I242
sg139
I150
sg57
I78
sg277
I240
sg278
I244
ssI238
(dp372
sI239
(dp373
sI240
(dp374
sI241
(dp375
S'multi_stmts'
p376
I291
sg273
I241
sg274
I243
sg275
I239
sg276
I242
sg139
I150
sg57
I78
sg277
I240
sg278
I244
ssI242
(dp377
sI243
(dp378
S'multi_stmts'
p379
I292
sg273
I241
sg274
I243
sg275
I239
sg276
I242
sS'indented_block_value'
p380
I293
sg57
I78
sg139
I150
sg277
I240
sg278
I244
ssI244
(dp381
sI245
(dp382
sI246
(dp383
sI247
(dp384
sI248
(dp385
sI249
(dp386
g57
I78
sg58
I88
sg60
I85
sS'single_line_value'
p387
I295
ssI250
(dp388
g57
I78
sg139
I150
sg140
I151
sS'anyword'
p389
I296
ssI251
(dp390
g57
I78
sg58
I88
sg60
I85
sS'single_line_value'
p391
I297
ssI252
(dp392
g57
I78
sg139
I150
sg140
I151
sS'anyword'
p393
I298
ssI253
(dp394
sI254
(dp395
sI255
(dp396
sI256
(dp397
sI257
(dp398
g108
I115
sg109
I119
sg110
I114
sS'comma_list'
p399
I299
sg112
I117
ssI258
(dp400
g57
I78
sg139
I150
sg140
I151
sS'anyword'
p401
I300
ssI259
(dp402
g57
I78
sg139
I150
sg140
I151
sS'anyword'
p403
I301
ssI260
(dp404
sI261
(dp405
sI262
(dp406
g216
I305
sg215
I199
ssI263
(dp407
g108
I211
ssI264
(dp408
g108
I115
sS'comma_words'
p409
I306
sg112
I117
ssI265
(dp410
sI266
(dp411
g108
I115
sg112
I263
ssI267
(dp412
g57
I78
sg139
I150
sg140
I236
ssI268
(dp413
g57
I78
sg139
I150
sg140
I236
ssI269
(dp414
sI270
(dp415
sI271
(dp416
sI272
(dp417
sI273
(dp418
sI274
(dp419
sI275
(dp420
sI276
(dp421
S'word'
p422
I308
ssI277
(dp423
S'word'
p424
I309
ssI278
(dp425
sI279
(dp426
sI280
(dp427
sI281
(dp428
g359
I313
ssI282
(dp429
sI283
(dp430
sI284
(dp431
sI285
(dp432
g362
I317
ssI286
(dp433
sI287
(dp434
g57
I78
sg139
I150
sg140
I236
ssI288
(dp435
g57
I78
sg139
I150
sg140
I236
ssI289
(dp436
sI290
(dp437
sI291
(dp438
sI292
(dp439
S'dedent'
p440
I320
ssI293
(dp441
sI294
(dp442
sI295
(dp443
sI296
(dp444
g57
I78
sg139
I150
sg140
I236
ssI297
(dp445
sI298
(dp446
g57
I78
sg139
I150
sg140
I236
ssI299
(dp447
sI300
(dp448
g57
I78
sg139
I150
sg140
I236
ssI301
(dp449
g57
I78
sg139
I150
sg140
I236
ssI302
(dp450
sI303
(dp451
g216
I305
sg215
I199
ssI304
(dp452
S'classifiers'
p453
I322
sg215
I199
sg216
I200
ssI305
(dp454
g215
I260
ssI306
(dp455
sI307
(dp456
S'word'
p457
I324
ssI308
(dp458
sI309
(dp459
sI310
(dp460
g118
I127
sg119
I133
sg120
I138
sg121
I140
sg122
I128
sg123
I129
sg124
I139
sg125
I130
sg126
I125
sS'library_stmts'
p461
I327
sg128
I126
ssI311
(dp462
g108
I115
sg109
I119
sg110
I114
sS'comma_list'
p463
I328
sg112
I117
ssI312
(dp464
sI313
(dp465
sI314
(dp466
g108
I115
sg109
I119
sg110
I114
sS'comma_list'
p467
I329
sg112
I117
ssI315
(dp468
g108
I115
sg109
I119
sg110
I114
sS'comma_list'
p469
I330
sg112
I117
ssI316
(dp470
sI317
(dp471
sI318
(dp472
g108
I115
sg109
I119
sg110
I114
sS'comma_list'
p473
I331
sg112
I117
ssI319
(dp474
sI320
(dp475
sI321
(dp476
sI322
(dp477
sI323
(dp478
sI324
(dp479
sI325
(dp480
sI326
(dp481
sI327
(dp482
g118
I127
sg119
I133
sg120
I138
sg121
I140
sg122
I128
sg123
I129
sg124
I139
sg125
I130
sg126
I215
sg128
I126
ssI328
(dp483
sI329
(dp484
sI330
(dp485
sI331
(dp486
sI332
(dp487
sI333
(dp488
sI334
(dp489
sI335
(dp490
sI336
(dp491
sI337
(dp492
g118
I127
sg119
I133
sg120
I138
sg121
I140
sg122
I128
sg123
I129
sg124
I139
sg125
I130
sg126
I125
sS'library_stmts'
p493
I338
sg128
I126
ssI338
(dp494
g118
I127
sg119
I133
sg120
I138
sg121
I140
sg122
I128
sg123
I129
sg124
I139
sg125
I130
sg126
I215
sg128
I126
ssI339
(dp495
s.(lp1
(S"S' -> stmt_list"
p2
S"S'"
p3
I1
NNNtp4
a(S'stmt_list -> stmt_list stmt'
p5
S'stmt_list'
p6
I2
S'p_stmt_list'
p7
S'bento/core/parser/parser.py'
p8
I73
tp9
a(S'stmt_list -> stmt'
p10
S'stmt_list'
p11
I1
S'p_stmt_list_term'
p12
S'bento/core/parser/parser.py'
p13
I79
tp14
a(S'stmt_list -> empty'
p15
S'stmt_list'
p16
I1
S'p_stmt_list_empty'
p17
S'bento/core/parser/parser.py'
p18
I83
tp19
a(S'stmt_list -> NEWLINE'
p20
S'stmt_list'
p21
I1
S'p_stmt_list_newline'
p22
S'bento/core/parser/parser.py'
p23
I87
tp24
a(S'stmt -> meta_stmt'
p25
S'stmt'
p26
I1
S'p_stmt'
p27
S'bento/core/parser/parser.py'
p28
I91
tp29
a(S'stmt -> library'
p30
g26
I1
g27
g28
I92
tp31
a(S'stmt -> exec'
p32
g26
I1
g27
g28
I93
tp33
a(S'stmt -> path'
p34
g26
I1
g27
g28
I94
tp35
a(S'stmt -> flag'
p36
g26
I1
g27
g28
I95
tp37
a(S'stmt -> extra_source_files'
p38
g26
I1
g27
g28
I96
tp39
a(S'stmt -> data_files'
p40
g26
I1
g27
g28
I97
tp41
a(S'stmt -> dummy'
p42
g26
I1
g27
g28
I98
tp43
a(S'empty -> <empty>'
p44
S'empty'
p45
I0
S'p_empty'
p46
S'bento/core/parser/parser.py'
p47
I103
tp48
a(S'meta_stmt -> meta_name_stmt'
p49
S'meta_stmt'
p50
I1
S'p_meta_stmt'
p51
S'bento/core/parser/parser.py'
p52
I110
tp53
a(S'meta_stmt -> meta_summary_stmt'
p54
g50
I1
g51
g52
I111
tp55
a(S'meta_stmt -> meta_description_stmt'
p56
g50
I1
g51
g52
I112
tp57
a(S'meta_stmt -> meta_description_from_file_stmt'
p58
g50
I1
g51
g52
I113
tp59
a(S'meta_stmt -> meta_version_stmt'
p60
g50
I1
g51
g52
I114
tp61
a(S'meta_stmt -> meta_url_stmt'
p62
g50
I1
g51
g52
I115
tp63
a(S'meta_stmt -> meta_download_url_stmt'
p64
g50
I1
g51
g52
I116
tp65
a(S'meta_stmt -> meta_author_stmt'
p66
g50
I1
g51
g52
I117
tp67
a(S'meta_stmt -> meta_author_email_stmt'
p68
g50
I1
g51
g52
I118
tp69
a(S'meta_stmt -> meta_maintainer_stmt'
p70
g50
I1
g51
g52
I119
tp71
a(S'meta_stmt -> meta_maintainer_email_stmt'
p72
g50
I1
g51
g52
I120
tp73
a(S'meta_stmt -> meta_license_stmt'
p74
g50
I1
g51
g52
I121
tp75
a(S'meta_stmt -> meta_platforms_stmt'
p76
g50
I1
g51
g52
I122
tp77
a(S'meta_stmt -> meta_keywords_stmt'
p78
g50
I1
g51
g52
I123
tp79
a(S'meta_stmt -> meta_classifiers_stmt'
p80
g50
I1
g51
g52
I124
tp81
a(S'meta_stmt -> meta_hook_file_stmt'
p82
g50
I1
g51
g52
I125
tp83
a(S'meta_stmt -> meta_config_py_stmt'
p84
g50
I1
g51
g52
I126
tp85
a(S'meta_stmt -> meta_meta_template_file_stmt'
p86
g50
I1
g51
g52
I127
tp87
a(S'meta_stmt -> meta_subento_stmt'
p88
g50
I1
g51
g52
I128
tp89
a(S'meta_name_stmt -> NAME_ID COLON WORD'
p90
S'meta_name_stmt'
p91
I3
S'p_meta_name_stmt'
p92
S'bento/core/parser/parser.py'
p93
I133
tp94
a(S'meta_summary_stmt -> SUMMARY_ID COLON single_line_value'
p95
S'meta_summary_stmt'
p96
I3
S'p_meta_summary_stmt'
p97
S'bento/core/parser/parser.py'
p98
I138
tp99
a(S'meta_url_stmt -> URL_ID COLON anyword'
p100
S'meta_url_stmt'
p101
I3
S'p_meta_url_stmt'
p102
S'bento/core/parser/parser.py'
p103
I143
tp104
a(S'meta_download_url_stmt -> DOWNLOAD_URL_ID COLON anyword'
p105
S'meta_download_url_stmt'
p106
I3
S'p_meta_download_url_stmt'
p107
S'bento/core/parser/parser.py'
p108
I148
tp109
a(S'meta_author_stmt -> AUTHOR_ID COLON single_line_value'
p110
S'meta_author_stmt'
p111
I3
S'p_meta_author_stmt'
p112
S'bento/core/parser/parser.py'
p113
I153
tp114
a(S'meta_author_email_stmt -> AUTHOR_EMAIL_ID COLON anyword'
p115
S'meta_author_email_stmt'
p116
I3
S'p_meta_author_email_stmt'
p117
S'bento/core/parser/parser.py'
p118
I158
tp119
a(S'meta_maintainer_stmt -> MAINTAINER_ID COLON single_line_value'
p120
S'meta_maintainer_stmt'
p121
I3
S'p_meta_maintainer_stmt'
p122
S'bento/core/parser/parser.py'
p123
I163
tp124
a(S'meta_maintainer_email_stmt -> MAINTAINER_EMAIL_ID COLON anyword'
p125
S'meta_maintainer_email_stmt'
p126
I3
S'p_meta_maintainer_email_stmt'
p127
S'bento/core/parser/parser.py'
p128
I168
tp129
a(S'meta_license_stmt -> LICENSE_ID COLON anyword'
p130
S'meta_license_stmt'
p131
I3
S'p_meta_license_stmt'
p132
S'bento/core/parser/parser.py'
p133
I173
tp134
a(S'meta_description_from_file_stmt -> DESCRIPTION_FROM_FILE_ID COLON anyword'
p135
S'meta_description_from_file_stmt'
p136
I3
S'p_meta_description_from_file_stmt'
p137
S'bento/core/parser/parser.py'
p138
I178
tp139
a(S'meta_platforms_stmt -> PLATFORMS_ID COLON comma_list'
p140
S'meta_platforms_stmt'
p141
I3
S'p_meta_platforms_stmt'
p142
S'bento/core/parser/parser.py'
p143
I182
tp144
a(S'meta_keywords_stmt -> KEYWORDS_ID COLON comma_list'
p145
S'meta_keywords_stmt'
p146
I3
S'p_meta_keywords_stmt'
p147
S'bento/core/parser/parser.py'
p148
I187
tp149
a(S'meta_version_stmt -> VERSION_ID COLON version'
p150
S'meta_version_stmt'
p151
I3
S'p_meta_version_stmt'
p152
S'bento/core/parser/parser.py'
p153
I192
tp154
a(S'meta_config_py_stmt -> CONFIG_PY_ID COLON word'
p155
S'meta_config_py_stmt'
p156
I3
S'p_meta_config_py_stmt'
p157
S'bento/core/parser/parser.py'
p158
I197
tp159
a(S'meta_meta_template_file_stmt -> META_TEMPLATE_FILE_ID COLON word'
p160
S'meta_meta_template_file_stmt'
p161
I3
S'p_meta_meta_template_file_stmt'
p162
S'bento/core/parser/parser.py'
p163
I202
tp164
a(S'meta_classifiers_stmt -> CLASSIFIERS_ID COLON classifiers_list'
p165
S'meta_classifiers_stmt'
p166
I3
S'p_meta_classifiers_stmt'
p167
S'bento/core/parser/parser.py'
p168
I207
tp169
a(S'classifiers_list -> indented_classifiers_list'
p170
S'classifiers_list'
p171
I1
S'p_classifiers_list'
p172
S'bento/core/parser/parser.py'
p173
I211
tp174
a(S'classifiers_list -> classifiers'
p175
S'classifiers_list'
p176
I1
S'p_classifiers_list_term'
p177
S'bento/core/parser/parser.py'
p178
I216
tp179
a(S'indented_classifiers_list -> classifiers COMMA INDENT classifiers DEDENT'
p180
S'indented_classifiers_list'
p181
I5
S'p_indented_comma_list1'
p182
S'bento/core/parser/parser.py'
p183
I221
tp184
a(S'indented_classifiers_list -> INDENT classifiers DEDENT'
p185
S'indented_classifiers_list'
p186
I3
S'p_indented_comma_list2'
p187
S'bento/core/parser/parser.py'
p188
I227
tp189
a(S'classifiers -> classifiers COMMA classifier'
p190
S'classifiers'
p191
I3
S'p_classifiers'
p192
S'bento/core/parser/parser.py'
p193
I232
tp194
a(S'classifiers -> classifier'
p195
S'classifiers'
p196
I1
S'p_classifiers_term'
p197
S'bento/core/parser/parser.py'
p198
I237
tp199
a(S'classifier -> classifier classifier_atom'
p200
S'classifier'
p201
I2
S'p_classifier'
p202
S'bento/core/parser/parser.py'
p203
I241
tp204
a(S'classifier -> classifier_atom'
p205
S'classifier'
p206
I1
S'p_classifier_term'
p207
S'bento/core/parser/parser.py'
p208
I245
tp209
a(S'classifier_atom -> WORD'
p210
S'classifier_atom'
p211
I1
S'p_classifier_atom'
p212
S'bento/core/parser/parser.py'
p213
I249
tp214
a(S'classifier_atom -> WS'
p215
g211
I1
g212
g213
I250
tp216
a(S'classifier_atom -> DOUBLE_COLON'
p217
g211
I1
g212
g213
I251
tp218
a(S'dummy -> AND BACKSLASH'
p219
S'dummy'
p220
I2
S'p_dummy'
p221
S'bento/core/parser/parser.py'
p222
I256
tp223
a(S'meta_subento_stmt -> SUBENTO_ID COLON comma_list'
p224
S'meta_subento_stmt'
p225
I3
S'p_meta_subento_stmt'
p226
S'bento/core/parser/parser.py'
p227
I260
tp228
a(S'meta_hook_file_stmt -> HOOK_FILE_ID COLON comma_list'
p229
S'meta_hook_file_stmt'
p230
I3
S'p_meta_hook_file_stmt'
p231
S'bento/core/parser/parser.py'
p232
I264
tp233
a(S'extra_source_files -> EXTRA_SOURCE_FILES_ID COLON comma_list'
p234
S'extra_source_files'
p235
I3
S'p_extra_source_files'
p236
S'bento/core/parser/parser.py'
p237
I272
tp238
a(S'data_files -> data_files_declaration INDENT data_files_stmts DEDENT'
p239
S'data_files'
p240
I4
S'p_data_files'
p241
S'bento/core/parser/parser.py'
p242
I276
tp243
a(S'data_files_declaration -> DATAFILES_ID COLON word'
p244
S'data_files_declaration'
p245
I3
S'p_data_files_declaration'
p246
S'bento/core/parser/parser.py'
p247
I282
tp248
a(S'data_files_stmts -> data_files_stmts data_files_stmt'
p249
S'data_files_stmts'
p250
I2
S'p_data_files_stmts'
p251
S'bento/core/parser/parser.py'
p252
I286
tp253
a(S'data_files_stmts -> data_files_stmt'
p254
S'data_files_stmts'
p255
I1
S'p_data_files_stmts_term'
p256
S'bento/core/parser/parser.py'
p257
I290
tp258
a(S'data_files_stmt -> data_files_target'
p259
S'data_files_stmt'
p260
I1
S'p_data_files_stmt'
p261
S'bento/core/parser/parser.py'
p262
I294
tp263
a(S'data_files_stmt -> data_files_files'
p264
g260
I1
g261
g262
I295
tp265
a(S'data_files_stmt -> data_files_srcdir'
p266
g260
I1
g261
g262
I296
tp267
a(S'data_files_target -> TARGET_ID COLON anyword'
p268
S'data_files_target'
p269
I3
S'p_data_files_target'
p270
S'bento/core/parser/parser.py'
p271
I301
tp272
a(S'data_files_srcdir -> SRCDIR_ID COLON anyword'
p273
S'data_files_srcdir'
p274
I3
S'p_data_files_srcdir'
p275
S'bento/core/parser/parser.py'
p276
I305
tp277
a(S'data_files_files -> FILES_ID COLON comma_list'
p278
S'data_files_files'
p279
I3
S'p_data_files_files'
p280
S'bento/core/parser/parser.py'
p281
I309
tp282
a(S'library -> library_declaration INDENT library_stmts DEDENT'
p283
S'library'
p284
I4
S'p_library'
p285
S'bento/core/parser/parser.py'
p286
I316
tp287
a(S'library -> library_declaration'
p288
S'library'
p289
I1
S'p_library_decl_only'
p290
S'bento/core/parser/parser.py'
p291
I322
tp292
a(S'library_declaration -> LIBRARY_ID COLON library_name'
p293
S'library_declaration'
p294
I3
S'p_library_declaration'
p295
S'bento/core/parser/parser.py'
p296
I327
tp297
a(S'library_name -> word'
p298
S'library_name'
p299
I1
S'p_library_name'
p300
S'bento/core/parser/parser.py'
p301
I331
tp302
a(S'library_name -> <empty>'
p303
g299
I0
g300
g301
I332
tp304
a(S'library_stmts -> library_stmts library_stmt'
p305
S'library_stmts'
p306
I2
S'p_library_stmts'
p307
S'bento/core/parser/parser.py'
p308
I340
tp309
a(S'library_stmts -> library_stmt'
p310
S'library_stmts'
p311
I1
S'p_library_stmts_term'
p312
S'bento/core/parser/parser.py'
p313
I347
tp314
a(S'library_stmt -> modules_stmt'
p315
S'library_stmt'
p316
I1
S'p_library_stmt'
p317
S'bento/core/parser/parser.py'
p318
I352
tp319
a(S'library_stmt -> packages_stmt'
p320
g316
I1
g317
g318
I353
tp321
a(S'library_stmt -> extension_stmt'
p322
g316
I1
g317
g318
I354
tp323
a(S'library_stmt -> compiled_library_stmt'
p324
g316
I1
g317
g318
I355
tp325
a(S'library_stmt -> build_requires_stmt'
p326
g316
I1
g317
g318
I356
tp327
a(S'library_stmt -> install_requires_stmt'
p328
g316
I1
g317
g318
I357
tp329
a(S'library_stmt -> conditional_stmt'
p330
g316
I1
g317
g318
I358
tp331
a(S'packages_stmt -> PACKAGES_ID COLON comma_list'
p332
S'packages_stmt'
p333
I3
S'p_packages_stmt'
p334
S'bento/core/parser/parser.py'
p335
I363
tp336
a(S'modules_stmt -> MODULES_ID COLON comma_list'
p337
S'modules_stmt'
p338
I3
S'p_modules_stmt'
p339
S'bento/core/parser/parser.py'
p340
I367
tp341
a(S'build_requires_stmt -> BUILD_REQUIRES_ID COLON comma_list'
p342
S'build_requires_stmt'
p343
I3
S'p_build_requires_stmt'
p344
S'bento/core/parser/parser.py'
p345
I371
tp346
a(S'install_requires_stmt -> INSTALL_REQUIRES_ID COLON comma_list'
p347
S'install_requires_stmt'
p348
I3
S'p_install_requires_stmt'
p349
S'bento/core/parser/parser.py'
p350
I375
tp351
a(S'extension_stmt -> extension_decl INDENT extension_field_stmts DEDENT'
p352
S'extension_stmt'
p353
I4
S'p_extension_stmt_content'
p354
S'bento/core/parser/parser.py'
p355
I379
tp356
a(S'extension_field_stmts -> extension_field_stmts extension_field_stmt'
p357
S'extension_field_stmts'
p358
I2
S'p_extension_field_stmts'
p359
S'bento/core/parser/parser.py'
p360
I384
tp361
a(S'extension_field_stmts -> extension_field_stmt'
p362
S'extension_field_stmts'
p363
I1
S'p_extension_field_stmts_term'
p364
S'bento/core/parser/parser.py'
p365
I390
tp366
a(S'extension_decl -> EXTENSION_ID COLON anyword'
p367
S'extension_decl'
p368
I3
S'p_extension_decl'
p369
S'bento/core/parser/parser.py'
p370
I394
tp371
a(S'extension_field_stmt -> SOURCES_ID COLON comma_list'
p372
S'extension_field_stmt'
p373
I3
S'p_extension_sources'
p374
S'bento/core/parser/parser.py'
p375
I398
tp376
a(S'extension_field_stmt -> INCLUDE_DIRS_ID COLON comma_list'
p377
S'extension_field_stmt'
p378
I3
S'p_extension_include_dirs'
p379
S'bento/core/parser/parser.py'
p380
I402
tp381
a(S'compiled_library_stmt -> compiled_library_decl INDENT compiled_library_field_stmts DEDENT'
p382
S'compiled_library_stmt'
p383
I4
S'p_compiled_library_stmt_content'
p384
S'bento/core/parser/parser.py'
p385
I406
tp386
a(S'compiled_library_field_stmts -> compiled_library_field_stmts compiled_library_field_stmt'
p387
S'compiled_library_field_stmts'
p388
I2
S'p_compiled_library_field_stmts'
p389
S'bento/core/parser/parser.py'
p390
I411
tp391
a(S'compiled_library_field_stmts -> compiled_library_field_stmt'
p392
S'compiled_library_field_stmts'
p393
I1
S'p_compiled_library_field_stmts_term'
p394
S'bento/core/parser/parser.py'
p395
I417
tp396
a(S'compiled_library_decl -> COMPILED_LIBRARY_ID COLON anyword'
p397
S'compiled_library_decl'
p398
I3
S'p_compiled_library_decl'
p399
S'bento/core/parser/parser.py'
p400
I421
tp401
a(S'compiled_library_field_stmt -> SOURCES_ID COLON comma_list'
p402
S'compiled_library_field_stmt'
p403
I3
S'p_compiled_library_sources'
p404
S'bento/core/parser/parser.py'
p405
I425
tp406
a(S'compiled_library_field_stmt -> INCLUDE_DIRS_ID COLON comma_list'
p407
S'compiled_library_field_stmt'
p408
I3
S'p_compiled_library_include_dirs'
p409
S'bento/core/parser/parser.py'
p410
I429
tp411
a(S'conditional_stmt -> IF error'
p412
S'conditional_stmt'
p413
I2
S'p_conditional_if_error'
p414
S'bento/core/parser/parser.py'
p415
I436
tp416
a(S'conditional_stmt -> IF test COLON INDENT library_stmts DEDENT'
p417
S'conditional_stmt'
p418
I6
S'p_conditional_if_only'
p419
S'bento/core/parser/parser.py'
p420
I440
tp421
a(S'conditional_stmt -> IF test COLON INDENT library_stmts DEDENT ELSE COLON INDENT library_stmts DEDENT'
p422
S'conditional_stmt'
p423
I11
S'p_conditional_if_else'
p424
S'bento/core/parser/parser.py'
p425
I444
tp426
a(S'test -> bool'
p427
S'test'
p428
I1
S'p_test'
p429
S'bento/core/parser/parser.py'
p430
I450
tp431
a(S'test -> os_var'
p432
g428
I1
g429
g430
I451
tp433
a(S'test -> flag_var'
p434
g428
I1
g429
g430
I452
tp435
a(S'os_var -> OS_OP LPAR word RPAR'
p436
S'os_var'
p437
I4
S'p_os_var'
p438
S'bento/core/parser/parser.py'
p439
I456
tp440
a(S'flag_var -> FLAG_OP LPAR word RPAR'
p441
S'flag_var'
p442
I4
S'p_flag_var'
p443
S'bento/core/parser/parser.py'
p444
I460
tp445
a(S'flag_var -> NOT_OP FLAG_OP LPAR word RPAR'
p446
S'flag_var'
p447
I5
S'p_not_flag_var'
p448
S'bento/core/parser/parser.py'
p449
I464
tp450
a(S'bool -> TRUE'
p451
S'bool'
p452
I1
S'p_cond_expr_true'
p453
S'bento/core/parser/parser.py'
p454
I468
tp455
a(S'bool -> NOT_OP FALSE'
p456
S'bool'
p457
I2
S'p_cond_expr_true_not'
p458
S'bento/core/parser/parser.py'
p459
I472
tp460
a(S'bool -> FALSE'
p461
S'bool'
p462
I1
S'p_cond_expr_false'
p463
S'bento/core/parser/parser.py'
p464
I476
tp465
a(S'bool -> NOT_OP TRUE'
p466
S'bool'
p467
I2
S'p_cond_expr_false_not'
p468
S'bento/core/parser/parser.py'
p469
I480
tp470
a(S'path -> path_declaration INDENT path_stmts DEDENT'
p471
S'path'
p472
I4
S'p_path'
p473
S'bento/core/parser/parser.py'
p474
I487
tp475
a(S'path_declaration -> PATH_ID COLON anyword'
p476
S'path_declaration'
p477
I3
S'p_path_declaration'
p478
S'bento/core/parser/parser.py'
p479
I491
tp480
a(S'path_stmts -> path_stmts path_stmt'
p481
S'path_stmts'
p482
I2
S'p_path_stmts'
p483
S'bento/core/parser/parser.py'
p484
I495
tp485
a(S'path_stmts -> path_stmt'
p486
S'path_stmts'
p487
I1
S'p_path_stmts_term'
p488
S'bento/core/parser/parser.py'
p489
I499
tp490
a(S'path_stmt -> path_description'
p491
S'path_stmt'
p492
I1
S'p_path_stmt'
p493
S'bento/core/parser/parser.py'
p494
I503
tp495
a(S'path_stmt -> path_default'
p496
g492
I1
g493
g494
I504
tp497
a(S'path_description -> DESCRIPTION_ID COLON single_line_value'
p498
S'path_description'
p499
I3
S'p_path_description'
p500
S'bento/core/parser/parser.py'
p501
I508
tp502
a(S'path_default -> DEFAULT_ID COLON anyword'
p503
S'path_default'
p504
I3
S'p_path_default'
p505
S'bento/core/parser/parser.py'
p506
I513
tp507
a(S'flag -> flag_declaration INDENT flag_stmts DEDENT'
p508
S'flag'
p509
I4
S'p_flag'
p510
S'bento/core/parser/parser.py'
p511
I520
tp512
a(S'flag_declaration -> FLAG_ID COLON anyword'
p513
S'flag_declaration'
p514
I3
S'p_flag_declaration'
p515
S'bento/core/parser/parser.py'
p516
I524
tp517
a(S'flag_stmts -> flag_stmts flag_stmt'
p518
S'flag_stmts'
p519
I2
S'p_flag_stmts'
p520
S'bento/core/parser/parser.py'
p521
I528
tp522
a(S'flag_stmts -> flag_stmt'
p523
S'flag_stmts'
p524
I1
S'p_flag_stmts_term'
p525
S'bento/core/parser/parser.py'
p526
I532
tp527
a(S'flag_stmt -> flag_description'
p528
S'flag_stmt'
p529
I1
S'p_flag_stmt'
p530
S'bento/core/parser/parser.py'
p531
I536
tp532
a(S'flag_stmt -> flag_default'
p533
g529
I1
g530
g531
I537
tp534
a(S'flag_description -> DESCRIPTION_ID COLON single_line_value'
p535
S'flag_description'
p536
I3
S'p_flag_description'
p537
S'bento/core/parser/parser.py'
p538
I541
tp539
a(S'flag_default -> DEFAULT_ID COLON anyword'
p540
S'flag_default'
p541
I3
S'p_flag_default'
p542
S'bento/core/parser/parser.py'
p543
I546
tp544
a(S'exec -> exec_decl INDENT exec_stmts DEDENT'
p545
S'exec'
p546
I4
S'p_executable'
p547
S'bento/core/parser/parser.py'
p548
I553
tp549
a(S'exec_decl -> EXECUTABLE_ID COLON anyword'
p550
S'exec_decl'
p551
I3
S'p_exec_declaration'
p552
S'bento/core/parser/parser.py'
p553
I557
tp554
a(S'exec_stmts -> exec_stmts exec_stmt'
p555
S'exec_stmts'
p556
I2
S'p_exec_stmts'
p557
S'bento/core/parser/parser.py'
p558
I561
tp559
a(S'exec_stmts -> exec_stmt'
p560
S'exec_stmts'
p561
I1
S'p_exec_stmts_term'
p562
S'bento/core/parser/parser.py'
p563
I565
tp564
a(S'exec_stmt -> function'
p565
S'exec_stmt'
p566
I1
S'p_exec_stmt'
p567
S'bento/core/parser/parser.py'
p568
I569
tp569
a(S'exec_stmt -> module'
p570
g566
I1
g567
g568
I570
tp571
a(S'module -> MODULE_ID COLON anyword'
p572
S'module'
p573
I3
S'p_exec_module'
p574
S'bento/core/parser/parser.py'
p575
I574
tp576
a(S'function -> FUNCTION_ID COLON anyword'
p577
S'function'
p578
I3
S'p_exec_function'
p579
S'bento/core/parser/parser.py'
p580
I578
tp581
a(S'comma_list -> indented_comma_list'
p582
S'comma_list'
p583
I1
S'p_comma_list_indented'
p584
S'bento/core/parser/parser.py'
p585
I586
tp586
a(S'comma_list -> comma_words'
p587
S'comma_list'
p588
I1
S'p_comma_list'
p589
S'bento/core/parser/parser.py'
p590
I591
tp591
a(S'indented_comma_list -> comma_words COMMA INDENT comma_words DEDENT'
p592
S'indented_comma_list'
p593
I5
S'p_indented_comma_list'
p594
S'bento/core/parser/parser.py'
p595
I596
tp596
a(S'indented_comma_list -> INDENT comma_words DEDENT'
p597
S'indented_comma_list'
p598
I3
S'p_indented_comma_list_term'
p599
S'bento/core/parser/parser.py'
p600
I602
tp601
a(S'comma_words -> comma_words COMMA anyword_comma_list'
p602
S'comma_words'
p603
I3
S'p_comma_words'
p604
S'bento/core/parser/parser.py'
p605
I607
tp606
a(S'comma_words -> anyword_comma_list'
p607
S'comma_words'
p608
I1
S'p_comma_words_term'
p609
S'bento/core/parser/parser.py'
p610
I613
tp611
a(S'single_line_value -> WS single_line'
p612
S'single_line_value'
p613
I2
S'p_single_line'
p614
S'bento/core/parser/parser.py'
p615
I618
tp616
a(S'single_line_value -> single_line'
p617
S'single_line_value'
p618
I1
S'p_single_line_no_space'
p619
S'bento/core/parser/parser.py'
p620
I622
tp621
a(S'single_line -> single_line literal'
p622
S'single_line'
p623
I2
S'p_single_line_string'
p624
S'bento/core/parser/parser.py'
p625
I626
tp626
a(S'single_line -> literal_no_space'
p627
S'single_line'
p628
I1
S'p_single_line_string_term'
p629
S'bento/core/parser/parser.py'
p630
I630
tp631
a(S'meta_description_stmt -> description_decl single_line_newline INDENT multi_stmts DEDENT'
p632
S'meta_description_stmt'
p633
I5
S'p_meta_description_stmt_start_same_line'
p634
S'bento/core/parser/parser.py'
p635
I634
tp636
a(S'meta_description_stmt -> description_decl NEWLINE INDENT multi_stmts DEDENT'
p637
S'meta_description_stmt'
p638
I5
S'p_meta_description_stmt_indented_block'
p639
S'bento/core/parser/parser.py'
p640
I640
tp641
a(S'meta_description_stmt -> description_decl WS NEWLINE INDENT multi_stmts DEDENT'
p642
S'meta_description_stmt'
p643
I6
S'p_meta_description_stmt_indented_block2'
p644
S'bento/core/parser/parser.py'
p645
I646
tp646
a(S'meta_description_stmt -> description_decl single_line_value'
p647
S'meta_description_stmt'
p648
I2
S'p_meta_description_stmt_single'
p649
S'bento/core/parser/parser.py'
p650
I652
tp651
a(S'single_line_newline -> single_line_value newline'
p652
S'single_line_newline'
p653
I2
S'p_single_line_newline'
p654
S'bento/core/parser/parser.py'
p655
I657
tp656
a(S'description_decl -> DESCRIPTION_ID COLON'
p657
S'description_decl'
p658
I2
S'p_description_decl'
p659
S'bento/core/parser/parser.py'
p660
I662
tp661
a(S'indented_block -> indent indented_block_value'
p662
S'indented_block'
p663
I2
S'p_indented_block'
p664
S'bento/core/parser/parser.py'
p665
I666
tp666
a(S'indented_block_value -> multi_stmts dedent'
p667
S'indented_block_value'
p668
I2
S'p_indented_block_value'
p669
S'bento/core/parser/parser.py'
p670
I670
tp671
a(S'multi_stmts -> multi_stmt multi_stmts'
p672
S'multi_stmts'
p673
I2
S'p_multi_stmts'
p674
S'bento/core/parser/parser.py'
p675
I674
tp676
a(S'multi_stmts -> multi_stmt'
p677
S'multi_stmts'
p678
I1
S'p_multi_stmts_term'
p679
S'bento/core/parser/parser.py'
p680
I678
tp681
a(S'multi_stmt -> indented_block'
p682
S'multi_stmt'
p683
I1
S'p_multi_stmt_ind_block'
p684
S'bento/core/parser/parser.py'
p685
I682
tp686
a(S'multi_stmt -> multi_literal'
p687
S'multi_stmt'
p688
I1
S'p_multi_stmt_term'
p689
S'bento/core/parser/parser.py'
p690
I686
tp691
a(S'newline -> NEWLINE'
p692
S'newline'
p693
I1
S'p_newline'
p694
S'bento/core/parser/parser.py'
p695
I690
tp696
a(S'anyword -> anyword literal'
p697
S'anyword'
p698
I2
S'p_anyword'
p699
S'bento/core/parser/parser.py'
p700
I695
tp701
a(S'anyword -> literal'
p702
S'anyword'
p703
I1
S'p_anyword_term'
p704
S'bento/core/parser/parser.py'
p705
I699
tp706
a(S'anyword_comma_list -> anyword_comma_list anytoken_no_comma'
p707
S'anyword_comma_list'
p708
I2
S'p_anyword_comma_list'
p709
S'bento/core/parser/parser.py'
p710
I703
tp711
a(S'anyword_comma_list -> anytoken_no_comma'
p712
S'anyword_comma_list'
p713
I1
S'p_anyword_comma_list_term'
p714
S'bento/core/parser/parser.py'
p715
I707
tp716
a(S'anytoken_no_comma -> WORD'
p717
S'anytoken_no_comma'
p718
I1
S'p_anytoken_no_comma'
p719
S'bento/core/parser/parser.py'
p720
I712
tp721
a(S'anytoken_no_comma -> COLON'
p722
g718
I1
g719
g720
I713
tp723
a(S'anytoken_no_comma -> DOUBLE_COLON'
p724
g718
I1
g719
g720
I714
tp725
a(S'anytoken_no_comma -> LPAR'
p726
g718
I1
g719
g720
I715
tp727
a(S'anytoken_no_comma -> RPAR'
p728
g718
I1
g719
g720
I716
tp729
a(S'anytoken_no_comma -> LESS'
p730
g718
I1
g719
g720
I717
tp731
a(S'anytoken_no_comma -> SLASH'
p732
g718
I1
g719
g720
I718
tp733
a(S'anytoken_no_comma -> SHARP'
p734
g718
I1
g719
g720
I719
tp735
a(S'anytoken_no_comma -> EQUAL'
p736
g718
I1
g719
g720
I720
tp737
a(S'anytoken_no_comma -> GREATER'
p738
g718
I1
g719
g720
I721
tp739
a(S'literal_no_space -> anytoken_no_comma'
p740
S'literal_no_space'
p741
I1
S'p_literal_no_space'
p742
S'bento/core/parser/parser.py'
p743
I726
tp744
a(S'literal_no_space -> COMMA'
p745
S'literal_no_space'
p746
I1
S'p_literal_no_space_term'
p747
S'bento/core/parser/parser.py'
p748
I731
tp749
a(S'literal -> literal_no_space'
p750
S'literal'
p751
I1
S'p_literal'
p752
S'bento/core/parser/parser.py'
p753
I736
tp754
a(S'literal -> WS'
p755
S'literal'
p756
I1
S'p_literal_term'
p757
S'bento/core/parser/parser.py'
p758
I741
tp759
a(S'multi_literal -> literal'
p760
S'multi_literal'
p761
I1
S'p_multi_literal'
p762
S'bento/core/parser/parser.py'
p763
I746
tp764
a(S'multi_literal -> newline'
p765
S'multi_literal'
p766
I1
S'p_multi_literal2'
p767
S'bento/core/parser/parser.py'
p768
I751
tp769
a(S'indent -> INDENT'
p770
S'indent'
p771
I1
S'p_indent'
p772
S'bento/core/parser/parser.py'
p773
I756
tp774
a(S'dedent -> DEDENT'
p775
S'dedent'
p776
I1
S'p_dedent'
p777
S'bento/core/parser/parser.py'
p778
I761
tp779
a(S'word -> WORD'
p780
S'word'
p781
I1
S'p_word'
p782
S'bento/core/parser/parser.py'
p783
I766
tp784
a(S'version -> WORD'
p785
S'version'
p786
I1
S'p_version'
p787
S'bento/core/parser/parser.py'
p788
I770
tp789
a.