(dp0
(S'B'
p1
S'N'
p2
tp3
I0
s(S'S'
p4
S'W'
p5
tp6
I0
s(S'4'
p7
g7
tp8
I10
s(S'G'
p9
g9
tp10
I10
s(S'X'
p11
S'D'
p12
tp13
I0
s(S'3'
p14
g12
tp15
I-10
s(S'E'
p16
S'0'
p17
tp18
I-10
s(g12
S'5'
p19
tp20
I-10
s(g16
S'M'
p21
tp22
I-10
s(S'R'
p23
S'O'
p24
tp25
I-10
s(S'+'
p26
g14
tp27
I-100
s(g14
S'U'
p28
tp29
I-10
s(g1
g24
tp30
I-10
s(g7
g19
tp31
I1
s(g11
g1
tp32
I0
s(S'_'
p33
S'A'
p34
tp35
I-10
s(g34
g2
tp36
I-10
s(g14
S'C'
p37
tp38
I-10
s(S'2'
p39
S'P'
p40
tp41
I-10
s(g24
g24
tp42
I5
s(S'I'
p43
g17
tp44
I-10
s(S'J'
p45
g4
tp46
I0
s(g1
g17
tp47
I-10
s(g45
g2
tp48
I0
s(g9
g16
tp49
I-10
s(g16
g39
tp50
I-10
s(g16
g12
tp51
I-10
s(g5
g40
tp52
I2
s(S'H'
p53
g1
tp54
I-10
s(g43
S'T'
p55
tp56
I-10
s(g16
g24
tp57
I4
s(g43
g33
tp58
I-10
s(g7
S'K'
p59
tp60
I-10
s(g59
g34
tp61
I-10
s(g1
S'1'
p62
tp63
I-10
s(g37
S'Y'
p64
tp65
I-10
s(g9
g12
tp66
I0
s(g28
g62
tp67
I-10
s(g55
g2
tp68
I0
s(g33
g2
tp69
I-10
s(g39
g23
tp70
I-10
s(g5
g5
tp71
I10
s(g39
g62
tp72
I1
s(g26
g9
tp73
I-100
s(g34
g14
tp74
I-10
s(g5
g39
tp75
I-10
s(g24
g21
tp76
I-10
s(g14
g23
tp77
I-10
s(g1
g39
tp78
I-10
s(g26
g7
tp79
I-100
s(g4
g4
tp80
I10
s(g11
g37
tp81
I0
s(g7
g17
tp82
I1
s(g11
g53
tp83
I0
s(g23
g33
tp84
I-10
s(g59
g37
tp85
I6
s(g40
g14
tp86
I-10
s(g64
g43
tp87
I4
s(g17
g26
tp88
I-100
s(g24
S'L'
p89
tp90
I-10
s(g1
g14
tp91
I-10
s(g19
g53
tp92
I-10
s(g34
g59
tp93
I-10
s(g7
g62
tp94
I1
s(g28
g14
tp95
I-10
s(g34
g1
tp96
I-10
s(g17
g24
tp97
I-10
s(g33
g89
tp98
I-10
s(g39
g55
tp99
I-10
s(g5
g28
tp100
I-6
s(g39
g14
tp101
I1
s(g19
g7
tp102
I1
s(g12
g4
tp103
I6
s(g28
g33
tp104
I-10
s(g1
g7
tp105
I-10
s(g12
g11
tp106
I0
s(g53
g40
tp107
I-10
s(g40
g24
tp108
I-10
s(g64
g59
tp109
I-10
s(g5
g55
tp110
I0
s(g40
g12
tp111
I0
s(g26
g12
tp112
I-100
s(g23
g40
tp113
I0
s(g55
g23
tp114
I0
s(g7
g5
tp115
I-10
s(g43
g45
tp116
I-5
s(g45
g53
tp117
I-10
s(g1
g19
tp118
I-10
s(g37
g28
tp119
I-10
s(g19
g45
tp120
I-10
s(g39
g34
tp121
I-10
s(g33
g59
tp122
I-10
s(g59
g19
tp123
I-10
s(g17
g21
tp124
I-10
s(g62
g28
tp125
I-10
s(g2
g24
tp126
I-10
s(g34
g21
tp127
I-10
s(g39
g19
tp128
I1
s(g24
g26
tp129
I-100
s(g14
g2
tp130
I-10
s(g28
g17
tp131
I-10
s(g4
g24
tp132
I-10
s(g11
g9
tp133
I0
s(g2
g26
tp134
I-100
s(g62
g14
tp135
I1
s(g11
g89
tp136
I0
s(g89
g14
tp137
I-10
s(g2
g17
tp138
I-10
s(g21
g19
tp139
I-10
s(g28
g23
tp140
I-10
s(g14
g21
tp141
I-10
s(g34
g24
tp142
I4
s(g55
g37
tp143
I6
s(g33
g43
tp144
I-10
s(g55
g53
tp145
I-7
s(g39
g11
tp146
I0
s(g7
g12
tp147
I-10
s(g14
g7
tp148
I1
s(g24
g5
tp149
I-6
s(g34
g40
tp150
I-10
s(g45
g59
tp151
I0
s(g37
g23
tp152
I0
s(g53
g55
tp153
I-7
s(g59
g39
tp154
I-10
s(g16
g89
tp155
I-10
s(g7
g16
tp156
I-10
s(g53
g45
tp157
I-10
s(g4
g39
tp158
I-10
s(g14
g14
tp159
I10
s(g33
g23
tp160
I-10
s(g43
g9
tp161
I-10
s(g7
g4
tp162
I-10
s(g55
g34
tp163
I-10
s(g19
g64
tp164
I-10
s(g62
g43
tp165
I-10
s(g34
g17
tp166
I-10
s(g26
g24
tp167
I-100
s(g28
g4
tp168
I-10
s(g5
g45
tp169
I0
s(g24
g28
tp170
I4
s(g53
g39
tp171
I-10
s(g14
g45
tp172
I-10
s(g4
g59
tp173
I2
s(g11
g59
tp174
I0
s(g40
g39
tp175
I-10
s(g11
g40
tp176
I0
s(g59
g59
tp177
I10
s(g40
g26
tp178
I-100
s(g16
g2
tp179
I-10
s(g2
g55
tp180
I0
s(g37
g26
tp181
I-100
s(g33
g40
tp182
I-10
s(g24
g55
tp183
I-10
s(g21
g62
tp184
I-10
s(g34
g53
tp185
I-10
s(g14
g43
tp186
I-10
s(g19
g40
tp187
I-10
s(g34
g37
tp188
I-10
s(g64
g19
tp189
I-10
s(g55
g19
tp190
I-10
s(g17
g39
tp191
I1
s(g17
g9
tp192
I-10
s(g33
g7
tp193
I1
s(g34
g28
tp194
I4
s(g14
g17
tp195
I1
s(g43
g19
tp196
I-10
s(g26
g59
tp197
I-100
s(g40
g11
tp198
I0
s(g53
g4
tp199
I1
s(g5
g26
tp200
I-100
s(g53
g11
tp201
I0
s(g28
g7
tp202
I-10
s(g40
g2
tp203
I0
s(g11
g62
tp204
I0
s(g43
g64
tp205
I4
s(g40
g9
tp206
I0
s(g64
g4
tp207
I-10
s(g7
g34
tp208
I-10
s(g53
g2
tp209
I-10
s(g26
g89
tp210
I-100
s(g23
g17
tp211
I-10
s(g26
g55
tp212
I-100
s(g7
g33
tp213
I1
s(g21
g14
tp214
I-10
s(g39
g37
tp215
I-10
s(g28
g39
tp216
I-10
s(g62
g23
tp217
I-10
s(g33
g14
tp218
I1
s(g17
g17
tp219
I10
s(g17
g16
tp220
I-10
s(g62
g21
tp221
I-10
s(g2
g5
tp222
I0
s(g34
g7
tp223
I-10
s(g40
g21
tp224
I0
s(g23
g62
tp225
I-10
s(g4
g64
tp226
I-10
s(g24
g14
tp227
I-10
s(g5
g2
tp228
I0
s(g12
g64
tp229
I-10
s(g45
g34
tp230
I-6
s(g17
g55
tp231
I-10
s(g12
g2
tp232
I0
s(g11
g24
tp233
I0
s(g26
g11
tp234
I-5
s(g2
g14
tp235
I-10
s(g11
g55
tp236
I0
s(g9
g23
tp237
I0
s(g16
g26
tp238
I-100
s(g23
g39
tp239
I-10
s(g24
g39
tp240
I-10
s(g34
g89
tp241
I-10
s(g14
g16
tp242
I-10
s(g37
g16
tp243
I-10
s(g34
g9
tp244
I-10
s(g64
g1
tp245
I-9
s(g55
g59
tp246
I0
s(g33
g62
tp247
I1
s(g24
g2
tp248
I-10
s(g7
g89
tp249
I-10
s(g11
g28
tp250
I0
s(g23
g14
tp251
I-10
s(g24
g62
tp252
I-10
s(g24
g33
tp253
I-10
s(g16
g4
tp254
I-10
s(g45
g37
tp255
I0
s(g53
g5
tp256
I-10
s(g43
g26
tp257
I-100
s(g40
g28
tp258
I-10
s(g11
g19
tp259
I0
s(g7
g21
tp260
I-10
s(g19
g16
tp261
I-10
s(g43
g12
tp262
I-10
s(g23
g7
tp263
I-10
s(g21
g7
tp264
I-10
s(g43
g24
tp265
I4
s(g24
g17
tp266
I-10
s(g26
g17
tp267
I-100
s(g39
g9
tp268
I-10
s(g62
g33
tp269
I1
s(g2
g34
tp270
I-10
s(g55
g43
tp271
I-10
s(g28
g34
tp272
I4
s(g62
g34
tp273
I-10
s(g59
g5
tp274
I0
s(g23
g19
tp275
I-10
s(g4
g28
tp276
I-10
s(g7
g39
tp277
I1
s(g5
g1
tp278
I6
s(g14
g1
tp279
I-10
s(g19
g23
tp280
I-10
s(g4
g37
tp281
I6
s(g11
g4
tp282
I0
s(g2
g1
tp283
I0
s(g59
g12
tp284
I0
s(g64
g64
tp285
I5
s(g19
g9
tp286
I-10
s(g33
g11
tp287
I0
s(g26
g4
tp288
I-100
s(g55
g55
tp289
I10
s(g55
g7
tp290
I-10
s(g39
g43
tp291
I-10
s(g14
g34
tp292
I-10
s(g19
g11
tp293
I0
s(g89
g40
tp294
I0
s(g28
g37
tp295
I-10
s(g34
g23
tp296
I-10
s(g21
g23
tp297
I0
s(g7
g53
tp298
I-10
s(g43
g39
tp299
I-10
s(g59
g53
tp300
I-7
s(g64
g89
tp301
I-10
s(g16
g19
tp302
I-10
s(g12
g37
tp303
I2
s(g40
g40
tp304
I10
s(g17
g2
tp305
I-10
s(g12
g53
tp306
I-3
s(g43
g34
tp307
I4
s(g7
g43
tp308
I-10
s(g89
g12
tp309
I0
s(g17
g64
tp310
I-10
s(g21
g17
tp311
I-10
s(g89
g33
tp312
I-10
s(g89
g37
tp313
I0
s(g39
g59
tp314
I-10
s(g62
g4
tp315
I-10
s(g64
g11
tp316
I0
s(g62
g45
tp317
I-10
s(g14
g11
tp318
I0
s(g62
g16
tp319
I-10
s(g2
g33
tp320
I-10
s(g59
g26
tp321
I-100
s(g11
g34
tp322
I0
s(g12
g34
tp323
I-10
s(g16
g64
tp324
I4
s(g17
g89
tp325
I-10
s(g40
g62
tp326
I-10
s(g11
g5
tp327
I0
s(g17
g11
tp328
I0
s(g45
g17
tp329
I-10
s(g26
g26
tp330
I0
s(g9
g45
tp331
I0
s(g33
g28
tp332
I-10
s(g23
g11
tp333
I0
s(g23
g4
tp334
I0
s(g39
g21
tp335
I-10
s(g89
g23
tp336
I4
s(g34
g33
tp337
I-10
s(g64
g45
tp338
I-6
s(g24
g37
tp339
I-10
s(g55
g4
tp340
I2
s(g45
g62
tp341
I-10
s(g55
g11
tp342
I0
s(g21
g2
tp343
I1
s(g9
g14
tp344
I-10
s(g7
g55
tp345
I-10
s(g4
g11
tp346
I0
s(g59
g64
tp347
I-10
s(g16
g40
tp348
I-10
s(g89
g11
tp349
I0
s(g64
g17
tp350
I-10
s(g4
g9
tp351
I6
s(g53
g33
tp352
I-10
s(g43
g4
tp353
I-10
s(g37
g1
tp354
I0
s(g24
g1
tp355
I-10
s(g53
g12
tp356
I-3
s(g26
g1
tp357
I-100
s(g14
g19
tp358
I1
s(g7
g28
tp359
I-10
s(g19
g21
tp360
I-10
s(g43
g89
tp361
I-10
s(g33
g1
tp362
I-10
s(g39
g24
tp363
I-10
s(g59
g14
tp364
I-10
s(g59
g2
tp365
I0
s(g62
g5
tp366
I-10
s(g2
g89
tp367
I0
s(g2
g43
tp368
I-10
s(g24
g34
tp369
I4
s(g62
g2
tp370
I-10
s(g28
g43
tp371
I4
s(g45
g14
tp372
I-10
s(g9
g62
tp373
I-10
s(g59
g33
tp374
I-10
s(g4
g21
tp375
I0
s(g16
g23
tp376
I-10
s(g2
g19
tp377
I-10
s(g2
g45
tp378
I0
s(g34
g12
tp379
I-10
s(g19
g12
tp380
I-10
s(g9
g17
tp381
I-10
s(g64
g28
tp382
I4
s(g9
g2
tp383
I0
s(g19
g24
tp384
I-10
s(g17
g4
tp385
I-10
s(g62
g62
tp386
I10
s(g89
g64
tp387
I-10
s(g34
g11
tp388
I0
s(g1
g26
tp389
I-100
s(g89
g2
tp390
I0
s(g34
g4
tp391
I-10
s(g7
g1
tp392
I-10
s(g28
g59
tp393
I-10
s(g23
g53
tp394
I-10
s(g14
g39
tp395
I1
s(g12
g55
tp396
I6
s(g21
g45
tp397
I0
s(g7
g40
tp398
I-10
s(g4
g55
tp399
I2
s(g40
g4
tp400
I0
s(g12
g59
tp401
I0
s(g40
g53
tp402
I-10
s(g59
g17
tp403
I-10
s(g53
g37
tp404
I-3
s(g12
g17
tp405
I-10
s(g53
g53
tp406
I10
s(g14
g62
tp407
I1
s(g43
g43
tp408
I5
s(g33
g33
tp409
I10
s(g23
g55
tp410
I0
s(g62
g40
tp411
I-10
s(g39
g4
tp412
I-10
s(g62
g59
tp413
I-10
s(g28
g1
tp414
I-10
s(g39
g16
tp415
I-10
s(g62
g1
tp416
I-10
s(g26
g21
tp417
I-100
s(g45
g1
tp418
I0
s(g9
g19
tp419
I-10
s(g39
g53
tp420
I-10
s(g53
g17
tp421
I-10
s(g19
g4
tp422
I-10
s(g16
g7
tp423
I-10
s(g4
g43
tp424
I-10
s(g11
g43
tp425
I0
s(g12
g43
tp426
I-10
s(g16
g34
tp427
I4
s(g17
g12
tp428
I-10
s(g11
g33
tp429
I0
s(g9
g7
tp430
I-10
s(g9
g1
tp431
I0
s(g55
g12
tp432
I6
s(g62
g19
tp433
I1
s(g89
g4
tp434
I0
s(g89
g28
tp435
I-10
s(g55
g39
tp436
I-10
s(g39
g28
tp437
I-10
s(g89
g45
tp438
I0
s(g34
g5
tp439
I-6
s(g64
g23
tp440
I-10
s(g7
g2
tp441
I-10
s(g45
g33
tp442
I-10
s(g9
g26
tp443
I-100
s(g4
g40
tp444
I0
s(g16
g11
tp445
I0
s(g55
g40
tp446
I0
s(g43
g40
tp447
I-10
s(g16
g37
tp448
I-10
s(g37
g24
tp449
I-10
s(g53
g9
tp450
I-3
s(g40
g16
tp451
I-10
s(g24
g45
tp452
I-6
s(g53
g89
tp453
I-10
s(g26
g45
tp454
I-100
s(g19
g26
tp455
I-100
s(g19
g28
tp456
I-10
s(g55
g1
tp457
I0
s(g33
g45
tp458
I-10
s(g28
g55
tp459
I-10
s(g62
g55
tp460
I-10
s(g21
g33
tp461
I-10
s(g39
g5
tp462
I-10
s(g62
g24
tp463
I-10
s(g64
g55
tp464
I-10
s(g24
g43
tp465
I4
s(g55
g64
tp466
I-10
s(g19
g62
tp467
I1
s(g45
g26
tp468
I-100
s(g53
g7
tp469
I-10
s(g37
g7
tp470
I-10
s(g59
g9
tp471
I6
s(g4
g16
tp472
I-10
s(g11
g21
tp473
I0
s(g64
g16
tp474
I4
s(g5
g23
tp475
I0
s(g40
g7
tp476
I-10
s(g4
g14
tp477
I-10
s(g2
g23
tp478
I0
s(g24
g53
tp479
I-10
s(g45
g23
tp480
I0
s(g19
g89
tp481
I-10
s(g19
g5
tp482
I-10
s(g37
g14
tp483
I-10
s(g17
g59
tp484
I-10
s(g33
g53
tp485
I-10
s(g21
g64
tp486
I-10
s(g39
g64
tp487
I-10
s(g4
g2
tp488
I0
s(g37
g89
tp489
I0
s(g28
g53
tp490
I-10
s(g7
g45
tp491
I-10
s(g12
g5
tp492
I0
s(g19
g14
tp493
I1
s(g21
g1
tp494
I0
s(g7
g11
tp495
I0
s(g4
g89
tp496
I0
s(g40
g23
tp497
I0
s(g53
g28
tp498
I-10
s(g40
g59
tp499
I0
s(g64
g9
tp500
I-10
s(g11
g39
tp501
I0
s(g12
g14
tp502
I-10
s(g5
g11
tp503
I0
s(g17
g19
tp504
I1
s(g37
g59
tp505
I6
s(g53
g59
tp506
I-7
s(g5
g14
tp507
I-10
s(g23
g5
tp508
I0
s(g45
g55
tp509
I0
s(g19
g2
tp510
I-10
s(g64
g26
tp511
I-100
s(g7
g64
tp512
I-10
s(g33
g9
tp513
I-10
s(g17
g43
tp514
I-10
s(g26
g40
tp515
I-100
s(g2
g37
tp516
I0
s(g62
g53
tp517
I-10
s(g62
g37
tp518
I-10
s(g28
g45
tp519
I-6
s(g12
g28
tp520
I-10
s(g33
g26
tp521
I-100
s(g45
g28
tp522
I-6
s(g59
g28
tp523
I-10
s(g53
g14
tp524
I-10
s(g37
g17
tp525
I-10
s(g4
g34
tp526
I-10
s(g12
g62
tp527
I-10
s(g16
g43
tp528
I4
s(g11
g16
tp529
I0
s(g5
g62
tp530
I-10
s(g55
g9
tp531
I0
s(g33
g16
tp532
I-10
s(g62
g39
tp533
I1
s(g1
g40
tp534
I6
s(g55
g89
tp535
I0
s(g26
g2
tp536
I-100
s(g89
g21
tp537
I0
s(g21
g28
tp538
I-10
s(g34
g55
tp539
I-10
s(g37
g53
tp540
I-3
s(g89
g1
tp541
I0
s(g5
g17
tp542
I-10
s(g24
g4
tp543
I-10
s(g43
g7
tp544
I-10
s(g45
g5
tp545
I0
s(g40
g64
tp546
I-10
s(g4
g53
tp547
I1
s(g53
g64
tp548
I-10
s(g14
g26
tp549
I-100
s(g43
g11
tp550
I0
s(g16
g59
tp551
I-10
s(g37
g9
tp552
I2
s(g53
g24
tp553
I-10
s(g43
g37
tp554
I-10
s(g24
g23
tp555
I-10
s(g26
g39
tp556
I-100
s(g59
g23
tp557
I0
s(g55
g16
tp558
I-10
s(g55
g26
tp559
I-100
s(g1
g23
tp560
I0
s(g55
g45
tp561
I0
s(g33
g39
tp562
I1
s(g55
g17
tp563
I-10
s(g62
g89
tp564
I-10
s(g21
g5
tp565
I0
s(g39
g33
tp566
I1
s(g26
g37
tp567
I-100
s(g62
g9
tp568
I-10
s(g2
g64
tp569
I-10
s(g28
g64
tp570
I4
s(g28
g26
tp571
I-100
s(g1
g4
tp572
I0
s(g59
g24
tp573
I-10
s(g16
g1
tp574
I-10
s(g2
g53
tp575
I-10
s(g14
g33
tp576
I1
s(g4
g26
tp577
I-100
s(g5
g19
tp578
I-10
s(g24
g40
tp579
I-10
s(g45
g45
tp580
I10
s(g19
g55
tp581
I-10
s(g64
g12
tp582
I-10
s(g2
g7
tp583
I-10
s(g19
g33
tp584
I1
s(g1
g55
tp585
I0
s(g17
g37
tp586
I-10
s(g33
g17
tp587
I1
s(g26
g33
tp588
I-100
s(g9
g64
tp589
I-10
s(g89
g43
tp590
I-10
s(g23
g34
tp591
I-10
s(g37
g12
tp592
I2
s(g43
g62
tp593
I-10
s(g19
g17
tp594
I1
s(g5
g7
tp595
I-10
s(g7
g23
tp596
I-10
s(g12
g33
tp597
I-10
s(g89
g5
tp598
I0
s(g17
g23
tp599
I-10
s(g12
g12
tp600
I10
s(g26
g64
tp601
I-100
s(g89
g59
tp602
I0
s(g4
g12
tp603
I6
s(g40
g45
tp604
I0
s(g1
g28
tp605
I-10
s(g43
g28
tp606
I4
s(g40
g37
tp607
I0
s(g64
g24
tp608
I4
s(g9
g11
tp609
I0
s(g23
g1
tp610
I0
s(g37
g37
tp611
I10
s(g5
g59
tp612
I0
s(g43
g2
tp613
I-10
s(g45
g89
tp614
I0
s(g28
g28
tp615
I5
s(g64
g14
tp616
I-10
s(g33
g24
tp617
I-10
s(g59
g62
tp618
I-10
s(g17
g34
tp619
I-10
s(g39
g17
tp620
I1
s(g21
g11
tp621
I0
s(g2
g59
tp622
I0
s(g9
g33
tp623
I-10
s(g89
g9
tp624
I0
s(g21
g4
tp625
I0
s(g23
g37
tp626
I0
s(g19
g39
tp627
I1
s(g16
g28
tp628
I4
s(g45
g21
tp629
I0
s(g17
g40
tp630
I-10
s(g12
g1
tp631
I0
s(g26
g43
tp632
I-100
s(g1
g5
tp633
I6
s(g11
g64
tp634
I0
s(g23
g12
tp635
I0
s(g45
g43
tp636
I-5
s(g7
g26
tp637
I-100
s(g5
g43
tp638
I-6
s(g26
g62
tp639
I-100
s(g89
g7
tp640
I-10
s(g55
g24
tp641
I-10
s(g33
g21
tp642
I-10
s(g1
g11
tp643
I0
s(g39
g39
tp644
I10
s(g89
g16
tp645
I-10
s(g21
g21
tp646
I10
s(g23
g16
tp647
I-10
s(g34
g64
tp648
I4
s(g5
g53
tp649
I-10
s(g11
g45
tp650
I0
s(g4
g23
tp651
I0
s(g16
g5
tp652
I-6
s(g45
g24
tp653
I-6
s(g45
g16
tp654
I-6
s(g59
g16
tp655
I-10
s(g1
g64
tp656
I-9
s(g53
g34
tp657
I-10
s(g2
g12
tp658
I0
s(g16
g53
tp659
I-10
s(g64
g7
tp660
I-10
s(g37
g33
tp661
I-10
s(g43
g59
tp662
I-10
s(g5
g24
tp663
I-6
s(g34
g26
tp664
I-100
s(g89
g39
tp665
I-10
s(g2
g16
tp666
I-10
s(g55
g21
tp667
I0
s(g28
g16
tp668
I4
s(g55
g14
tp669
I-10
s(g39
g7
tp670
I1
s(g21
g55
tp671
I0
s(g9
g4
tp672
I6
s(g62
g12
tp673
I-10
s(g21
g24
tp674
I-10
s(g23
g9
tp675
I0
s(g59
g43
tp676
I-10
s(g64
g21
tp677
I-10
s(g24
g64
tp678
I4
s(g11
g11
tp679
I0
s(g4
g19
tp680
I-10
s(g16
g45
tp681
I-6
s(g2
g40
tp682
I0
s(g14
g5
tp683
I-10
s(g33
g55
tp684
I-10
s(g5
g21
tp685
I0
s(g24
g11
tp686
I0
s(g37
g19
tp687
I-10
s(g23
g89
tp688
I4
s(g89
g17
tp689
I-10
s(g28
g9
tp690
I-10
s(g55
g62
tp691
I-10
s(g37
g2
tp692
I0
s(g64
g40
tp693
I-10
s(g89
g34
tp694
I-10
s(g21
g43
tp695
I-10
s(g23
g43
tp696
I-10
s(g28
g11
tp697
I0
s(g5
g89
tp698
I0
s(g12
g9
tp699
I0
s(g17
g45
tp700
I-10
s(g12
g89
tp701
I0
s(g43
g23
tp702
I-10
s(g40
g1
tp703
I6
s(g37
g21
tp704
I0
s(g53
g16
tp705
I-10
s(g64
g5
tp706
I-5
s(g9
g40
tp707
I0
s(g33
g4
tp708
I-10
s(g23
g45
tp709
I0
s(g26
g53
tp710
I-100
s(g5
g37
tp711
I0
s(g45
g12
tp712
I0
s(g26
g28
tp713
I-100
s(g17
g7
tp714
I1
s(g34
g62
tp715
I-10
s(g21
g40
tp716
I0
s(g2
g4
tp717
I0
s(g9
g5
tp718
I0
s(g21
g59
tp719
I0
s(g14
g55
tp720
I-10
s(g12
g16
tp721
I-10
s(g64
g62
tp722
I-10
s(g37
g39
tp723
I-10
s(g17
g53
tp724
I-10
s(g12
g45
tp725
I0
s(g39
g89
tp726
I-10
s(g1
g33
tp727
I-10
s(g4
g62
tp728
I-10
s(g14
g4
tp729
I-10
s(g34
g43
tp730
I4
s(g7
g14
tp731
I1
s(g5
g34
tp732
I-6
s(g62
g17
tp733
I1
s(g37
g62
tp734
I-10
s(g62
g26
tp735
I-100
s(g55
g5
tp736
I0
s(g33
g19
tp737
I1
s(g37
g45
tp738
I0
s(g11
g23
tp739
I0
s(g9
g28
tp740
I-10
s(g21
g16
tp741
I-10
s(g23
g21
tp742
I0
s(g37
g11
tp743
I0
s(g16
g55
tp744
I-10
s(g24
g19
tp745
I-10
s(g53
g23
tp746
I-10
s(g4
g45
tp747
I0
s(g16
g33
tp748
I-10
s(g45
g9
tp749
I0
s(g11
g26
tp750
I-5
s(g40
g43
tp751
I-10
s(g11
g17
tp752
I0
s(g1
g34
tp753
I-10
s(g37
g43
tp754
I-10
s(g53
g43
tp755
I-10
s(g9
g55
tp756
I0
s(g19
g34
tp757
I-10
s(g43
g53
tp758
I-10
s(g23
g2
tp759
I0
s(g37
g5
tp760
I0
s(g39
g1
tp761
I-10
s(g24
g7
tp762
I-10
s(g5
g9
tp763
I0
s(g89
g19
tp764
I-10
s(g26
g5
tp765
I-100
s(g59
g1
tp766
I0
s(g23
g26
tp767
I-100
s(g64
g53
tp768
I-10
s(g55
g28
tp769
I-10
s(g28
g21
tp770
I-10
s(g1
g1
tp771
I10
s(g34
g19
tp772
I-10
s(g21
g89
tp773
I0
s(g28
g40
tp774
I-10
s(g9
g59
tp775
I6
s(g21
g9
tp776
I0
s(g14
g40
tp777
I-10
s(g59
g4
tp778
I2
s(g53
g62
tp779
I-10
s(g11
g2
tp780
I0
s(g2
g2
tp781
I10
s(g1
g37
tp782
I0
s(g2
g11
tp783
I0
s(g19
g37
tp784
I-10
s(g14
g24
tp785
I-10
s(g17
g33
tp786
I1
s(g21
g39
tp787
I-10
s(g39
g12
tp788
I-10
s(g5
g16
tp789
I-6
s(g62
g7
tp790
I1
s(g28
g12
tp791
I-10
s(g28
g24
tp792
I4
s(g1
g12
tp793
I0
s(g89
g24
tp794
I-10
s(g9
g43
tp795
I-10
s(g21
g34
tp796
I-10
s(g37
g55
tp797
I6
s(g40
g33
tp798
I-10
s(g5
g12
tp799
I0
s(g16
g62
tp800
I-10
s(g12
g24
tp801
I-10
s(g40
g55
tp802
I0
s(g59
g7
tp803
I-10
s(g17
g1
tp804
I-10
s(g12
g7
tp805
I-10
s(g7
g9
tp806
I-10
s(g11
g7
tp807
I0
s(g4
g7
tp808
I-10
s(g45
g11
tp809
I0
s(g1
g16
tp810
I-10
s(g45
g39
tp811
I-10
s(g53
g21
tp812
I-10
s(g43
g16
tp813
I4
s(g9
g39
tp814
I-10
s(g64
g33
tp815
I-10
s(g9
g53
tp816
I-3
s(g12
g26
tp817
I-100
s(g23
g23
tp818
I10
s(g59
g40
tp819
I0
s(g37
g4
tp820
I6
s(g26
g23
tp821
I-100
s(g89
g62
tp822
I-10
s(g45
g64
tp823
I-6
s(g26
g34
tp824
I-100
s(g4
g33
tp825
I-10
s(g21
g53
tp826
I-10
s(g9
g24
tp827
I-10
s(g21
g37
tp828
I0
s(g14
g89
tp829
I-10
s(g12
g23
tp830
I0
s(g53
g19
tp831
I-10
s(g16
g14
tp832
I-10
s(g12
g21
tp833
I0
s(g16
g16
tp834
I5
s(g59
g21
tp835
I0
s(g40
g19
tp836
I-10
s(g12
g39
tp837
I-10
s(g53
g26
tp838
I-100
s(g1
g9
tp839
I0
s(g45
g7
tp840
I-10
s(g33
g64
tp841
I-10
s(g14
g59
tp842
I-10
s(g26
g19
tp843
I-100
s(g34
g34
tp844
I5
s(g5
g64
tp845
I-5
s(g64
g2
tp846
I-10
s(g24
g9
tp847
I-10
s(g55
g33
tp848
I-10
s(g1
g53
tp849
I-10
s(g45
g19
tp850
I-10
s(g43
g14
tp851
I-10
s(g9
g21
tp852
I0
s(g33
g5
tp853
I-10
s(g23
g28
tp854
I-10
s(g37
g40
tp855
I0
s(g64
g39
tp856
I-10
s(g4
g1
tp857
I0
s(g16
g9
tp858
I-10
s(g11
g14
tp859
I0
s(g43
g5
tp860
I-6
s(g40
g34
tp861
I-10
s(g7
g37
tp862
I-10
s(g59
g55
tp863
I0
s(g4
g17
tp864
I-10
s(g1
g43
tp865
I-10
s(g37
g34
tp866
I-10
s(g9
g89
tp867
I0
s(g19
g43
tp868
I-10
s(g62
g64
tp869
I-10
s(g39
g45
tp870
I-10
s(g5
g33
tp871
I-10
s(g28
g19
tp872
I-10
s(g59
g45
tp873
I0
s(g2
g28
tp874
I-10
s(g24
g16
tp875
I4
s(g34
g39
tp876
I-10
s(g19
g19
tp877
I10
s(g1
g45
tp878
I0
s(g21
g12
tp879
I0
s(g62
g11
tp880
I0
s(g9
g37
tp881
I2
s(g59
g11
tp882
I0
s(g14
g53
tp883
I-10
s(g21
g26
tp884
I-100
s(g64
g34
tp885
I4
s(g2
g62
tp886
I-10
s(g40
g17
tp887
I-10
s(g17
g14
tp888
I1
s(g24
g12
tp889
I-10
s(g14
g64
tp890
I-10
s(g1
g59
tp891
I0
s(g89
g55
tp892
I0
s(g19
g59
tp893
I-10
s(g34
g45
tp894
I-6
s(g14
g9
tp895
I-10
s(g17
g5
tp896
I-10
s(g23
g59
tp897
I0
s(g33
g12
tp898
I-10
s(g34
g16
tp899
I4
s(g2
g39
tp900
I-10
s(g39
g26
tp901
I-100
s(g89
g26
tp902
I-100
s(g59
g89
tp903
I0
s(g24
g59
tp904
I-10
s(g28
g89
tp905
I-10
s(g2
g21
tp906
I1
s(g28
g5
tp907
I-6
s(g1
g89
tp908
I0
s(g12
g40
tp909
I0
s(g9
g34
tp910
I-10
s(g23
g64
tp911
I-10
s(g40
g5
tp912
I2
s(g64
g37
tp913
I-10
s(g89
g53
tp914
I-10
s(g40
g89
tp915
I0
s(g17
g62
tp916
I1
s(g26
g16
tp917
I-100
s(g7
g24
tp918
I-10
s(g43
g1
tp919
I-10
s(g45
g40
tp920
I0
s(g1
g21
tp921
I0
s(g19
g1
tp922
I-10
s(g43
g21
tp923
I-10
s(g33
g37
tp924
I-10
s(g17
g28
tp925
I-10
s(g39
g2
tp926
I-10
s(g2
g9
tp927
I0
s(g5
g4
tp928
I0
s(g89
g89
tp929
I10
s(g28
g2
tp930
I-10
s.