S'3.2'
p1
.S'LALR'
p1
.S'\xba\xf4\x87-\x03\x9e7\x13\xe2)\x00\xe3\xb1*B\r'
p1
.(dp1
I0
(dp2
S'SUBENTO_ID'
p3
I49
sS'KEYWORDS_ID'
p4
I1
sS'CONFIG_PY_ID'
p5
I50
sS'USE_BACKENDS_ID'
p6
I3
sS'MAINTAINER_ID'
p7
I10
sS'PLATFORMS_ID'
p8
I20
sS'META_TEMPLATE_FILE_ID'
p9
I44
sS'META_TEMPLATE_FILES_ID'
p10
I36
sS'FLAG_ID'
p11
I54
sS'SUMMARY_ID'
p12
I38
sS'URL_ID'
p13
I6
sS'LIBRARY_ID'
p14
I7
sS'DESCRIPTION_FROM_FILE_ID'
p15
I8
sS'NEWLINE'
p16
I9
sS'PATH_ID'
p17
I56
sS'AUTHOR_ID'
p18
I57
sS'EXECUTABLE_ID'
p19
I26
sS'HOOK_FILE_ID'
p20
I58
sS'$end'
p21
I-13
sS'DATAFILES_ID'
p22
I11
sS'DOWNLOAD_URL_ID'
p23
I60
sS'LICENSE_ID'
p24
I30
sS'MAINTAINER_EMAIL_ID'
p25
I13
sS'AUTHOR_EMAIL_ID'
p26
I31
sS'AND'
p27
I32
sS'EXTRA_SOURCE_FILES_ID'
p28
I42
sS'DESCRIPTION_ID'
p29
I16
sS'VERSION_ID'
p30
I66
sS'CLASSIFIERS_ID'
p31
I18
sS'NAME_ID'
p32
I46
ssI1
(dp33
S'COLON'
p34
I67
ssI2
(dp35
g3
I-25
sg4
I-25
sg5
I-25
sg6
I-25
sg7
I-25
sg8
I-25
sg9
I-25
sg10
I-25
sg11
I-25
sg12
I-25
sg13
I-25
sg14
I-25
sg15
I-25
sg17
I-25
sg18
I-25
sg19
I-25
sg20
I-25
sg21
I-25
sg22
I-25
sg23
I-25
sg24
I-25
sg25
I-25
sg26
I-25
sg27
I-25
sg28
I-25
sg29
I-25
sg30
I-25
sg31
I-25
sg32
I-25
ssI3
(dp36
S'COLON'
p37
I68
ssI4
(dp38
g3
I-78
sg4
I-78
sg5
I-78
sg6
I-78
sg7
I-78
sg8
I-78
sg9
I-78
sg10
I-78
sg11
I-78
sg12
I-78
sg13
I-78
sg14
I-78
sg15
I-78
sg17
I-78
sg18
I-78
sg19
I-78
sg20
I-78
sg21
I-78
sg22
I-78
sg23
I-78
sg24
I-78
sg25
I-78
sg26
I-78
sg27
I-78
sg28
I-78
sS'INDENT'
p39
I69
sg29
I-78
sg30
I-78
sg31
I-78
sg32
I-78
ssI5
(dp40
g3
I-11
sg4
I-11
sg5
I-11
sg6
I-11
sg7
I-11
sg8
I-11
sg9
I-11
sg10
I-11
sg11
I-11
sg12
I-11
sg13
I-11
sg14
I-11
sg15
I-11
sg17
I-11
sg18
I-11
sg19
I-11
sg20
I-11
sg21
I-11
sg22
I-11
sg23
I-11
sg24
I-11
sg25
I-11
sg26
I-11
sg27
I-11
sg28
I-11
sg29
I-11
sg30
I-11
sg31
I-11
sg32
I-11
ssI6
(dp41
S'COLON'
p42
I70
ssI7
(dp43
S'COLON'
p44
I71
ssI8
(dp45
S'COLON'
p46
I72
ssI9
(dp47
g3
I-4
sg4
I-4
sg5
I-4
sg6
I-4
sg7
I-4
sg8
I-4
sg9
I-4
sg10
I-4
sg11
I-4
sg12
I-4
sg13
I-4
sg14
I-4
sg15
I-4
sg17
I-4
sg18
I-4
sg19
I-4
sg20
I-4
sg21
I-4
sg22
I-4
sg23
I-4
sg24
I-4
sg25
I-4
sg26
I-4
sg27
I-4
sg28
I-4
sg29
I-4
sg30
I-4
sg31
I-4
sg32
I-4
ssI10
(dp48
S'COLON'
p49
I73
ssI11
(dp50
S'COLON'
p51
I74
ssI12
(dp52
g3
I-26
sg4
I-26
sg5
I-26
sg6
I-26
sg7
I-26
sg8
I-26
sg9
I-26
sg10
I-26
sg11
I-26
sg12
I-26
sg13
I-26
sg14
I-26
sg15
I-26
sg17
I-26
sg18
I-26
sg19
I-26
sg20
I-26
sg21
I-26
sg22
I-26
sg23
I-26
sg24
I-26
sg25
I-26
sg26
I-26
sg27
I-26
sg28
I-26
sg29
I-26
sg30
I-26
sg31
I-26
sg32
I-26
ssI13
(dp53
S'COLON'
p54
I75
ssI14
(dp55
S'INDENT'
p56
I76
ssI15
(dp57
S'INDENT'
p58
I77
ssI16
(dp59
S'COLON'
p60
I78
ssI17
(dp61
g3
I-18
sg4
I-18
sg5
I-18
sg6
I-18
sg7
I-18
sg8
I-18
sg9
I-18
sg10
I-18
sg11
I-18
sg12
I-18
sg13
I-18
sg14
I-18
sg15
I-18
sg17
I-18
sg18
I-18
sg19
I-18
sg20
I-18
sg21
I-18
sg22
I-18
sg23
I-18
sg24
I-18
sg25
I-18
sg26
I-18
sg27
I-18
sg28
I-18
sg29
I-18
sg30
I-18
sg31
I-18
sg32
I-18
ssI18
(dp62
S'COLON'
p63
I79
ssI19
(dp64
g3
I-8
sg4
I-8
sg5
I-8
sg6
I-8
sg7
I-8
sg8
I-8
sg9
I-8
sg10
I-8
sg11
I-8
sg12
I-8
sg13
I-8
sg14
I-8
sg15
I-8
sg17
I-8
sg18
I-8
sg19
I-8
sg20
I-8
sg21
I-8
sg22
I-8
sg23
I-8
sg24
I-8
sg25
I-8
sg26
I-8
sg27
I-8
sg28
I-8
sg29
I-8
sg30
I-8
sg31
I-8
sg32
I-8
ssI20
(dp65
S'COLON'
p66
I80
ssI21
(dp67
g3
I-6
sg4
I-6
sg5
I-6
sg6
I-6
sg7
I-6
sg8
I-6
sg9
I-6
sg10
I-6
sg11
I-6
sg12
I-6
sg13
I-6
sg14
I-6
sg15
I-6
sg17
I-6
sg18
I-6
sg19
I-6
sg20
I-6
sg21
I-6
sg22
I-6
sg23
I-6
sg24
I-6
sg25
I-6
sg26
I-6
sg27
I-6
sg28
I-6
sg29
I-6
sg30
I-6
sg31
I-6
sg32
I-6
ssI22
(dp68
g3
I-14
sg4
I-14
sg5
I-14
sg6
I-14
sg7
I-14
sg8
I-14
sg9
I-14
sg10
I-14
sg11
I-14
sg12
I-14
sg13
I-14
sg14
I-14
sg15
I-14
sg17
I-14
sg18
I-14
sg19
I-14
sg20
I-14
sg21
I-14
sg22
I-14
sg23
I-14
sg24
I-14
sg25
I-14
sg26
I-14
sg27
I-14
sg28
I-14
sg29
I-14
sg30
I-14
sg31
I-14
sg32
I-14
ssI23
(dp69
S'INDENT'
p70
I81
ssI24
(dp71
g3
I-32
sg4
I-32
sg5
I-32
sg6
I-32
sg7
I-32
sg8
I-32
sg9
I-32
sg10
I-32
sg11
I-32
sg12
I-32
sg13
I-32
sg14
I-32
sg15
I-32
sg17
I-32
sg18
I-32
sg19
I-32
sg20
I-32
sg21
I-32
sg22
I-32
sg23
I-32
sg24
I-32
sg25
I-32
sg26
I-32
sg27
I-32
sg28
I-32
sg29
I-32
sg30
I-32
sg31
I-32
sg32
I-32
ssI25
(dp72
g3
I-23
sg4
I-23
sg5
I-23
sg6
I-23
sg7
I-23
sg8
I-23
sg9
I-23
sg10
I-23
sg11
I-23
sg12
I-23
sg13
I-23
sg14
I-23
sg15
I-23
sg17
I-23
sg18
I-23
sg19
I-23
sg20
I-23
sg21
I-23
sg22
I-23
sg23
I-23
sg24
I-23
sg25
I-23
sg26
I-23
sg27
I-23
sg28
I-23
sg29
I-23
sg30
I-23
sg31
I-23
sg32
I-23
ssI26
(dp73
S'COLON'
p74
I82
ssI27
(dp75
g3
I-21
sg4
I-21
sg5
I-21
sg6
I-21
sg7
I-21
sg8
I-21
sg9
I-21
sg10
I-21
sg11
I-21
sg12
I-21
sg13
I-21
sg14
I-21
sg15
I-21
sg17
I-21
sg18
I-21
sg19
I-21
sg20
I-21
sg21
I-21
sg22
I-21
sg23
I-21
sg24
I-21
sg25
I-21
sg26
I-21
sg27
I-21
sg28
I-21
sg29
I-21
sg30
I-21
sg31
I-21
sg32
I-21
ssI28
(dp76
g3
I-2
sg4
I-2
sg5
I-2
sg6
I-2
sg7
I-2
sg8
I-2
sg9
I-2
sg10
I-2
sg11
I-2
sg12
I-2
sg13
I-2
sg14
I-2
sg15
I-2
sg17
I-2
sg18
I-2
sg19
I-2
sg20
I-2
sg21
I-2
sg22
I-2
sg23
I-2
sg24
I-2
sg25
I-2
sg26
I-2
sg27
I-2
sg28
I-2
sg29
I-2
sg30
I-2
sg31
I-2
sg32
I-2
ssI29
(dp77
g3
I-27
sg4
I-27
sg5
I-27
sg6
I-27
sg7
I-27
sg8
I-27
sg9
I-27
sg10
I-27
sg11
I-27
sg12
I-27
sg13
I-27
sg14
I-27
sg15
I-27
sg17
I-27
sg18
I-27
sg19
I-27
sg20
I-27
sg21
I-27
sg22
I-27
sg23
I-27
sg24
I-27
sg25
I-27
sg26
I-27
sg27
I-27
sg28
I-27
sg29
I-27
sg30
I-27
sg31
I-27
sg32
I-27
ssI30
(dp78
S'COLON'
p79
I83
ssI31
(dp80
S'COLON'
p81
I84
ssI32
(dp82
S'BACKSLASH'
p83
I85
ssI33
(dp84
g3
I-24
sg4
I-24
sg5
I-24
sg6
I-24
sg7
I-24
sg8
I-24
sg9
I-24
sg10
I-24
sg11
I-24
sg12
I-24
sg13
I-24
sg14
I-24
sg15
I-24
sg17
I-24
sg18
I-24
sg19
I-24
sg20
I-24
sg21
I-24
sg22
I-24
sg23
I-24
sg24
I-24
sg25
I-24
sg26
I-24
sg27
I-24
sg28
I-24
sg29
I-24
sg30
I-24
sg31
I-24
sg32
I-24
ssI34
(dp85
g3
I-3
sg4
I-3
sg5
I-3
sg6
I-3
sg7
I-3
sg8
I-3
sg9
I-3
sg10
I-3
sg11
I-3
sg12
I-3
sg13
I-3
sg14
I-3
sg15
I-3
sg17
I-3
sg18
I-3
sg19
I-3
sg20
I-3
sg21
I-3
sg22
I-3
sg23
I-3
sg24
I-3
sg25
I-3
sg26
I-3
sg27
I-3
sg28
I-3
sg29
I-3
sg30
I-3
sg31
I-3
sg32
I-3
ssI35
(dp86
g3
I-22
sg4
I-22
sg5
I-22
sg6
I-22
sg7
I-22
sg8
I-22
sg9
I-22
sg10
I-22
sg11
I-22
sg12
I-22
sg13
I-22
sg14
I-22
sg15
I-22
sg17
I-22
sg18
I-22
sg19
I-22
sg20
I-22
sg21
I-22
sg22
I-22
sg23
I-22
sg24
I-22
sg25
I-22
sg26
I-22
sg27
I-22
sg28
I-22
sg29
I-22
sg30
I-22
sg31
I-22
sg32
I-22
ssI36
(dp87
S'COLON'
p88
I86
ssI37
(dp89
S'INDENT'
p90
I87
ssI38
(dp91
S'COLON'
p92
I88
ssI39
(dp93
g3
I-31
sg4
I-31
sg5
I-31
sg6
I-31
sg7
I-31
sg8
I-31
sg9
I-31
sg10
I-31
sg11
I-31
sg12
I-31
sg13
I-31
sg14
I-31
sg15
I-31
sg17
I-31
sg18
I-31
sg19
I-31
sg20
I-31
sg21
I-31
sg22
I-31
sg23
I-31
sg24
I-31
sg25
I-31
sg26
I-31
sg27
I-31
sg28
I-31
sg29
I-31
sg30
I-31
sg31
I-31
sg32
I-31
ssI40
(dp94
g3
I-5
sg4
I-5
sg5
I-5
sg6
I-5
sg7
I-5
sg8
I-5
sg9
I-5
sg10
I-5
sg11
I-5
sg12
I-5
sg13
I-5
sg14
I-5
sg15
I-5
sg17
I-5
sg18
I-5
sg19
I-5
sg20
I-5
sg21
I-5
sg22
I-5
sg23
I-5
sg24
I-5
sg25
I-5
sg26
I-5
sg27
I-5
sg28
I-5
sg29
I-5
sg30
I-5
sg31
I-5
sg32
I-5
ssI41
(dp95
g3
I-9
sg4
I-9
sg5
I-9
sg6
I-9
sg7
I-9
sg8
I-9
sg9
I-9
sg10
I-9
sg11
I-9
sg12
I-9
sg13
I-9
sg14
I-9
sg15
I-9
sg17
I-9
sg18
I-9
sg19
I-9
sg20
I-9
sg21
I-9
sg22
I-9
sg23
I-9
sg24
I-9
sg25
I-9
sg26
I-9
sg27
I-9
sg28
I-9
sg29
I-9
sg30
I-9
sg31
I-9
sg32
I-9
ssI42
(dp96
S'COLON'
p97
I89
ssI43
(dp98
g3
I-30
sg4
I-30
sg5
I-30
sg6
I-30
sg7
I-30
sg8
I-30
sg9
I-30
sg10
I-30
sg11
I-30
sg12
I-30
sg13
I-30
sg14
I-30
sg15
I-30
sg17
I-30
sg18
I-30
sg19
I-30
sg20
I-30
sg21
I-30
sg22
I-30
sg23
I-30
sg24
I-30
sg25
I-30
sg26
I-30
sg27
I-30
sg28
I-30
sg29
I-30
sg30
I-30
sg31
I-30
sg32
I-30
ssI44
(dp99
S'COLON'
p100
I90
ssI45
(dp101
g3
I-15
sg4
I-15
sg5
I-15
sg6
I-15
sg7
I-15
sg8
I-15
sg9
I-15
sg10
I-15
sg11
I-15
sg12
I-15
sg13
I-15
sg14
I-15
sg15
I-15
sg17
I-15
sg18
I-15
sg19
I-15
sg20
I-15
sg21
I-15
sg22
I-15
sg23
I-15
sg24
I-15
sg25
I-15
sg26
I-15
sg27
I-15
sg28
I-15
sg29
I-15
sg30
I-15
sg31
I-15
sg32
I-15
ssI46
(dp102
S'COLON'
p103
I91
ssI47
(dp104
g3
I-17
sg4
I-17
sg5
I-17
sg6
I-17
sg7
I-17
sg8
I-17
sg9
I-17
sg10
I-17
sg11
I-17
sg12
I-17
sg13
I-17
sg14
I-17
sg15
I-17
sg17
I-17
sg18
I-17
sg19
I-17
sg20
I-17
sg21
I-17
sg22
I-17
sg23
I-17
sg24
I-17
sg25
I-17
sg26
I-17
sg27
I-17
sg28
I-17
sg29
I-17
sg30
I-17
sg31
I-17
sg32
I-17
ssI48
(dp105
g3
I-33
sg4
I-33
sg5
I-33
sg6
I-33
sg7
I-33
sg8
I-33
sg9
I-33
sg10
I-33
sg11
I-33
sg12
I-33
sg13
I-33
sg14
I-33
sg15
I-33
sg17
I-33
sg18
I-33
sg19
I-33
sg20
I-33
sg21
I-33
sg22
I-33
sg23
I-33
sg24
I-33
sg25
I-33
sg26
I-33
sg27
I-33
sg28
I-33
sg29
I-33
sg30
I-33
sg31
I-33
sg32
I-33
ssI49
(dp106
S'COLON'
p107
I92
ssI50
(dp108
S'COLON'
p109
I93
ssI51
(dp110
g3
I-10
sg4
I-10
sg5
I-10
sg6
I-10
sg7
I-10
sg8
I-10
sg9
I-10
sg10
I-10
sg11
I-10
sg12
I-10
sg13
I-10
sg14
I-10
sg15
I-10
sg17
I-10
sg18
I-10
sg19
I-10
sg20
I-10
sg21
I-10
sg22
I-10
sg23
I-10
sg24
I-10
sg25
I-10
sg26
I-10
sg27
I-10
sg28
I-10
sg29
I-10
sg30
I-10
sg31
I-10
sg32
I-10
ssI52
(dp111
g3
I-19
sg4
I-19
sg5
I-19
sg6
I-19
sg7
I-19
sg8
I-19
sg9
I-19
sg10
I-19
sg11
I-19
sg12
I-19
sg13
I-19
sg14
I-19
sg15
I-19
sg17
I-19
sg18
I-19
sg19
I-19
sg20
I-19
sg21
I-19
sg22
I-19
sg23
I-19
sg24
I-19
sg25
I-19
sg26
I-19
sg27
I-19
sg28
I-19
sg29
I-19
sg30
I-19
sg31
I-19
sg32
I-19
ssI53
(dp112
g3
I-28
sg4
I-28
sg5
I-28
sg6
I-28
sg7
I-28
sg8
I-28
sg9
I-28
sg10
I-28
sg11
I-28
sg12
I-28
sg13
I-28
sg14
I-28
sg15
I-28
sg17
I-28
sg18
I-28
sg19
I-28
sg20
I-28
sg21
I-28
sg22
I-28
sg23
I-28
sg24
I-28
sg25
I-28
sg26
I-28
sg27
I-28
sg28
I-28
sg29
I-28
sg30
I-28
sg31
I-28
sg32
I-28
ssI54
(dp113
S'COLON'
p114
I94
ssI55
(dp115
S'LPAR'
p116
I95
sS'WORD'
p117
I101
sS'GREATER'
p118
I110
sS'LESS'
p119
I96
sS'NEWLINE'
p120
I102
sS'EQUAL'
p121
I97
sS'RPAR'
p122
I98
sS'DOUBLE_COLON'
p123
I103
sS'COMMA'
p124
I112
sS'SLASH'
p125
I107
sS'SHARP'
p126
I105
sS'COLON'
p127
I104
sS'WS'
p128
I100
ssI56
(dp129
S'COLON'
p130
I113
ssI57
(dp131
S'COLON'
p132
I114
ssI58
(dp133
S'COLON'
p134
I115
ssI59
(dp135
g3
I-7
sg4
I-7
sg5
I-7
sg6
I-7
sg7
I-7
sg8
I-7
sg9
I-7
sg10
I-7
sg11
I-7
sg12
I-7
sg13
I-7
sg14
I-7
sg15
I-7
sg17
I-7
sg18
I-7
sg19
I-7
sg20
I-7
sg21
I-7
sg22
I-7
sg23
I-7
sg24
I-7
sg25
I-7
sg26
I-7
sg27
I-7
sg28
I-7
sg29
I-7
sg30
I-7
sg31
I-7
sg32
I-7
ssI60
(dp136
S'COLON'
p137
I116
ssI61
(dp138
g3
I-16
sg4
I-16
sg5
I-16
sg6
I-16
sg7
I-16
sg8
I-16
sg9
I-16
sg10
I-16
sg11
I-16
sg12
I-16
sg13
I-16
sg14
I-16
sg15
I-16
sg17
I-16
sg18
I-16
sg19
I-16
sg20
I-16
sg21
I-16
sg22
I-16
sg23
I-16
sg24
I-16
sg25
I-16
sg26
I-16
sg27
I-16
sg28
I-16
sg29
I-16
sg30
I-16
sg31
I-16
sg32
I-16
ssI62
(dp139
g3
I-29
sg4
I-29
sg5
I-29
sg6
I-29
sg7
I-29
sg8
I-29
sg9
I-29
sg10
I-29
sg11
I-29
sg12
I-29
sg13
I-29
sg14
I-29
sg15
I-29
sg17
I-29
sg18
I-29
sg19
I-29
sg20
I-29
sg21
I-29
sg22
I-29
sg23
I-29
sg24
I-29
sg25
I-29
sg26
I-29
sg27
I-29
sg28
I-29
sg29
I-29
sg30
I-29
sg31
I-29
sg32
I-29
ssI63
(dp140
g3
I-20
sg4
I-20
sg5
I-20
sg6
I-20
sg7
I-20
sg8
I-20
sg9
I-20
sg10
I-20
sg11
I-20
sg12
I-20
sg13
I-20
sg14
I-20
sg15
I-20
sg17
I-20
sg18
I-20
sg19
I-20
sg20
I-20
sg21
I-20
sg22
I-20
sg23
I-20
sg24
I-20
sg25
I-20
sg26
I-20
sg27
I-20
sg28
I-20
sg29
I-20
sg30
I-20
sg31
I-20
sg32
I-20
ssI64
(dp141
g3
I49
sg4
I1
sg5
I50
sg6
I3
sg7
I10
sg8
I20
sg9
I44
sg10
I36
sg11
I54
sg12
I38
sg13
I6
sg14
I7
sg15
I8
sg17
I56
sg18
I57
sg19
I26
sg20
I58
sS'$end'
p142
I0
sg22
I11
sg23
I60
sg24
I30
sg25
I13
sg26
I31
sg27
I32
sg28
I42
sg29
I16
sg30
I66
sg31
I18
sg32
I46
ssI65
(dp143
g3
I-12
sg4
I-12
sg5
I-12
sg6
I-12
sg7
I-12
sg8
I-12
sg9
I-12
sg10
I-12
sg11
I-12
sg12
I-12
sg13
I-12
sg14
I-12
sg15
I-12
sg17
I-12
sg18
I-12
sg19
I-12
sg20
I-12
sg21
I-12
sg22
I-12
sg23
I-12
sg24
I-12
sg25
I-12
sg26
I-12
sg27
I-12
sg28
I-12
sg29
I-12
sg30
I-12
sg31
I-12
sg32
I-12
ssI66
(dp144
S'COLON'
p145
I118
ssI67
(dp146
g116
I95
sg117
I101
sg118
I110
sg119
I96
sg121
I97
sg122
I98
sg123
I103
sg127
I104
sg125
I107
sg126
I105
sS'INDENT'
p147
I121
ssI68
(dp148
g116
I95
sg117
I101
sg118
I110
sg119
I96
sg121
I97
sg122
I98
sg123
I103
sg127
I104
sg125
I107
sg126
I105
sg147
I121
ssI69
(dp149
S'SUB_DIRECTORY_ID'
p150
I127
sS'COMPILED_LIBRARY_ID'
p151
I126
sS'INSTALL_REQUIRES_ID'
p152
I139
sS'EXTENSION_ID'
p153
I128
sS'MODULES_ID'
p154
I140
sS'BUILD_REQUIRES_ID'
p155
I145
sS'PACKAGES_ID'
p156
I136
sS'IF'
p157
I141
ssI70
(dp158
g116
I95
sg117
I101
sg118
I110
sg119
I96
sg121
I97
sg122
I98
sg123
I103
sg124
I112
sg125
I107
sg126
I105
sg127
I104
sS'WS'
p159
I148
ssI71
(dp160
g3
I-81
sg4
I-81
sg5
I-81
sg6
I-81
sg7
I-81
sg8
I-81
sg9
I-81
sg10
I-81
sg11
I-81
sg12
I-81
sg13
I-81
sg14
I-81
sS'WORD'
p161
I150
sg15
I-81
sg17
I-81
sg18
I-81
sg19
I-81
sg20
I-81
sg21
I-81
sg22
I-81
sg23
I-81
sg24
I-81
sg25
I-81
sg26
I-81
sg27
I-81
sg28
I-81
sg39
I-81
sg29
I-81
sg30
I-81
sg31
I-81
sg32
I-81
ssI72
(dp162
g116
I95
sg117
I101
sg118
I110
sg119
I96
sg121
I97
sg122
I98
sg123
I103
sg124
I112
sg125
I107
sg126
I105
sg127
I104
sg159
I148
ssI73
(dp163
g116
I95
sg117
I101
sg118
I110
sg119
I96
sg121
I97
sg122
I98
sg123
I103
sg124
I112
sg125
I107
sg126
I105
sg127
I104
sS'WS'
p164
I154
ssI74
(dp165
g161
I150
ssI75
(dp166
g116
I95
sg117
I101
sg118
I110
sg119
I96
sg121
I97
sg122
I98
sg123
I103
sg124
I112
sg125
I107
sg126
I105
sg127
I104
sg159
I148
ssI76
(dp167
S'DESCRIPTION_ID'
p168
I161
sS'DEFAULT_ID'
p169
I163
ssI77
(dp170
S'SRCDIR_ID'
p171
I171
sS'TARGET_ID'
p172
I168
sS'FILES_ID'
p173
I167
ssI78
(dp174
g116
I-163
sg117
I-163
sg118
I-163
sg119
I-163
sg120
I-163
sg121
I-163
sg122
I-163
sg123
I-163
sg124
I-163
sg125
I-163
sg126
I-163
sg127
I-163
sg128
I-163
ssI79
(dp175
S'WORD'
p176
I178
sS'DOUBLE_COLON'
p177
I176
sS'INDENT'
p178
I175
sS'WS'
p179
I180
ssI80
(dp180
g116
I95
sg117
I101
sg118
I110
sg119
I96
sg121
I97
sg122
I98
sg123
I103
sg127
I104
sg125
I107
sg126
I105
sg147
I121
ssI81
(dp181
S'DESCRIPTION_ID'
p182
I183
sS'DEFAULT_ID'
p183
I185
sg157
I141
ssI82
(dp184
g116
I95
sg117
I101
sg118
I110
sg119
I96
sg121
I97
sg122
I98
sg123
I103
sg124
I112
sg125
I107
sg126
I105
sg127
I104
sg159
I148
ssI83
(dp185
g116
I95
sg117
I101
sg118
I110
sg119
I96
sg121
I97
sg122
I98
sg123
I103
sg124
I112
sg125
I107
sg126
I105
sg127
I104
sg159
I148
ssI84
(dp186
g116
I95
sg117
I101
sg118
I110
sg119
I96
sg121
I97
sg122
I98
sg123
I103
sg124
I112
sg125
I107
sg126
I105
sg127
I104
sg159
I148
ssI85
(dp187
g3
I-62
sg4
I-62
sg5
I-62
sg6
I-62
sg7
I-62
sg8
I-62
sg9
I-62
sg10
I-62
sg11
I-62
sg12
I-62
sg13
I-62
sg14
I-62
sg15
I-62
sg17
I-62
sg18
I-62
sg19
I-62
sg20
I-62
sg21
I-62
sg22
I-62
sg23
I-62
sg24
I-62
sg25
I-62
sg26
I-62
sg27
I-62
sg28
I-62
sg29
I-62
sg30
I-62
sg31
I-62
sg32
I-62
ssI86
(dp188
g116
I95
sg117
I101
sg118
I110
sg119
I96
sg121
I97
sg122
I98
sg123
I103
sg127
I104
sg125
I107
sg126
I105
sg147
I121
ssI87
(dp189
S'MODULE_ID'
p190
I197
sS'FUNCTION_ID'
p191
I198
ssI88
(dp192
g116
I95
sg117
I101
sg118
I110
sg119
I96
sg121
I97
sg122
I98
sg123
I103
sg124
I112
sg125
I107
sg126
I105
sg127
I104
sg164
I154
ssI89
(dp193
g116
I95
sg117
I101
sg118
I110
sg119
I96
sg121
I97
sg122
I98
sg123
I103
sg127
I104
sg125
I107
sg126
I105
sg147
I121
ssI90
(dp194
g161
I150
ssI91
(dp195
S'WORD'
p196
I202
ssI92
(dp197
g116
I95
sg117
I101
sg118
I110
sg119
I96
sg121
I97
sg122
I98
sg123
I103
sg127
I104
sg125
I107
sg126
I105
sg147
I121
ssI93
(dp198
g161
I150
ssI94
(dp199
g116
I95
sg117
I101
sg118
I110
sg119
I96
sg121
I97
sg122
I98
sg123
I103
sg124
I112
sg125
I107
sg126
I105
sg127
I104
sg159
I148
ssI95
(dp200
S'DEDENT'
p201
I-178
sg116
I-178
sg3
I-178
sg4
I-178
sg5
I-178
sg6
I-178
sg119
I-178
sg150
I-178
sg7
I-178
sg8
I-178
sg121
I-178
sg122
I-178
sg169
I-178
sg159
I-178
sg9
I-178
sg10
I-178
sg190
I-178
sg11
I-178
sg12
I-178
sg13
I-178
sS'INCLUDE_DIRS_ID'
p202
I-178
sg14
I-178
sg191
I-178
sg117
I-178
sg15
I-178
sS'SOURCES_ID'
p203
I-178
sS'NEWLINE'
p204
I-178
sg17
I-178
sg123
I-178
sg127
I-178
sg126
I-178
sg18
I-178
sg19
I-178
sg20
I-178
sg21
I-178
sg171
I-178
sg22
I-178
sg172
I-178
sg23
I-178
sg152
I-178
sg125
I-178
sg154
I-178
sg24
I-178
sg25
I-178
sg26
I-178
sg157
I-178
sg27
I-178
sg173
I-178
sg28
I-178
sg56
I-178
sg118
I-178
sg29
I-178
sg151
I-178
sg30
I-178
sg31
I-178
sg32
I-178
sg156
I-178
sg155
I-178
sS'COMMA'
p205
I-178
sg153
I-178
ssI96
(dp206
g201
I-180
sg116
I-180
sg3
I-180
sg4
I-180
sg5
I-180
sg6
I-180
sg119
I-180
sg150
I-180
sg7
I-180
sg8
I-180
sg121
I-180
sg122
I-180
sg169
I-180
sg159
I-180
sg9
I-180
sg10
I-180
sg190
I-180
sg11
I-180
sg12
I-180
sg13
I-180
sg202
I-180
sg14
I-180
sg191
I-180
sg117
I-180
sg15
I-180
sg203
I-180
sg204
I-180
sg17
I-180
sg123
I-180
sg127
I-180
sg126
I-180
sg18
I-180
sg19
I-180
sg20
I-180
sg21
I-180
sg171
I-180
sg22
I-180
sg172
I-180
sg23
I-180
sg152
I-180
sg125
I-180
sg154
I-180
sg24
I-180
sg25
I-180
sg26
I-180
sg157
I-180
sg27
I-180
sg173
I-180
sg28
I-180
sg56
I-180
sg118
I-180
sg29
I-180
sg151
I-180
sg30
I-180
sg31
I-180
sg32
I-180
sg156
I-180
sg155
I-180
sg205
I-180
sg153
I-180
ssI97
(dp207
g201
I-183
sg116
I-183
sg3
I-183
sg4
I-183
sg5
I-183
sg6
I-183
sg119
I-183
sg150
I-183
sg7
I-183
sg8
I-183
sg121
I-183
sg122
I-183
sg169
I-183
sg159
I-183
sg9
I-183
sg10
I-183
sg190
I-183
sg11
I-183
sg12
I-183
sg13
I-183
sg202
I-183
sg14
I-183
sg191
I-183
sg117
I-183
sg15
I-183
sg203
I-183
sg204
I-183
sg17
I-183
sg123
I-183
sg127
I-183
sg126
I-183
sg18
I-183
sg19
I-183
sg20
I-183
sg21
I-183
sg171
I-183
sg22
I-183
sg172
I-183
sg23
I-183
sg152
I-183
sg125
I-183
sg154
I-183
sg24
I-183
sg25
I-183
sg26
I-183
sg157
I-183
sg27
I-183
sg173
I-183
sg28
I-183
sg56
I-183
sg118
I-183
sg29
I-183
sg151
I-183
sg30
I-183
sg31
I-183
sg32
I-183
sg156
I-183
sg155
I-183
sg205
I-183
sg153
I-183
ssI98
(dp208
g201
I-179
sg116
I-179
sg3
I-179
sg4
I-179
sg5
I-179
sg6
I-179
sg119
I-179
sg150
I-179
sg7
I-179
sg8
I-179
sg121
I-179
sg122
I-179
sg169
I-179
sg159
I-179
sg9
I-179
sg10
I-179
sg190
I-179
sg11
I-179
sg12
I-179
sg13
I-179
sg202
I-179
sg14
I-179
sg191
I-179
sg117
I-179
sg15
I-179
sg203
I-179
sg204
I-179
sg17
I-179
sg123
I-179
sg127
I-179
sg126
I-179
sg18
I-179
sg19
I-179
sg20
I-179
sg21
I-179
sg171
I-179
sg22
I-179
sg172
I-179
sg23
I-179
sg152
I-179
sg125
I-179
sg154
I-179
sg24
I-179
sg25
I-179
sg26
I-179
sg157
I-179
sg27
I-179
sg173
I-179
sg28
I-179
sg56
I-179
sg118
I-179
sg29
I-179
sg151
I-179
sg30
I-179
sg31
I-179
sg32
I-179
sg156
I-179
sg155
I-179
sg205
I-179
sg153
I-179
ssI99
(dp209
S'DEDENT'
p210
I-185
sg116
I-185
sg3
I-185
sg4
I-185
sg5
I-185
sg6
I-185
sg119
I-185
sg7
I-185
sg8
I-185
sg121
I-185
sg122
I-185
sg127
I-185
sg159
I-185
sg9
I-185
sg10
I-185
sg190
I-185
sg11
I-185
sg12
I-185
sg13
I-185
sg14
I-185
sg191
I-185
sg117
I-185
sg15
I-185
sg204
I-185
sg17
I-185
sg123
I-185
sg124
I-185
sg126
I-185
sg18
I-185
sg19
I-185
sg20
I-185
sg21
I-185
sg171
I-185
sg22
I-185
sg172
I-185
sg23
I-185
sg125
I-185
sg24
I-185
sg25
I-185
sg26
I-185
sg157
I-185
sg27
I-185
sg173
I-185
sg28
I-185
sS'INDENT'
p211
I-185
sg118
I-185
sg29
I-185
sg30
I-185
sg31
I-185
sg169
I-185
sg32
I-185
ssI100
(dp212
g116
I95
sg117
I101
sg118
I110
sg119
I96
sS'NEWLINE'
p213
I206
sg121
I97
sg122
I98
sg123
I103
sg127
I104
sg125
I107
sg126
I105
sg124
I112
ssI101
(dp214
g201
I-175
sg116
I-175
sg3
I-175
sg4
I-175
sg5
I-175
sg6
I-175
sg119
I-175
sg150
I-175
sg7
I-175
sg8
I-175
sg121
I-175
sg122
I-175
sg169
I-175
sg159
I-175
sg9
I-175
sg10
I-175
sg190
I-175
sg11
I-175
sg12
I-175
sg13
I-175
sg202
I-175
sg14
I-175
sg191
I-175
sg117
I-175
sg15
I-175
sg203
I-175
sg204
I-175
sg17
I-175
sg123
I-175
sg127
I-175
sg126
I-175
sg18
I-175
sg19
I-175
sg20
I-175
sg21
I-175
sg171
I-175
sg22
I-175
sg172
I-175
sg23
I-175
sg152
I-175
sg125
I-175
sg154
I-175
sg24
I-175
sg25
I-175
sg26
I-175
sg157
I-175
sg27
I-175
sg173
I-175
sg28
I-175
sg56
I-175
sg118
I-175
sg29
I-175
sg151
I-175
sg30
I-175
sg31
I-175
sg32
I-175
sg156
I-175
sg155
I-175
sg205
I-175
sg153
I-175
ssI102
(dp215
S'INDENT'
p216
I208
ssI103
(dp217
g201
I-177
sg116
I-177
sg3
I-177
sg4
I-177
sg5
I-177
sg6
I-177
sg119
I-177
sg150
I-177
sg7
I-177
sg8
I-177
sg121
I-177
sg122
I-177
sg169
I-177
sg159
I-177
sg9
I-177
sg10
I-177
sg190
I-177
sg11
I-177
sg12
I-177
sg13
I-177
sg202
I-177
sg14
I-177
sg191
I-177
sg117
I-177
sg15
I-177
sg203
I-177
sg204
I-177
sg17
I-177
sg123
I-177
sg127
I-177
sg126
I-177
sg18
I-177
sg19
I-177
sg20
I-177
sg21
I-177
sg171
I-177
sg22
I-177
sg172
I-177
sg23
I-177
sg152
I-177
sg125
I-177
sg154
I-177
sg24
I-177
sg25
I-177
sg26
I-177
sg157
I-177
sg27
I-177
sg173
I-177
sg28
I-177
sg56
I-177
sg118
I-177
sg29
I-177
sg151
I-177
sg30
I-177
sg31
I-177
sg32
I-177
sg156
I-177
sg155
I-177
sg205
I-177
sg153
I-177
ssI104
(dp218
g201
I-176
sg116
I-176
sg3
I-176
sg4
I-176
sg5
I-176
sg6
I-176
sg119
I-176
sg150
I-176
sg7
I-176
sg8
I-176
sg121
I-176
sg122
I-176
sg169
I-176
sg159
I-176
sg9
I-176
sg10
I-176
sg190
I-176
sg11
I-176
sg12
I-176
sg13
I-176
sg202
I-176
sg14
I-176
sg191
I-176
sg117
I-176
sg15
I-176
sg203
I-176
sg204
I-176
sg17
I-176
sg123
I-176
sg127
I-176
sg126
I-176
sg18
I-176
sg19
I-176
sg20
I-176
sg21
I-176
sg171
I-176
sg22
I-176
sg172
I-176
sg23
I-176
sg152
I-176
sg125
I-176
sg154
I-176
sg24
I-176
sg25
I-176
sg26
I-176
sg157
I-176
sg27
I-176
sg173
I-176
sg28
I-176
sg56
I-176
sg118
I-176
sg29
I-176
sg151
I-176
sg30
I-176
sg31
I-176
sg32
I-176
sg156
I-176
sg155
I-176
sg205
I-176
sg153
I-176
ssI105
(dp219
g201
I-182
sg116
I-182
sg3
I-182
sg4
I-182
sg5
I-182
sg6
I-182
sg119
I-182
sg150
I-182
sg7
I-182
sg8
I-182
sg121
I-182
sg122
I-182
sg169
I-182
sg159
I-182
sg9
I-182
sg10
I-182
sg190
I-182
sg11
I-182
sg12
I-182
sg13
I-182
sg202
I-182
sg14
I-182
sg191
I-182
sg117
I-182
sg15
I-182
sg203
I-182
sg204
I-182
sg17
I-182
sg123
I-182
sg127
I-182
sg126
I-182
sg18
I-182
sg19
I-182
sg20
I-182
sg21
I-182
sg171
I-182
sg22
I-182
sg172
I-182
sg23
I-182
sg152
I-182
sg125
I-182
sg154
I-182
sg24
I-182
sg25
I-182
sg26
I-182
sg157
I-182
sg27
I-182
sg173
I-182
sg28
I-182
sg56
I-182
sg118
I-182
sg29
I-182
sg151
I-182
sg30
I-182
sg31
I-182
sg32
I-182
sg156
I-182
sg155
I-182
sg205
I-182
sg153
I-182
ssI106
(dp220
S'DEDENT'
p221
I-155
sg116
I95
sg3
I-155
sg4
I-155
sg5
I-155
sg6
I-155
sg119
I96
sg7
I-155
sg8
I-155
sg121
I97
sg122
I98
sg169
I-155
sg159
I148
sg9
I-155
sg10
I-155
sg11
I-155
sg12
I-155
sg13
I-155
sg14
I-155
sg117
I101
sg15
I-155
sg204
I-155
sg17
I-155
sg123
I103
sg124
I112
sg127
I104
sg18
I-155
sg19
I-155
sg20
I-155
sg21
I-155
sg22
I-155
sg23
I-155
sg125
I107
sg126
I105
sg24
I-155
sg25
I-155
sg26
I-155
sg157
I-155
sg27
I-155
sg28
I-155
sg118
I110
sg29
I-155
sg30
I-155
sg31
I-155
sg32
I-155
ssI107
(dp222
g201
I-181
sg116
I-181
sg3
I-181
sg4
I-181
sg5
I-181
sg6
I-181
sg119
I-181
sg150
I-181
sg7
I-181
sg8
I-181
sg121
I-181
sg122
I-181
sg169
I-181
sg159
I-181
sg9
I-181
sg10
I-181
sg190
I-181
sg11
I-181
sg12
I-181
sg13
I-181
sg202
I-181
sg14
I-181
sg191
I-181
sg117
I-181
sg15
I-181
sg203
I-181
sg204
I-181
sg17
I-181
sg123
I-181
sg127
I-181
sg126
I-181
sg18
I-181
sg19
I-181
sg20
I-181
sg21
I-181
sg171
I-181
sg22
I-181
sg172
I-181
sg23
I-181
sg152
I-181
sg125
I-181
sg154
I-181
sg24
I-181
sg25
I-181
sg26
I-181
sg157
I-181
sg27
I-181
sg173
I-181
sg28
I-181
sg56
I-181
sg118
I-181
sg29
I-181
sg151
I-181
sg30
I-181
sg31
I-181
sg32
I-181
sg156
I-181
sg155
I-181
sg205
I-181
sg153
I-181
ssI108
(dp223
g3
I-161
sg4
I-161
sg5
I-161
sg6
I-161
sg7
I-161
sg8
I-161
sg9
I-161
sg10
I-161
sg11
I-161
sg12
I-161
sg13
I-161
sg14
I-161
sg15
I-161
sg204
I210
sg17
I-161
sg18
I-161
sg19
I-161
sg20
I-161
sg21
I-161
sg22
I-161
sg23
I-161
sg24
I-161
sg25
I-161
sg26
I-161
sg27
I-161
sg28
I-161
sg29
I-161
sg30
I-161
sg31
I-161
sg32
I-161
ssI109
(dp224
g221
I-157
sg116
I-157
sg3
I-157
sg4
I-157
sg5
I-157
sg6
I-157
sg119
I-157
sg7
I-157
sg8
I-157
sg121
I-157
sg122
I-157
sg127
I-157
sg159
I-157
sg9
I-157
sg10
I-157
sg11
I-157
sg12
I-157
sg13
I-157
sg14
I-157
sg117
I-157
sg15
I-157
sg204
I-157
sg17
I-157
sg123
I-157
sg124
I-157
sg126
I-157
sg18
I-157
sg19
I-157
sg20
I-157
sg21
I-157
sg22
I-157
sg23
I-157
sg125
I-157
sg24
I-157
sg25
I-157
sg26
I-157
sg157
I-157
sg27
I-157
sg28
I-157
sg118
I-157
sg29
I-157
sg30
I-157
sg31
I-157
sg169
I-157
sg32
I-157
ssI110
(dp225
g201
I-184
sg116
I-184
sg3
I-184
sg4
I-184
sg5
I-184
sg6
I-184
sg119
I-184
sg150
I-184
sg7
I-184
sg8
I-184
sg121
I-184
sg122
I-184
sg169
I-184
sg159
I-184
sg9
I-184
sg10
I-184
sg190
I-184
sg11
I-184
sg12
I-184
sg13
I-184
sg202
I-184
sg14
I-184
sg191
I-184
sg117
I-184
sg15
I-184
sg203
I-184
sg204
I-184
sg17
I-184
sg123
I-184
sg127
I-184
sg126
I-184
sg18
I-184
sg19
I-184
sg20
I-184
sg21
I-184
sg171
I-184
sg22
I-184
sg172
I-184
sg23
I-184
sg152
I-184
sg125
I-184
sg154
I-184
sg24
I-184
sg25
I-184
sg26
I-184
sg157
I-184
sg27
I-184
sg173
I-184
sg28
I-184
sg56
I-184
sg118
I-184
sg29
I-184
sg151
I-184
sg30
I-184
sg31
I-184
sg32
I-184
sg156
I-184
sg155
I-184
sg205
I-184
sg153
I-184
ssI111
(dp226
S'INDENT'
p227
I212
ssI112
(dp228
g210
I-186
sg116
I-186
sg3
I-186
sg4
I-186
sg5
I-186
sg6
I-186
sg119
I-186
sg7
I-186
sg8
I-186
sg121
I-186
sg122
I-186
sg127
I-186
sg159
I-186
sg9
I-186
sg10
I-186
sg190
I-186
sg11
I-186
sg12
I-186
sg13
I-186
sg14
I-186
sg191
I-186
sg117
I-186
sg15
I-186
sg204
I-186
sg17
I-186
sg123
I-186
sg124
I-186
sg126
I-186
sg18
I-186
sg19
I-186
sg20
I-186
sg21
I-186
sg171
I-186
sg22
I-186
sg172
I-186
sg23
I-186
sg125
I-186
sg24
I-186
sg25
I-186
sg26
I-186
sg157
I-186
sg27
I-186
sg173
I-186
sg28
I-186
sg211
I-186
sg118
I-186
sg29
I-186
sg30
I-186
sg31
I-186
sg169
I-186
sg32
I-186
ssI113
(dp229
g116
I95
sg117
I101
sg118
I110
sg119
I96
sg121
I97
sg122
I98
sg123
I103
sg124
I112
sg125
I107
sg126
I105
sg127
I104
sg159
I148
ssI114
(dp230
g116
I95
sg117
I101
sg118
I110
sg119
I96
sg121
I97
sg122
I98
sg123
I103
sg124
I112
sg125
I107
sg126
I105
sg127
I104
sg164
I154
ssI115
(dp231
g116
I95
sg117
I101
sg118
I110
sg119
I96
sg121
I97
sg122
I98
sg123
I103
sg127
I104
sg125
I107
sg126
I105
sg147
I121
ssI116
(dp232
g116
I95
sg117
I101
sg118
I110
sg119
I96
sg121
I97
sg122
I98
sg123
I103
sg124
I112
sg125
I107
sg126
I105
sg127
I104
sg159
I148
ssI117
(dp233
g3
I-1
sg4
I-1
sg5
I-1
sg6
I-1
sg7
I-1
sg8
I-1
sg9
I-1
sg10
I-1
sg11
I-1
sg12
I-1
sg13
I-1
sg14
I-1
sg15
I-1
sg17
I-1
sg18
I-1
sg19
I-1
sg20
I-1
sg21
I-1
sg22
I-1
sg23
I-1
sg24
I-1
sg25
I-1
sg26
I-1
sg27
I-1
sg28
I-1
sg29
I-1
sg30
I-1
sg31
I-1
sg32
I-1
ssI118
(dp234
S'WORD'
p235
I217
ssI119
(dp236
g201
I-149
sg3
I-149
sg4
I-149
sg5
I-149
sg6
I-149
sg173
I-149
sg150
I-149
sg7
I-149
sg8
I-149
sg153
I-149
sg10
I-149
sg11
I-149
sg202
I-149
sg13
I-149
sg12
I-149
sg14
I-149
sg9
I-149
sg15
I-149
sg17
I-149
sg203
I-149
sg205
I219
sg18
I-149
sg19
I-149
sg156
I-149
sg21
I-149
sg171
I-149
sg22
I-149
sg172
I-149
sg23
I-149
sg152
I-149
sg154
I-149
sg24
I-149
sg25
I-149
sg26
I-149
sg157
I-149
sg27
I-149
sg28
I-149
sg29
I-149
sg151
I-149
sg30
I-149
sg31
I-149
sg32
I-149
sg20
I-149
sg155
I-149
ssI120
(dp237
S'DEDENT'
p238
I-174
sg116
I-174
sg3
I-174
sg4
I-174
sg5
I-174
sg6
I-174
sg119
I-174
sg153
I-174
sg150
I-174
sg7
I-174
sg8
I-174
sg121
I-174
sg122
I-174
sg9
I-174
sg10
I-174
sg11
I-174
sg12
I-174
sg13
I-174
sg202
I-174
sg14
I-174
sg117
I-174
sg15
I-174
sg173
I-174
sg17
I-174
sg123
I-174
sg127
I-174
sg126
I-174
sg18
I-174
sg19
I-174
sg20
I-174
sg21
I-174
sg171
I-174
sg22
I-174
sg172
I-174
sg23
I-174
sg152
I-174
sg125
I-174
sg154
I-174
sg24
I-174
sg25
I-174
sg26
I-174
sg157
I-174
sg27
I-174
sg28
I-174
sg118
I-174
sg29
I-174
sg151
I-174
sg30
I-174
sg31
I-174
sg32
I-174
sg156
I-174
sg155
I-174
sg205
I-174
sg203
I-174
ssI121
(dp239
g116
I95
sg117
I101
sg118
I110
sg119
I96
sg121
I97
sg122
I98
sg123
I103
sg127
I104
sg125
I107
sg126
I105
ssI122
(dp240
S'DEDENT'
p241
I-153
sg116
I95
sg3
I-153
sg4
I-153
sg5
I-153
sg6
I-153
sg173
I-153
sg150
I-153
sg7
I-153
sg8
I-153
sg121
I97
sg122
I98
sg127
I104
sg9
I-153
sg10
I-153
sg11
I-153
sS'INCLUDE_DIRS_ID'
p242
I-153
sg13
I-153
sg12
I-153
sg14
I-153
sg117
I101
sg15
I-153
sg119
I96
sg17
I-153
sg123
I103
sS'SOURCES_ID'
p243
I-153
sg205
I-153
sg18
I-153
sg19
I-153
sg20
I-153
sg21
I-153
sg171
I-153
sg126
I105
sg22
I-153
sg172
I-153
sg23
I-153
sg152
I-153
sg125
I107
sg154
I-153
sg24
I-153
sg25
I-153
sg26
I-153
sg157
I-153
sg27
I-153
sg28
I-153
sg118
I110
sg29
I-153
sg151
I-153
sg30
I-153
sg31
I-153
sg32
I-153
sg156
I-153
sg155
I-153
sg153
I-153
ssI123
(dp244
g3
I-45
sg4
I-45
sg5
I-45
sg6
I-45
sg7
I-45
sg8
I-45
sg9
I-45
sg10
I-45
sg11
I-45
sg12
I-45
sg13
I-45
sg14
I-45
sg15
I-45
sg17
I-45
sg18
I-45
sg19
I-45
sg20
I-45
sg21
I-45
sg22
I-45
sg23
I-45
sg24
I-45
sg25
I-45
sg26
I-45
sg27
I-45
sg28
I-45
sg29
I-45
sg30
I-45
sg31
I-45
sg32
I-45
ssI124
(dp245
g201
I-148
sg3
I-148
sg4
I-148
sg5
I-148
sg6
I-148
sg173
I-148
sg150
I-148
sg7
I-148
sg8
I-148
sg153
I-148
sg10
I-148
sg11
I-148
sg202
I-148
sg13
I-148
sg12
I-148
sg14
I-148
sg9
I-148
sg15
I-148
sg17
I-148
sg203
I-148
sg18
I-148
sg19
I-148
sg156
I-148
sg21
I-148
sg171
I-148
sg22
I-148
sg172
I-148
sg23
I-148
sg152
I-148
sg154
I-148
sg24
I-148
sg25
I-148
sg26
I-148
sg157
I-148
sg27
I-148
sg28
I-148
sg29
I-148
sg151
I-148
sg30
I-148
sg31
I-148
sg32
I-148
sg20
I-148
sg155
I-148
ssI125
(dp246
g3
I-64
sg4
I-64
sg5
I-64
sg6
I-64
sg7
I-64
sg8
I-64
sg9
I-64
sg10
I-64
sg11
I-64
sg12
I-64
sg13
I-64
sg14
I-64
sg15
I-64
sg17
I-64
sg18
I-64
sg19
I-64
sg20
I-64
sg21
I-64
sg22
I-64
sg23
I-64
sg24
I-64
sg25
I-64
sg26
I-64
sg27
I-64
sg28
I-64
sg29
I-64
sg30
I-64
sg31
I-64
sg32
I-64
ssI126
(dp247
S'COLON'
p248
I222
ssI127
(dp249
S'COLON'
p250
I223
ssI128
(dp251
S'COLON'
p252
I224
ssI129
(dp253
S'DEDENT'
p254
I-83
sg150
I-83
sg151
I-83
sg152
I-83
sg153
I-83
sg154
I-83
sg155
I-83
sg156
I-83
sg157
I-83
ssI130
(dp255
g201
I-87
sg150
I-87
sg151
I-87
sg152
I-87
sg153
I-87
sg154
I-87
sg155
I-87
sg156
I-87
sg157
I-87
ssI131
(dp256
g201
I-85
sg150
I-85
sg151
I-85
sg152
I-85
sg153
I-85
sg154
I-85
sg155
I-85
sg156
I-85
sg157
I-85
ssI132
(dp257
g201
I-89
sg150
I-89
sg151
I-89
sg152
I-89
sg153
I-89
sg154
I-89
sg155
I-89
sg156
I-89
sg157
I-89
ssI133
(dp258
g201
I-86
sg150
I-86
sg151
I-86
sg152
I-86
sg153
I-86
sg154
I-86
sg155
I-86
sg156
I-86
sg157
I-86
ssI134
(dp259
g201
I-84
sg150
I-84
sg151
I-84
sg152
I-84
sg153
I-84
sg154
I-84
sg155
I-84
sg156
I-84
sg157
I-84
ssI135
(dp260
g201
I225
sg150
I127
sg151
I126
sg152
I139
sg153
I128
sg154
I140
sg155
I145
sg156
I136
sg157
I141
ssI136
(dp261
S'COLON'
p262
I227
ssI137
(dp263
g201
I-88
sg150
I-88
sg151
I-88
sg152
I-88
sg153
I-88
sg154
I-88
sg155
I-88
sg156
I-88
sg157
I-88
ssI138
(dp264
S'INDENT'
p265
I228
ssI139
(dp266
S'COLON'
p267
I229
ssI140
(dp268
S'COLON'
p269
I230
ssI141
(dp270
S'NOT_OP'
p271
I236
sS'TRUE'
p272
I231
sS'OS_OP'
p273
I235
sS'FALSE'
p274
I234
sS'FLAG_OP'
p275
I233
ssI142
(dp276
g201
I-90
sg150
I-90
sg151
I-90
sg152
I-90
sg153
I-90
sg154
I-90
sg155
I-90
sg156
I-90
sg157
I-90
ssI143
(dp277
g201
I-91
sg150
I-91
sg151
I-91
sg152
I-91
sg153
I-91
sg154
I-91
sg155
I-91
sg156
I-91
sg157
I-91
ssI144
(dp278
S'INDENT'
p279
I240
ssI145
(dp280
S'COLON'
p281
I241
ssI146
(dp282
S'DEDENT'
p283
I-187
sg116
I-187
sg3
I-187
sg4
I-187
sg5
I-187
sg6
I-187
sg119
I-187
sg7
I-187
sg8
I-187
sg121
I-187
sg122
I-187
sg169
I-187
sg159
I-187
sg9
I-187
sg10
I-187
sg190
I-187
sg11
I-187
sg12
I-187
sg13
I-187
sg14
I-187
sg191
I-187
sg117
I-187
sg15
I-187
sg204
I-187
sg17
I-187
sg123
I-187
sg127
I-187
sg126
I-187
sg18
I-187
sg19
I-187
sg20
I-187
sg21
I-187
sg171
I-187
sg22
I-187
sg172
I-187
sg23
I-187
sg125
I-187
sg24
I-187
sg25
I-187
sg26
I-187
sg157
I-187
sg27
I-187
sg173
I-187
sg28
I-187
sg211
I-187
sg118
I-187
sg29
I-187
sg30
I-187
sg31
I-187
sg32
I-187
sg124
I-187
ssI147
(dp284
S'DEDENT'
p285
I-172
sg116
I-172
sg3
I-172
sg4
I-172
sg5
I-172
sg6
I-172
sg119
I-172
sg7
I-172
sg8
I-172
sg121
I-172
sg122
I-172
sg127
I-172
sg159
I-172
sg9
I-172
sg10
I-172
sg190
I-172
sg11
I-172
sg12
I-172
sg13
I-172
sg14
I-172
sg191
I-172
sg117
I-172
sg15
I-172
sg173
I-172
sg17
I-172
sg123
I-172
sg124
I-172
sg126
I-172
sg18
I-172
sg19
I-172
sg20
I-172
sg21
I-172
sg171
I-172
sg22
I-172
sg172
I-172
sg23
I-172
sg125
I-172
sg24
I-172
sg25
I-172
sg26
I-172
sg157
I-172
sg27
I-172
sg28
I-172
sg90
I-172
sg118
I-172
sg29
I-172
sg30
I-172
sg31
I-172
sg183
I-172
sg32
I-172
ssI148
(dp286
g283
I-188
sg116
I-188
sg3
I-188
sg4
I-188
sg5
I-188
sg6
I-188
sg119
I-188
sg7
I-188
sg8
I-188
sg121
I-188
sg122
I-188
sg169
I-188
sg159
I-188
sg9
I-188
sg10
I-188
sg190
I-188
sg11
I-188
sg12
I-188
sg13
I-188
sg14
I-188
sg191
I-188
sg117
I-188
sg15
I-188
sg204
I-188
sg17
I-188
sg123
I-188
sg127
I-188
sg126
I-188
sg18
I-188
sg19
I-188
sg20
I-188
sg21
I-188
sg171
I-188
sg22
I-188
sg172
I-188
sg23
I-188
sg125
I-188
sg24
I-188
sg25
I-188
sg26
I-188
sg157
I-188
sg27
I-188
sg173
I-188
sg28
I-188
sg211
I-188
sg118
I-188
sg29
I-188
sg30
I-188
sg31
I-188
sg32
I-188
sg124
I-188
ssI149
(dp287
g116
I95
sg3
I-36
sg4
I-36
sg5
I-36
sg6
I-36
sg119
I96
sg7
I-36
sg8
I-36
sg121
I97
sg122
I98
sg159
I148
sg9
I-36
sg10
I-36
sg11
I-36
sg12
I-36
sg13
I-36
sg14
I-36
sg117
I101
sg15
I-36
sg17
I-36
sg123
I103
sg124
I112
sg127
I104
sg18
I-36
sg19
I-36
sg20
I-36
sg21
I-36
sg22
I-36
sg23
I-36
sg125
I107
sg126
I105
sg24
I-36
sg25
I-36
sg26
I-36
sg27
I-36
sg28
I-36
sg118
I110
sg29
I-36
sg30
I-36
sg31
I-36
sg32
I-36
ssI150
(dp288
g201
I-193
sg3
I-193
sg4
I-193
sg5
I-193
sg6
I-193
sg150
I-193
sg7
I-193
sg8
I-193
sS'RPAR'
p289
I-193
sg9
I-193
sg10
I-193
sg11
I-193
sg12
I-193
sg13
I-193
sg14
I-193
sg15
I-193
sg17
I-193
sg18
I-193
sg19
I-193
sg20
I-193
sg21
I-193
sg22
I-193
sg23
I-193
sg152
I-193
sg154
I-193
sg24
I-193
sg25
I-193
sg26
I-193
sg157
I-193
sg27
I-193
sg28
I-193
sg58
I-193
sg29
I-193
sg151
I-193
sg30
I-193
sg31
I-193
sg32
I-193
sg156
I-193
sg155
I-193
sg153
I-193
ssI151
(dp290
g3
I-80
sg4
I-80
sg5
I-80
sg6
I-80
sg7
I-80
sg8
I-80
sg9
I-80
sg10
I-80
sg11
I-80
sg12
I-80
sg13
I-80
sg14
I-80
sg15
I-80
sg17
I-80
sg18
I-80
sg19
I-80
sg20
I-80
sg21
I-80
sg22
I-80
sg23
I-80
sg24
I-80
sg25
I-80
sg26
I-80
sg27
I-80
sg28
I-80
sg39
I-80
sg29
I-80
sg30
I-80
sg31
I-80
sg32
I-80
ssI152
(dp291
g3
I-79
sg4
I-79
sg5
I-79
sg6
I-79
sg7
I-79
sg8
I-79
sg9
I-79
sg10
I-79
sg11
I-79
sg12
I-79
sg13
I-79
sg14
I-79
sg15
I-79
sg17
I-79
sg18
I-79
sg19
I-79
sg20
I-79
sg21
I-79
sg22
I-79
sg23
I-79
sg24
I-79
sg25
I-79
sg26
I-79
sg27
I-79
sg28
I-79
sg39
I-79
sg29
I-79
sg30
I-79
sg31
I-79
sg32
I-79
ssI153
(dp292
g116
I95
sg3
I-43
sg4
I-43
sg5
I-43
sg6
I-43
sg119
I96
sg7
I-43
sg8
I-43
sg121
I97
sg122
I98
sg159
I148
sg9
I-43
sg10
I-43
sg11
I-43
sg12
I-43
sg13
I-43
sg14
I-43
sg117
I101
sg15
I-43
sg17
I-43
sg123
I103
sg124
I112
sg127
I104
sg18
I-43
sg19
I-43
sg20
I-43
sg21
I-43
sg22
I-43
sg23
I-43
sg125
I107
sg126
I105
sg24
I-43
sg25
I-43
sg26
I-43
sg27
I-43
sg28
I-43
sg118
I110
sg29
I-43
sg30
I-43
sg31
I-43
sg32
I-43
ssI154
(dp293
g116
I95
sg117
I101
sg118
I110
sg119
I96
sg121
I97
sg122
I98
sg123
I103
sg127
I104
sg125
I107
sg126
I105
sg124
I112
ssI155
(dp294
g3
I-40
sg4
I-40
sg5
I-40
sg6
I-40
sg7
I-40
sg8
I-40
sg9
I-40
sg10
I-40
sg11
I-40
sg12
I-40
sg13
I-40
sg14
I-40
sg15
I-40
sg17
I-40
sg18
I-40
sg19
I-40
sg20
I-40
sg21
I-40
sg22
I-40
sg23
I-40
sg24
I-40
sg25
I-40
sg26
I-40
sg27
I-40
sg28
I-40
sg29
I-40
sg30
I-40
sg31
I-40
sg32
I-40
ssI156
(dp295
g58
I-68
ssI157
(dp296
g116
I95
sg3
I-41
sg4
I-41
sg5
I-41
sg6
I-41
sg119
I96
sg7
I-41
sg8
I-41
sg121
I97
sg122
I98
sg159
I148
sg9
I-41
sg10
I-41
sg11
I-41
sg12
I-41
sg13
I-41
sg14
I-41
sg117
I101
sg15
I-41
sg17
I-41
sg123
I103
sg124
I112
sg127
I104
sg18
I-41
sg19
I-41
sg20
I-41
sg21
I-41
sg22
I-41
sg23
I-41
sg125
I107
sg126
I105
sg24
I-41
sg25
I-41
sg26
I-41
sg27
I-41
sg28
I-41
sg118
I110
sg29
I-41
sg30
I-41
sg31
I-41
sg32
I-41
ssI158
(dp297
g221
I243
sg168
I161
sg169
I163
ssI159
(dp298
g221
I-136
sg168
I-136
sg169
I-136
ssI160
(dp299
g221
I-137
sg168
I-137
sg169
I-137
ssI161
(dp300
S'COLON'
p301
I245
ssI162
(dp302
g221
I-135
sg168
I-135
sg169
I-135
ssI163
(dp303
S'COLON'
p304
I246
ssI164
(dp305
S'DEDENT'
p306
I247
sg171
I171
sg172
I168
sg173
I167
ssI165
(dp307
g306
I-71
sg171
I-71
sg172
I-71
sg173
I-71
ssI166
(dp308
g306
I-72
sg171
I-72
sg172
I-72
sg173
I-72
ssI167
(dp309
S'COLON'
p310
I249
ssI168
(dp311
S'COLON'
p312
I250
ssI169
(dp313
g306
I-70
sg171
I-70
sg172
I-70
sg173
I-70
ssI170
(dp314
g306
I-73
sg171
I-73
sg172
I-73
sg173
I-73
ssI171
(dp315
S'COLON'
p316
I251
ssI172
(dp317
g3
I-51
sg4
I-51
sg5
I-51
sg6
I-51
sg7
I-51
sg8
I-51
sg9
I-51
sg10
I-51
sg11
I-51
sg12
I-51
sg13
I-51
sg14
I-51
sg15
I-51
sg17
I-51
sg18
I-51
sg19
I-51
sg20
I-51
sg21
I-51
sg22
I-51
sg23
I-51
sg24
I-51
sg25
I-51
sg26
I-51
sg27
I-51
sg28
I-51
sg29
I-51
sg30
I-51
sg31
I-51
sg32
I-51
ssI173
(dp318
S'DEDENT'
p319
I-58
sg3
I-58
sg4
I-58
sg5
I-58
sg6
I-58
sg7
I-58
sg8
I-58
sg179
I-58
sg9
I-58
sg10
I-58
sg11
I-58
sg12
I-58
sg13
I-58
sg14
I-58
sg176
I-58
sg15
I-58
sg17
I-58
sg177
I-58
sS'COMMA'
p320
I-58
sg18
I-58
sg19
I-58
sg20
I-58
sg21
I-58
sg22
I-58
sg23
I-58
sg24
I-58
sg25
I-58
sg26
I-58
sg27
I-58
sg28
I-58
sg29
I-58
sg30
I-58
sg31
I-58
sg32
I-58
ssI174
(dp321
g319
I-56
sg3
I-56
sg4
I-56
sg5
I-56
sg6
I-56
sg7
I-56
sg8
I-56
sg179
I180
sg9
I-56
sg10
I-56
sg11
I-56
sg12
I-56
sg13
I-56
sg14
I-56
sg176
I178
sg15
I-56
sg17
I-56
sg177
I176
sg320
I-56
sg18
I-56
sg19
I-56
sg20
I-56
sg21
I-56
sg22
I-56
sg23
I-56
sg24
I-56
sg25
I-56
sg26
I-56
sg27
I-56
sg28
I-56
sg29
I-56
sg30
I-56
sg31
I-56
sg32
I-56
ssI175
(dp322
g179
I180
sg177
I176
sg176
I178
ssI176
(dp323
g319
I-61
sg3
I-61
sg4
I-61
sg5
I-61
sg6
I-61
sg7
I-61
sg8
I-61
sg179
I-61
sg9
I-61
sg10
I-61
sg11
I-61
sg12
I-61
sg13
I-61
sg14
I-61
sg176
I-61
sg15
I-61
sg17
I-61
sg177
I-61
sS'COMMA'
p324
I-61
sg18
I-61
sg19
I-61
sg20
I-61
sg21
I-61
sg22
I-61
sg23
I-61
sg24
I-61
sg25
I-61
sg26
I-61
sg27
I-61
sg28
I-61
sg29
I-61
sg30
I-61
sg31
I-61
sg32
I-61
ssI177
(dp325
g3
I-50
sg4
I-50
sg5
I-50
sg6
I-50
sg7
I-50
sg8
I-50
sg9
I-50
sg10
I-50
sg11
I-50
sg12
I-50
sg13
I-50
sg14
I-50
sg15
I-50
sg17
I-50
sg18
I-50
sg19
I-50
sg20
I-50
sg21
I-50
sg22
I-50
sg23
I-50
sg24
I-50
sg25
I-50
sg26
I-50
sg27
I-50
sg28
I-50
sg29
I-50
sg30
I-50
sg31
I-50
sg32
I-50
ssI178
(dp326
g319
I-59
sg3
I-59
sg4
I-59
sg5
I-59
sg6
I-59
sg7
I-59
sg8
I-59
sg179
I-59
sg9
I-59
sg10
I-59
sg11
I-59
sg12
I-59
sg13
I-59
sg14
I-59
sg176
I-59
sg15
I-59
sg17
I-59
sg177
I-59
sg324
I-59
sg18
I-59
sg19
I-59
sg20
I-59
sg21
I-59
sg22
I-59
sg23
I-59
sg24
I-59
sg25
I-59
sg26
I-59
sg27
I-59
sg28
I-59
sg29
I-59
sg30
I-59
sg31
I-59
sg32
I-59
ssI179
(dp327
g3
I-52
sg4
I-52
sg5
I-52
sg6
I-52
sg7
I-52
sg8
I-52
sg9
I-52
sg10
I-52
sg11
I-52
sg12
I-52
sg13
I-52
sg14
I-52
sg15
I-52
sg17
I-52
sg320
I254
sg18
I-52
sg19
I-52
sg20
I-52
sg21
I-52
sg22
I-52
sg23
I-52
sg24
I-52
sg25
I-52
sg26
I-52
sg27
I-52
sg28
I-52
sg29
I-52
sg30
I-52
sg31
I-52
sg32
I-52
ssI180
(dp328
g319
I-60
sg3
I-60
sg4
I-60
sg5
I-60
sg6
I-60
sg7
I-60
sg8
I-60
sg179
I-60
sg9
I-60
sg10
I-60
sg11
I-60
sg12
I-60
sg13
I-60
sg14
I-60
sg176
I-60
sg15
I-60
sg17
I-60
sg177
I-60
sg324
I-60
sg18
I-60
sg19
I-60
sg20
I-60
sg21
I-60
sg22
I-60
sg23
I-60
sg24
I-60
sg25
I-60
sg26
I-60
sg27
I-60
sg28
I-60
sg29
I-60
sg30
I-60
sg31
I-60
sg32
I-60
ssI181
(dp329
g3
I-44
sg4
I-44
sg5
I-44
sg6
I-44
sg7
I-44
sg8
I-44
sg9
I-44
sg10
I-44
sg11
I-44
sg12
I-44
sg13
I-44
sg14
I-44
sg15
I-44
sg17
I-44
sg18
I-44
sg19
I-44
sg20
I-44
sg21
I-44
sg22
I-44
sg23
I-44
sg24
I-44
sg25
I-44
sg26
I-44
sg27
I-44
sg28
I-44
sg29
I-44
sg30
I-44
sg31
I-44
sg32
I-44
ssI182
(dp330
g182
I-129
sS'DEDENT'
p331
I-129
sg183
I-129
sg157
I-129
ssI183
(dp332
S'COLON'
p333
I255
ssI184
(dp334
g182
I-126
sg331
I-126
sg183
I-126
sg157
I-126
ssI185
(dp335
S'COLON'
p336
I256
ssI186
(dp337
g182
I-127
sg331
I-127
sg183
I-127
sg157
I-127
ssI187
(dp338
g182
I-128
sg331
I-128
sg183
I-128
sg157
I-128
ssI188
(dp339
S'DEDENT'
p340
I257
sg182
I183
sg183
I185
sg157
I141
ssI189
(dp341
g116
I95
sg90
I-141
sg118
I110
sg119
I96
sg126
I105
sg121
I97
sg122
I98
sg123
I103
sg159
I148
sg125
I107
sg117
I101
sg127
I104
sg124
I112
ssI190
(dp342
g116
I95
sg3
I-42
sg4
I-42
sg5
I-42
sg6
I-42
sg119
I96
sg7
I-42
sg8
I-42
sg121
I97
sg122
I98
sg159
I148
sg9
I-42
sg10
I-42
sg11
I-42
sg12
I-42
sg13
I-42
sg14
I-42
sg117
I101
sg15
I-42
sg17
I-42
sg123
I103
sg124
I112
sg127
I104
sg18
I-42
sg19
I-42
sg20
I-42
sg21
I-42
sg22
I-42
sg23
I-42
sg125
I107
sg126
I105
sg24
I-42
sg25
I-42
sg26
I-42
sg27
I-42
sg28
I-42
sg118
I110
sg29
I-42
sg30
I-42
sg31
I-42
sg32
I-42
ssI191
(dp343
g116
I95
sg3
I-39
sg4
I-39
sg5
I-39
sg6
I-39
sg119
I96
sg7
I-39
sg8
I-39
sg121
I97
sg122
I98
sg159
I148
sg9
I-39
sg10
I-39
sg11
I-39
sg12
I-39
sg13
I-39
sg14
I-39
sg117
I101
sg15
I-39
sg17
I-39
sg123
I103
sg124
I112
sg127
I104
sg18
I-39
sg19
I-39
sg20
I-39
sg21
I-39
sg22
I-39
sg23
I-39
sg125
I107
sg126
I105
sg24
I-39
sg25
I-39
sg26
I-39
sg27
I-39
sg28
I-39
sg118
I110
sg29
I-39
sg30
I-39
sg31
I-39
sg32
I-39
ssI192
(dp344
g3
I-49
sg4
I-49
sg5
I-49
sg6
I-49
sg7
I-49
sg8
I-49
sg9
I-49
sg10
I-49
sg11
I-49
sg12
I-49
sg13
I-49
sg14
I-49
sg15
I-49
sg17
I-49
sg18
I-49
sg19
I-49
sg20
I-49
sg21
I-49
sg22
I-49
sg23
I-49
sg24
I-49
sg25
I-49
sg26
I-49
sg27
I-49
sg28
I-49
sg29
I-49
sg30
I-49
sg31
I-49
sg32
I-49
ssI193
(dp345
g285
I-144
sg190
I-144
sg191
I-144
ssI194
(dp346
g285
I259
sg190
I197
sg191
I198
ssI195
(dp347
g285
I-145
sg190
I-145
sg191
I-145
ssI196
(dp348
g285
I-143
sg190
I-143
sg191
I-143
ssI197
(dp349
S'COLON'
p350
I261
ssI198
(dp351
S'COLON'
p352
I262
ssI199
(dp353
g3
I-35
sg4
I-35
sg5
I-35
sg6
I-35
sg7
I-35
sg8
I-35
sg9
I-35
sg10
I-35
sg11
I-35
sg12
I-35
sg13
I-35
sg14
I-35
sg15
I-35
sg17
I-35
sg18
I-35
sg19
I-35
sg20
I-35
sg21
I-35
sg22
I-35
sg23
I-35
sg24
I-35
sg25
I-35
sg26
I-35
sg27
I-35
sg28
I-35
sg29
I-35
sg30
I-35
sg31
I-35
sg32
I-35
ssI200
(dp354
g3
I-66
sg4
I-66
sg5
I-66
sg6
I-66
sg7
I-66
sg8
I-66
sg9
I-66
sg10
I-66
sg11
I-66
sg12
I-66
sg13
I-66
sg14
I-66
sg15
I-66
sg17
I-66
sg18
I-66
sg19
I-66
sg20
I-66
sg21
I-66
sg22
I-66
sg23
I-66
sg24
I-66
sg25
I-66
sg26
I-66
sg27
I-66
sg28
I-66
sg29
I-66
sg30
I-66
sg31
I-66
sg32
I-66
ssI201
(dp355
g3
I-48
sg4
I-48
sg5
I-48
sg6
I-48
sg7
I-48
sg8
I-48
sg9
I-48
sg10
I-48
sg11
I-48
sg12
I-48
sg13
I-48
sg14
I-48
sg15
I-48
sg17
I-48
sg18
I-48
sg19
I-48
sg20
I-48
sg21
I-48
sg22
I-48
sg23
I-48
sg24
I-48
sg25
I-48
sg26
I-48
sg27
I-48
sg28
I-48
sg29
I-48
sg30
I-48
sg31
I-48
sg32
I-48
ssI202
(dp356
g3
I-34
sg4
I-34
sg5
I-34
sg6
I-34
sg7
I-34
sg8
I-34
sg9
I-34
sg10
I-34
sg11
I-34
sg12
I-34
sg13
I-34
sg14
I-34
sg15
I-34
sg17
I-34
sg18
I-34
sg19
I-34
sg20
I-34
sg21
I-34
sg22
I-34
sg23
I-34
sg24
I-34
sg25
I-34
sg26
I-34
sg27
I-34
sg28
I-34
sg29
I-34
sg30
I-34
sg31
I-34
sg32
I-34
ssI203
(dp357
g3
I-63
sg4
I-63
sg5
I-63
sg6
I-63
sg7
I-63
sg8
I-63
sg9
I-63
sg10
I-63
sg11
I-63
sg12
I-63
sg13
I-63
sg14
I-63
sg15
I-63
sg17
I-63
sg18
I-63
sg19
I-63
sg20
I-63
sg21
I-63
sg22
I-63
sg23
I-63
sg24
I-63
sg25
I-63
sg26
I-63
sg27
I-63
sg28
I-63
sg29
I-63
sg30
I-63
sg31
I-63
sg32
I-63
ssI204
(dp358
g3
I-47
sg4
I-47
sg5
I-47
sg6
I-47
sg7
I-47
sg8
I-47
sg9
I-47
sg10
I-47
sg11
I-47
sg12
I-47
sg13
I-47
sg14
I-47
sg15
I-47
sg17
I-47
sg18
I-47
sg19
I-47
sg20
I-47
sg21
I-47
sg22
I-47
sg23
I-47
sg24
I-47
sg25
I-47
sg26
I-47
sg27
I-47
sg28
I-47
sg29
I-47
sg30
I-47
sg31
I-47
sg32
I-47
ssI205
(dp359
g116
I95
sg56
I-133
sg118
I110
sg119
I96
sg126
I105
sg121
I97
sg122
I98
sg123
I103
sg159
I148
sg125
I107
sg117
I101
sg127
I104
sg124
I112
ssI206
(dp360
S'INDENT'
p361
I263
ssI207
(dp362
g221
I-154
sg116
I95
sg3
I-154
sg4
I-154
sg5
I-154
sg6
I-154
sg119
I96
sg7
I-154
sg8
I-154
sg121
I97
sg122
I98
sg169
I-154
sg159
I148
sg9
I-154
sg10
I-154
sg11
I-154
sg12
I-154
sg13
I-154
sg14
I-154
sg117
I101
sg15
I-154
sg204
I-154
sg17
I-154
sg123
I103
sg124
I112
sg127
I104
sg18
I-154
sg19
I-154
sg20
I-154
sg21
I-154
sg22
I-154
sg23
I-154
sg125
I107
sg126
I105
sg24
I-154
sg25
I-154
sg26
I-154
sg157
I-154
sg27
I-154
sg28
I-154
sg118
I110
sg29
I-154
sg30
I-154
sg31
I-154
sg32
I-154
ssI208
(dp363
g116
I95
sg211
I271
sg118
I110
sg119
I96
sg126
I105
sg204
I210
sg121
I97
sg122
I98
sg123
I103
sg159
I148
sg125
I107
sg117
I101
sg127
I104
sg124
I112
ssI209
(dp364
g221
I-156
sg116
I-156
sg3
I-156
sg4
I-156
sg5
I-156
sg6
I-156
sg119
I-156
sg7
I-156
sg8
I-156
sg121
I-156
sg122
I-156
sg127
I-156
sg159
I-156
sg9
I-156
sg10
I-156
sg11
I-156
sg12
I-156
sg13
I-156
sg14
I-156
sg117
I-156
sg15
I-156
sg204
I-156
sg17
I-156
sg123
I-156
sg124
I-156
sg126
I-156
sg18
I-156
sg19
I-156
sg20
I-156
sg21
I-156
sg22
I-156
sg23
I-156
sg125
I-156
sg24
I-156
sg25
I-156
sg26
I-156
sg157
I-156
sg27
I-156
sg28
I-156
sg118
I-156
sg29
I-156
sg30
I-156
sg31
I-156
sg169
I-156
sg32
I-156
ssI210
(dp365
g283
I-170
sg116
I-170
sg227
I-170
sg118
I-170
sg119
I-170
sg126
I-170
sg204
I-170
sg121
I-170
sg122
I-170
sg123
I-170
sg159
I-170
sg125
I-170
sg117
I-170
sg127
I-170
sg124
I-170
ssI211
(dp366
g227
I-162
ssI212
(dp367
g116
I95
sg211
I271
sg118
I110
sg119
I96
sg126
I105
sg204
I210
sg121
I97
sg122
I98
sg123
I103
sg159
I148
sg125
I107
sg117
I101
sg127
I104
sg124
I112
ssI213
(dp368
g116
I95
sg70
I-124
sg118
I110
sg119
I96
sg126
I105
sg121
I97
sg122
I98
sg123
I103
sg159
I148
sg125
I107
sg117
I101
sg127
I104
sg124
I112
ssI214
(dp369
g3
I-38
sg4
I-38
sg5
I-38
sg6
I-38
sg7
I-38
sg8
I-38
sg9
I-38
sg10
I-38
sg11
I-38
sg12
I-38
sg13
I-38
sg14
I-38
sg15
I-38
sg17
I-38
sg18
I-38
sg19
I-38
sg20
I-38
sg21
I-38
sg22
I-38
sg23
I-38
sg24
I-38
sg25
I-38
sg26
I-38
sg27
I-38
sg28
I-38
sg29
I-38
sg30
I-38
sg31
I-38
sg32
I-38
ssI215
(dp370
g3
I-65
sg4
I-65
sg5
I-65
sg6
I-65
sg7
I-65
sg8
I-65
sg9
I-65
sg10
I-65
sg11
I-65
sg12
I-65
sg13
I-65
sg14
I-65
sg15
I-65
sg17
I-65
sg18
I-65
sg19
I-65
sg20
I-65
sg21
I-65
sg22
I-65
sg23
I-65
sg24
I-65
sg25
I-65
sg26
I-65
sg27
I-65
sg28
I-65
sg29
I-65
sg30
I-65
sg31
I-65
sg32
I-65
ssI216
(dp371
g116
I95
sg3
I-37
sg4
I-37
sg5
I-37
sg6
I-37
sg119
I96
sg7
I-37
sg8
I-37
sg121
I97
sg122
I98
sg159
I148
sg9
I-37
sg10
I-37
sg11
I-37
sg12
I-37
sg13
I-37
sg14
I-37
sg117
I101
sg15
I-37
sg17
I-37
sg123
I103
sg124
I112
sg127
I104
sg18
I-37
sg19
I-37
sg20
I-37
sg21
I-37
sg22
I-37
sg23
I-37
sg125
I107
sg126
I105
sg24
I-37
sg25
I-37
sg26
I-37
sg27
I-37
sg28
I-37
sg118
I110
sg29
I-37
sg30
I-37
sg31
I-37
sg32
I-37
ssI217
(dp372
g3
I-194
sg4
I-194
sg5
I-194
sg6
I-194
sg7
I-194
sg8
I-194
sg9
I-194
sg10
I-194
sg11
I-194
sg12
I-194
sg13
I-194
sg14
I-194
sg15
I-194
sg17
I-194
sg18
I-194
sg19
I-194
sg20
I-194
sg21
I-194
sg22
I-194
sg23
I-194
sg24
I-194
sg25
I-194
sg26
I-194
sg27
I-194
sg28
I-194
sg29
I-194
sg30
I-194
sg31
I-194
sg32
I-194
ssI218
(dp373
g3
I-46
sg4
I-46
sg5
I-46
sg6
I-46
sg7
I-46
sg8
I-46
sg9
I-46
sg10
I-46
sg11
I-46
sg12
I-46
sg13
I-46
sg14
I-46
sg15
I-46
sg17
I-46
sg18
I-46
sg19
I-46
sg20
I-46
sg21
I-46
sg22
I-46
sg23
I-46
sg24
I-46
sg25
I-46
sg26
I-46
sg27
I-46
sg28
I-46
sg29
I-46
sg30
I-46
sg31
I-46
sg32
I-46
ssI219
(dp374
g116
I95
sg117
I101
sg118
I110
sg119
I96
sg121
I97
sg122
I98
sg123
I103
sg127
I104
sg125
I107
sg126
I105
sS'INDENT'
p375
I274
ssI220
(dp376
S'DEDENT'
p377
I275
sS'COMMA'
p378
I276
ssI221
(dp379
g238
I-173
sg116
I-173
sg3
I-173
sg4
I-173
sg5
I-173
sg6
I-173
sg119
I-173
sg153
I-173
sg150
I-173
sg7
I-173
sg8
I-173
sg121
I-173
sg122
I-173
sg9
I-173
sg10
I-173
sg11
I-173
sg12
I-173
sg13
I-173
sg202
I-173
sg14
I-173
sg117
I-173
sg15
I-173
sg173
I-173
sg17
I-173
sg123
I-173
sg127
I-173
sg126
I-173
sg18
I-173
sg19
I-173
sg20
I-173
sg21
I-173
sg171
I-173
sg22
I-173
sg172
I-173
sg23
I-173
sg152
I-173
sg125
I-173
sg154
I-173
sg24
I-173
sg25
I-173
sg26
I-173
sg157
I-173
sg27
I-173
sg28
I-173
sg118
I-173
sg29
I-173
sg151
I-173
sg30
I-173
sg31
I-173
sg32
I-173
sg156
I-173
sg155
I-173
sg205
I-173
sg203
I-173
ssI222
(dp380
g116
I95
sg117
I101
sg118
I110
sg119
I96
sg121
I97
sg122
I98
sg123
I103
sg124
I112
sg125
I107
sg126
I105
sg127
I104
sg159
I148
ssI223
(dp381
g161
I150
ssI224
(dp382
g116
I95
sg117
I101
sg118
I110
sg119
I96
sg121
I97
sg122
I98
sg123
I103
sg124
I112
sg125
I107
sg126
I105
sg127
I104
sg159
I148
ssI225
(dp383
g3
I-77
sg4
I-77
sg5
I-77
sg6
I-77
sg7
I-77
sg8
I-77
sg9
I-77
sg10
I-77
sg11
I-77
sg12
I-77
sg13
I-77
sg14
I-77
sg15
I-77
sg17
I-77
sg18
I-77
sg19
I-77
sg20
I-77
sg21
I-77
sg22
I-77
sg23
I-77
sg24
I-77
sg25
I-77
sg26
I-77
sg27
I-77
sg28
I-77
sg29
I-77
sg30
I-77
sg31
I-77
sg32
I-77
ssI226
(dp384
g254
I-82
sg150
I-82
sg151
I-82
sg152
I-82
sg153
I-82
sg154
I-82
sg155
I-82
sg156
I-82
sg157
I-82
ssI227
(dp385
g116
I95
sg117
I101
sg118
I110
sg119
I96
sg121
I97
sg122
I98
sg123
I103
sg127
I104
sg125
I107
sg126
I105
sg147
I121
ssI228
(dp386
g242
I284
sg243
I282
ssI229
(dp387
g116
I95
sg117
I101
sg118
I110
sg119
I96
sg121
I97
sg122
I98
sg123
I103
sg127
I104
sg125
I107
sg126
I105
sg147
I121
ssI230
(dp388
g116
I95
sg117
I101
sg118
I110
sg119
I96
sg121
I97
sg122
I98
sg123
I103
sg127
I104
sg125
I107
sg126
I105
sg147
I121
ssI231
(dp389
S'COLON'
p390
I-119
ssI232
(dp391
g390
I-114
ssI233
(dp392
S'LPAR'
p393
I287
ssI234
(dp394
g390
I-121
ssI235
(dp395
S'LPAR'
p396
I288
ssI236
(dp397
S'TRUE'
p398
I290
sS'FALSE'
p399
I289
sS'FLAG_OP'
p400
I291
ssI237
(dp401
g390
I292
ssI238
(dp402
g390
I-113
ssI239
(dp403
g390
I-115
ssI240
(dp404
g202
I296
sg203
I294
ssI241
(dp405
g116
I95
sg117
I101
sg118
I110
sg119
I96
sg121
I97
sg122
I98
sg123
I103
sg127
I104
sg125
I107
sg126
I105
sg147
I121
ssI242
(dp406
g285
I-171
sg116
I-171
sg3
I-171
sg4
I-171
sg5
I-171
sg6
I-171
sg119
I-171
sg7
I-171
sg8
I-171
sg121
I-171
sg122
I-171
sg127
I-171
sg159
I-171
sg9
I-171
sg10
I-171
sg190
I-171
sg11
I-171
sg12
I-171
sg13
I-171
sg14
I-171
sg191
I-171
sg117
I-171
sg15
I-171
sg173
I-171
sg17
I-171
sg123
I-171
sg124
I-171
sg126
I-171
sg18
I-171
sg19
I-171
sg20
I-171
sg21
I-171
sg171
I-171
sg22
I-171
sg172
I-171
sg23
I-171
sg125
I-171
sg24
I-171
sg25
I-171
sg26
I-171
sg157
I-171
sg27
I-171
sg28
I-171
sg90
I-171
sg118
I-171
sg29
I-171
sg30
I-171
sg31
I-171
sg183
I-171
sg32
I-171
ssI243
(dp407
g3
I-132
sg4
I-132
sg5
I-132
sg6
I-132
sg7
I-132
sg8
I-132
sg9
I-132
sg10
I-132
sg11
I-132
sg12
I-132
sg13
I-132
sg14
I-132
sg15
I-132
sg17
I-132
sg18
I-132
sg19
I-132
sg20
I-132
sg21
I-132
sg22
I-132
sg23
I-132
sg24
I-132
sg25
I-132
sg26
I-132
sg27
I-132
sg28
I-132
sg29
I-132
sg30
I-132
sg31
I-132
sg32
I-132
ssI244
(dp408
g221
I-134
sg168
I-134
sg169
I-134
ssI245
(dp409
g116
I95
sg117
I101
sg118
I110
sg119
I96
sg121
I97
sg122
I98
sg123
I103
sg124
I112
sg125
I107
sg126
I105
sg127
I104
sg164
I154
ssI246
(dp410
g116
I95
sg117
I101
sg118
I110
sg119
I96
sg121
I97
sg122
I98
sg123
I103
sg124
I112
sg125
I107
sg126
I105
sg127
I104
sg159
I148
ssI247
(dp411
g3
I-67
sg4
I-67
sg5
I-67
sg6
I-67
sg7
I-67
sg8
I-67
sg9
I-67
sg10
I-67
sg11
I-67
sg12
I-67
sg13
I-67
sg14
I-67
sg15
I-67
sg17
I-67
sg18
I-67
sg19
I-67
sg20
I-67
sg21
I-67
sg22
I-67
sg23
I-67
sg24
I-67
sg25
I-67
sg26
I-67
sg27
I-67
sg28
I-67
sg29
I-67
sg30
I-67
sg31
I-67
sg32
I-67
ssI248
(dp412
g306
I-69
sg171
I-69
sg172
I-69
sg173
I-69
ssI249
(dp413
g116
I95
sg117
I101
sg118
I110
sg119
I96
sg121
I97
sg122
I98
sg123
I103
sg127
I104
sg125
I107
sg126
I105
sg147
I121
ssI250
(dp414
g116
I95
sg117
I101
sg118
I110
sg119
I96
sg121
I97
sg122
I98
sg123
I103
sg124
I112
sg125
I107
sg126
I105
sg127
I104
sg159
I148
ssI251
(dp415
g116
I95
sg117
I101
sg118
I110
sg119
I96
sg121
I97
sg122
I98
sg123
I103
sg124
I112
sg125
I107
sg126
I105
sg127
I104
sg159
I148
ssI252
(dp416
g319
I-57
sg3
I-57
sg4
I-57
sg5
I-57
sg6
I-57
sg7
I-57
sg8
I-57
sg179
I-57
sg9
I-57
sg10
I-57
sg11
I-57
sg12
I-57
sg13
I-57
sg14
I-57
sg176
I-57
sg15
I-57
sg17
I-57
sg177
I-57
sg320
I-57
sg18
I-57
sg19
I-57
sg20
I-57
sg21
I-57
sg22
I-57
sg23
I-57
sg24
I-57
sg25
I-57
sg26
I-57
sg27
I-57
sg28
I-57
sg29
I-57
sg30
I-57
sg31
I-57
sg32
I-57
ssI253
(dp417
g319
I303
sg324
I304
ssI254
(dp418
g176
I178
sg177
I176
sS'INDENT'
p419
I305
sg179
I180
ssI255
(dp420
g116
I95
sg117
I101
sg118
I110
sg119
I96
sg121
I97
sg122
I98
sg123
I103
sg124
I112
sg125
I107
sg126
I105
sg127
I104
sg164
I154
ssI256
(dp421
g116
I95
sg117
I101
sg118
I110
sg119
I96
sg121
I97
sg122
I98
sg123
I103
sg124
I112
sg125
I107
sg126
I105
sg127
I104
sg159
I148
ssI257
(dp422
g3
I-123
sg4
I-123
sg5
I-123
sg6
I-123
sg7
I-123
sg8
I-123
sg9
I-123
sg10
I-123
sg11
I-123
sg12
I-123
sg13
I-123
sg14
I-123
sg15
I-123
sg17
I-123
sg18
I-123
sg19
I-123
sg20
I-123
sg21
I-123
sg22
I-123
sg23
I-123
sg24
I-123
sg25
I-123
sg26
I-123
sg27
I-123
sg28
I-123
sg29
I-123
sg30
I-123
sg31
I-123
sg32
I-123
ssI258
(dp423
g182
I-125
sg331
I-125
sg183
I-125
sg157
I-125
ssI259
(dp424
g3
I-140
sg4
I-140
sg5
I-140
sg6
I-140
sg7
I-140
sg8
I-140
sg9
I-140
sg10
I-140
sg11
I-140
sg12
I-140
sg13
I-140
sg14
I-140
sg15
I-140
sg17
I-140
sg18
I-140
sg19
I-140
sg20
I-140
sg21
I-140
sg22
I-140
sg23
I-140
sg24
I-140
sg25
I-140
sg26
I-140
sg27
I-140
sg28
I-140
sg29
I-140
sg30
I-140
sg31
I-140
sg32
I-140
ssI260
(dp425
g285
I-142
sg190
I-142
sg191
I-142
ssI261
(dp426
g116
I95
sg117
I101
sg118
I110
sg119
I96
sg121
I97
sg122
I98
sg123
I103
sg124
I112
sg125
I107
sg126
I105
sg127
I104
sg159
I148
ssI262
(dp427
g116
I95
sg117
I101
sg118
I110
sg119
I96
sg121
I97
sg122
I98
sg123
I103
sg124
I112
sg125
I107
sg126
I105
sg127
I104
sg159
I148
ssI263
(dp428
g116
I95
sg211
I271
sg118
I110
sg119
I96
sg126
I105
sg204
I210
sg121
I97
sg122
I98
sg123
I103
sg159
I148
sg125
I107
sg117
I101
sg127
I104
sg124
I112
ssI264
(dp429
S'DEDENT'
p430
I312
ssI265
(dp431
g210
I-169
sg116
I-169
sg211
I-169
sg118
I-169
sg119
I-169
sg126
I-169
sg204
I-169
sg121
I-169
sg122
I-169
sg123
I-169
sg159
I-169
sg125
I-169
sg117
I-169
sg127
I-169
sg124
I-169
ssI266
(dp432
g210
I-189
sg116
I-189
sg211
I-189
sg118
I-189
sg119
I-189
sg126
I-189
sg204
I-189
sg121
I-189
sg122
I-189
sg123
I-189
sg159
I-189
sg125
I-189
sg117
I-189
sg127
I-189
sg124
I-189
ssI267
(dp433
g210
I-167
sg116
I95
sg211
I271
sg118
I110
sg119
I96
sg126
I105
sg204
I210
sg121
I97
sg122
I98
sg127
I104
sg159
I148
sg125
I107
sg117
I101
sg124
I112
sg123
I103
ssI268
(dp434
g210
I-190
sg116
I-190
sg211
I-190
sg118
I-190
sg119
I-190
sg126
I-190
sg204
I-190
sg121
I-190
sg122
I-190
sg123
I-190
sg159
I-190
sg125
I-190
sg117
I-190
sg127
I-190
sg124
I-190
ssI269
(dp435
g116
I95
sg211
I271
sg118
I110
sg119
I96
sg126
I105
sg204
I210
sg121
I97
sg122
I98
sg123
I103
sg159
I148
sg125
I107
sg117
I101
sg127
I104
sg124
I112
ssI270
(dp436
g210
I-168
sg116
I-168
sg211
I-168
sg118
I-168
sg119
I-168
sg126
I-168
sg204
I-168
sg121
I-168
sg122
I-168
sg123
I-168
sg159
I-168
sg125
I-168
sg117
I-168
sg127
I-168
sg124
I-168
ssI271
(dp437
g116
I-191
sg211
I-191
sg118
I-191
sg119
I-191
sg126
I-191
sg204
I-191
sg121
I-191
sg122
I-191
sg123
I-191
sg159
I-191
sg125
I-191
sg117
I-191
sg127
I-191
sg124
I-191
ssI272
(dp438
g283
I316
ssI273
(dp439
g241
I-152
sg116
I95
sg3
I-152
sg4
I-152
sg5
I-152
sg6
I-152
sg173
I-152
sg150
I-152
sg7
I-152
sg8
I-152
sg121
I97
sg122
I98
sg127
I104
sg9
I-152
sg10
I-152
sg11
I-152
sg242
I-152
sg13
I-152
sg12
I-152
sg14
I-152
sg117
I101
sg15
I-152
sg119
I96
sg17
I-152
sg123
I103
sg243
I-152
sg205
I-152
sg18
I-152
sg19
I-152
sg20
I-152
sg21
I-152
sg171
I-152
sg126
I105
sg22
I-152
sg172
I-152
sg23
I-152
sg152
I-152
sg125
I107
sg154
I-152
sg24
I-152
sg25
I-152
sg26
I-152
sg157
I-152
sg27
I-152
sg28
I-152
sg118
I110
sg29
I-152
sg151
I-152
sg30
I-152
sg31
I-152
sg32
I-152
sg156
I-152
sg155
I-152
sg153
I-152
ssI274
(dp440
g116
I95
sg117
I101
sg118
I110
sg119
I96
sg121
I97
sg122
I98
sg123
I103
sg127
I104
sg125
I107
sg126
I105
ssI275
(dp441
g201
I-151
sg3
I-151
sg4
I-151
sg5
I-151
sg6
I-151
sg173
I-151
sg150
I-151
sg7
I-151
sg8
I-151
sg153
I-151
sg10
I-151
sg11
I-151
sg202
I-151
sg13
I-151
sg12
I-151
sg14
I-151
sg9
I-151
sg15
I-151
sg17
I-151
sg203
I-151
sg18
I-151
sg19
I-151
sg156
I-151
sg21
I-151
sg171
I-151
sg22
I-151
sg172
I-151
sg23
I-151
sg152
I-151
sg154
I-151
sg24
I-151
sg25
I-151
sg26
I-151
sg157
I-151
sg27
I-151
sg28
I-151
sg29
I-151
sg151
I-151
sg30
I-151
sg31
I-151
sg32
I-151
sg20
I-151
sg155
I-151
ssI276
(dp442
g116
I95
sg117
I101
sg118
I110
sg119
I96
sg121
I97
sg122
I98
sg123
I103
sg127
I104
sg125
I107
sg126
I105
ssI277
(dp443
g116
I95
sg265
I-105
sg118
I110
sg119
I96
sg126
I105
sg121
I97
sg122
I98
sg123
I103
sg159
I148
sg125
I107
sg117
I101
sg127
I104
sg124
I112
ssI278
(dp444
g254
I-108
sg150
I-108
sg151
I-108
sg152
I-108
sg153
I-108
sg154
I-108
sg155
I-108
sg156
I-108
sg157
I-108
ssI279
(dp445
g116
I95
sg279
I-99
sg118
I110
sg119
I96
sg126
I105
sg121
I97
sg122
I98
sg123
I103
sg159
I148
sg125
I107
sg117
I101
sg127
I104
sg124
I112
ssI280
(dp446
g254
I-92
sg150
I-92
sg151
I-92
sg152
I-92
sg153
I-92
sg154
I-92
sg155
I-92
sg156
I-92
sg157
I-92
ssI281
(dp447
g241
I-104
sg242
I-104
sg243
I-104
ssI282
(dp448
S'COLON'
p449
I318
ssI283
(dp450
g241
I319
sg242
I284
sg243
I282
ssI284
(dp451
S'COLON'
p452
I321
ssI285
(dp453
g331
I-95
sg150
I-95
sg151
I-95
sg152
I-95
sg153
I-95
sg154
I-95
sg155
I-95
sg156
I-95
sg157
I-95
ssI286
(dp454
g201
I-93
sg150
I-93
sg151
I-93
sg152
I-93
sg153
I-93
sg154
I-93
sg155
I-93
sg156
I-93
sg157
I-93
ssI287
(dp455
g161
I150
ssI288
(dp456
g161
I150
ssI289
(dp457
g390
I-120
ssI290
(dp458
g390
I-122
ssI291
(dp459
S'LPAR'
p460
I324
ssI292
(dp461
S'INDENT'
p462
I325
ssI293
(dp463
g238
I-98
sg202
I-98
sg203
I-98
ssI294
(dp464
S'COLON'
p465
I326
ssI295
(dp466
g238
I327
sg202
I296
sg203
I294
ssI296
(dp467
S'COLON'
p468
I329
ssI297
(dp469
g254
I-94
sg150
I-94
sg151
I-94
sg152
I-94
sg153
I-94
sg154
I-94
sg155
I-94
sg156
I-94
sg157
I-94
ssI298
(dp470
g221
I-138
sg168
I-138
sg169
I-138
ssI299
(dp471
g221
I-139
sg116
I95
sg117
I101
sg118
I110
sg119
I96
sg168
I-139
sg127
I104
sg121
I97
sg122
I98
sg169
I-139
sg159
I148
sg125
I107
sg126
I105
sg124
I112
sg123
I103
ssI300
(dp472
g306
I-76
sg171
I-76
sg172
I-76
sg173
I-76
ssI301
(dp473
g306
I-74
sg171
I-74
sg117
I101
sg118
I110
sg173
I-74
sg119
I96
sg172
I-74
sg121
I97
sg122
I98
sg127
I104
sg124
I112
sg125
I107
sg126
I105
sg159
I148
sg123
I103
sg116
I95
ssI302
(dp474
g306
I-75
sg171
I-75
sg117
I101
sg118
I110
sg173
I-75
sg119
I96
sg172
I-75
sg121
I97
sg122
I98
sg127
I104
sg124
I112
sg125
I107
sg126
I105
sg159
I148
sg123
I103
sg116
I95
ssI303
(dp475
g3
I-54
sg4
I-54
sg5
I-54
sg6
I-54
sg7
I-54
sg8
I-54
sg9
I-54
sg10
I-54
sg11
I-54
sg12
I-54
sg13
I-54
sg14
I-54
sg15
I-54
sg17
I-54
sg18
I-54
sg19
I-54
sg20
I-54
sg21
I-54
sg22
I-54
sg23
I-54
sg24
I-54
sg25
I-54
sg26
I-54
sg27
I-54
sg28
I-54
sg29
I-54
sg30
I-54
sg31
I-54
sg32
I-54
ssI304
(dp476
g179
I180
sg177
I176
sg176
I178
ssI305
(dp477
g179
I180
sg177
I176
sg176
I178
ssI306
(dp478
g319
I-55
sg3
I-55
sg4
I-55
sg5
I-55
sg6
I-55
sg7
I-55
sg8
I-55
sg179
I180
sg9
I-55
sg10
I-55
sg11
I-55
sg12
I-55
sg13
I-55
sg14
I-55
sg176
I178
sg15
I-55
sg17
I-55
sg177
I176
sg320
I-55
sg18
I-55
sg19
I-55
sg20
I-55
sg21
I-55
sg22
I-55
sg23
I-55
sg24
I-55
sg25
I-55
sg26
I-55
sg27
I-55
sg28
I-55
sg29
I-55
sg30
I-55
sg31
I-55
sg32
I-55
ssI307
(dp479
g182
I-130
sg254
I-130
sg183
I-130
sg157
I-130
ssI308
(dp480
g340
I-131
sg116
I95
sg117
I101
sg118
I110
sg119
I96
sg182
I-131
sg127
I104
sg121
I97
sg122
I98
sg183
I-131
sg159
I148
sg125
I107
sg126
I105
sg124
I112
sg123
I103
sg157
I-131
ssI309
(dp481
g285
I-146
sg116
I95
sg117
I101
sg118
I110
sg119
I96
sg121
I97
sg122
I98
sg127
I104
sg159
I148
sg125
I107
sg126
I105
sg190
I-146
sg191
I-146
sg123
I103
sg124
I112
ssI310
(dp482
g285
I-147
sg116
I95
sg117
I101
sg118
I110
sg119
I96
sg121
I97
sg122
I98
sg127
I104
sg159
I148
sg125
I107
sg126
I105
sg190
I-147
sg191
I-147
sg123
I103
sg124
I112
ssI311
(dp483
g210
I331
ssI312
(dp484
g3
I-159
sg4
I-159
sg5
I-159
sg6
I-159
sg7
I-159
sg8
I-159
sg9
I-159
sg10
I-159
sg11
I-159
sg12
I-159
sg13
I-159
sg14
I-159
sg15
I-159
sg17
I-159
sg18
I-159
sg19
I-159
sg20
I-159
sg21
I-159
sg22
I-159
sg23
I-159
sg24
I-159
sg25
I-159
sg26
I-159
sg27
I-159
sg28
I-159
sg29
I-159
sg30
I-159
sg31
I-159
sg32
I-159
ssI313
(dp485
g210
I-166
ssI314
(dp486
S'DEDENT'
p487
I333
ssI315
(dp488
g283
I-164
sg116
I-164
sg211
I-164
sg118
I-164
sg119
I-164
sg126
I-164
sg204
I-164
sg121
I-164
sg122
I-164
sg123
I-164
sg159
I-164
sg125
I-164
sg117
I-164
sg127
I-164
sg124
I-164
ssI316
(dp489
g3
I-158
sg4
I-158
sg5
I-158
sg6
I-158
sg7
I-158
sg8
I-158
sg9
I-158
sg10
I-158
sg11
I-158
sg12
I-158
sg13
I-158
sg14
I-158
sg15
I-158
sg17
I-158
sg18
I-158
sg19
I-158
sg20
I-158
sg21
I-158
sg22
I-158
sg23
I-158
sg24
I-158
sg25
I-158
sg26
I-158
sg27
I-158
sg28
I-158
sg29
I-158
sg30
I-158
sg31
I-158
sg32
I-158
ssI317
(dp490
S'DEDENT'
p491
I334
sg378
I276
ssI318
(dp492
g116
I95
sg117
I101
sg118
I110
sg119
I96
sg121
I97
sg122
I98
sg123
I103
sg127
I104
sg125
I107
sg126
I105
sg147
I121
ssI319
(dp493
g331
I-102
sg150
I-102
sg151
I-102
sg152
I-102
sg153
I-102
sg154
I-102
sg155
I-102
sg156
I-102
sg157
I-102
ssI320
(dp494
g241
I-103
sg242
I-103
sg243
I-103
ssI321
(dp495
g116
I95
sg117
I101
sg118
I110
sg119
I96
sg121
I97
sg122
I98
sg123
I103
sg127
I104
sg125
I107
sg126
I105
sg147
I121
ssI322
(dp496
S'RPAR'
p497
I337
ssI323
(dp498
g289
I338
ssI324
(dp499
g161
I150
ssI325
(dp500
g183
I185
sg182
I183
sg150
I127
sg151
I126
sg152
I139
sg153
I128
sg154
I140
sg155
I145
sg156
I136
sg157
I141
ssI326
(dp501
g116
I95
sg117
I101
sg118
I110
sg119
I96
sg121
I97
sg122
I98
sg123
I103
sg127
I104
sg125
I107
sg126
I105
sg147
I121
ssI327
(dp502
g331
I-96
sg150
I-96
sg151
I-96
sg152
I-96
sg153
I-96
sg154
I-96
sg155
I-96
sg156
I-96
sg157
I-96
ssI328
(dp503
g238
I-97
sg202
I-97
sg203
I-97
ssI329
(dp504
g116
I95
sg117
I101
sg118
I110
sg119
I96
sg121
I97
sg122
I98
sg123
I103
sg127
I104
sg125
I107
sg126
I105
sg147
I121
ssI330
(dp505
S'DEDENT'
p506
I346
sg324
I304
ssI331
(dp507
g3
I-160
sg4
I-160
sg5
I-160
sg6
I-160
sg7
I-160
sg8
I-160
sg9
I-160
sg10
I-160
sg11
I-160
sg12
I-160
sg13
I-160
sg14
I-160
sg15
I-160
sg17
I-160
sg18
I-160
sg19
I-160
sg20
I-160
sg21
I-160
sg22
I-160
sg23
I-160
sg24
I-160
sg25
I-160
sg26
I-160
sg27
I-160
sg28
I-160
sg29
I-160
sg30
I-160
sg31
I-160
sg32
I-160
ssI332
(dp508
g430
I-165
sg116
I-165
sg211
I-165
sg118
I-165
sg119
I-165
sg126
I-165
sg204
I-165
sg121
I-165
sg122
I-165
sg123
I-165
sg159
I-165
sg125
I-165
sg117
I-165
sg127
I-165
sg124
I-165
ssI333
(dp509
g430
I-192
sg116
I-192
sg211
I-192
sg118
I-192
sg119
I-192
sg126
I-192
sg204
I-192
sg121
I-192
sg122
I-192
sg123
I-192
sg159
I-192
sg125
I-192
sg117
I-192
sg127
I-192
sg124
I-192
ssI334
(dp510
g201
I-150
sg3
I-150
sg4
I-150
sg5
I-150
sg6
I-150
sg173
I-150
sg150
I-150
sg7
I-150
sg8
I-150
sg153
I-150
sg10
I-150
sg11
I-150
sg202
I-150
sg13
I-150
sg12
I-150
sg14
I-150
sg9
I-150
sg15
I-150
sg17
I-150
sg203
I-150
sg18
I-150
sg19
I-150
sg156
I-150
sg21
I-150
sg171
I-150
sg22
I-150
sg172
I-150
sg23
I-150
sg152
I-150
sg154
I-150
sg24
I-150
sg25
I-150
sg26
I-150
sg157
I-150
sg27
I-150
sg28
I-150
sg29
I-150
sg151
I-150
sg30
I-150
sg31
I-150
sg32
I-150
sg20
I-150
sg155
I-150
ssI335
(dp511
g241
I-106
sg242
I-106
sg243
I-106
ssI336
(dp512
g241
I-107
sg242
I-107
sg243
I-107
ssI337
(dp513
g390
I-117
ssI338
(dp514
g390
I-116
ssI339
(dp515
S'RPAR'
p516
I347
ssI340
(dp517
g254
I-110
sg182
I183
sg183
I185
sg157
I141
ssI341
(dp518
g254
I-109
sg150
I127
sg151
I126
sg152
I139
sg153
I128
sg154
I140
sg155
I145
sg156
I136
sg157
I141
ssI342
(dp519
g331
I348
ssI343
(dp520
g331
I-90
sg182
I-129
sg150
I-90
sg183
I-129
sg151
I-90
sg152
I-90
sg153
I-90
sg154
I-90
sg155
I-90
sg156
I-90
sg157
I-90
ssI344
(dp521
g238
I-100
sg202
I-100
sg203
I-100
ssI345
(dp522
g238
I-101
sg202
I-101
sg203
I-101
ssI346
(dp523
g3
I-53
sg4
I-53
sg5
I-53
sg6
I-53
sg7
I-53
sg8
I-53
sg9
I-53
sg10
I-53
sg11
I-53
sg12
I-53
sg13
I-53
sg14
I-53
sg15
I-53
sg17
I-53
sg18
I-53
sg19
I-53
sg20
I-53
sg21
I-53
sg22
I-53
sg23
I-53
sg24
I-53
sg25
I-53
sg26
I-53
sg27
I-53
sg28
I-53
sg29
I-53
sg30
I-53
sg31
I-53
sg32
I-53
ssI347
(dp524
g390
I-118
ssI348
(dp525
g340
I-111
sg182
I-111
sg150
I-111
sg151
I-111
sS'ELSE'
p526
I349
sg183
I-111
sg153
I-111
sg154
I-111
sg155
I-111
sg152
I-111
sg156
I-111
sg157
I-111
ssI349
(dp527
S'COLON'
p528
I350
ssI350
(dp529
S'INDENT'
p530
I351
ssI351
(dp531
g183
I185
sg182
I183
sg150
I127
sg151
I126
sg152
I139
sg153
I128
sg154
I140
sg155
I145
sg156
I136
sg157
I141
ssI352
(dp532
g254
I353
ssI353
(dp533
g340
I-112
sg182
I-112
sg150
I-112
sg151
I-112
sg183
I-112
sg153
I-112
sg154
I-112
sg155
I-112
sg152
I-112
sg156
I-112
sg157
I-112
ss.(dp1
I0
(dp2
S'meta_license_stmt'
p3
I2
sS'extra_source_files'
p4
I51
sS'library_declaration'
p5
I4
sS'exec_decl'
p6
I37
sS'library'
p7
I21
sS'meta_author_email_stmt'
p8
I35
sS'meta_url_stmt'
p9
I52
sS'meta_classifiers_stmt'
p10
I53
sS'data_files'
p11
I5
sS'description_decl'
p12
I55
sS'meta_download_url_stmt'
p13
I63
sS'path_declaration'
p14
I23
sS'meta_subento_stmt'
p15
I24
sS'meta_maintainer_stmt'
p16
I25
sS'meta_description_from_file_stmt'
p17
I47
sS'exec'
p18
I59
sS'meta_author_stmt'
p19
I27
sS'stmt'
p20
I28
sS'meta_platforms_stmt'
p21
I12
sS'meta_stmt'
p22
I40
sS'flag'
p23
I41
sS'meta_description_stmt'
p24
I61
sS'meta_hook_file_stmt'
p25
I62
sS'path'
p26
I19
sS'flag_declaration'
p27
I14
sS'meta_meta_template_files_stmt'
p28
I39
sS'data_files_declaration'
p29
I15
sS'stmt_list'
p30
I64
sS'dummy'
p31
I65
sS'meta_keywords_stmt'
p32
I29
sS'meta_config_py_stmt'
p33
I43
sS'meta_version_stmt'
p34
I17
sS'meta_maintainer_email_stmt'
p35
I33
sS'meta_name_stmt'
p36
I22
sS'meta_summary_stmt'
p37
I45
sS'empty'
p38
I34
sS'meta_use_backends_stmt'
p39
I48
ssI1
(dp40
sI2
(dp41
sI3
(dp42
sI4
(dp43
sI5
(dp44
sI6
(dp45
sI7
(dp46
sI8
(dp47
sI9
(dp48
sI10
(dp49
sI11
(dp50
sI12
(dp51
sI13
(dp52
sI14
(dp53
sI15
(dp54
sI16
(dp55
sI17
(dp56
sI18
(dp57
sI19
(dp58
sI20
(dp59
sI21
(dp60
sI22
(dp61
sI23
(dp62
sI24
(dp63
sI25
(dp64
sI26
(dp65
sI27
(dp66
sI28
(dp67
sI29
(dp68
sI30
(dp69
sI31
(dp70
sI32
(dp71
sI33
(dp72
sI34
(dp73
sI35
(dp74
sI36
(dp75
sI37
(dp76
sI38
(dp77
sI39
(dp78
sI40
(dp79
sI41
(dp80
sI42
(dp81
sI43
(dp82
sI44
(dp83
sI45
(dp84
sI46
(dp85
sI47
(dp86
sI48
(dp87
sI49
(dp88
sI50
(dp89
sI51
(dp90
sI52
(dp91
sI53
(dp92
sI54
(dp93
sI55
(dp94
S'anytoken_no_comma'
p95
I99
sS'literal_no_space'
p96
I109
sS'single_line_newline'
p97
I111
sS'single_line'
p98
I106
sS'single_line_value'
p99
I108
ssI56
(dp100
sI57
(dp101
sI58
(dp102
sI59
(dp103
sI60
(dp104
sI61
(dp105
sI62
(dp106
sI63
(dp107
sI64
(dp108
g3
I2
sg35
I33
sg5
I4
sg6
I37
sg7
I21
sg8
I35
sg9
I52
sg10
I53
sg11
I5
sg12
I55
sg13
I63
sg14
I23
sg15
I24
sg16
I25
sg17
I47
sg18
I59
sg19
I27
sg20
I117
sg21
I12
sg22
I40
sg23
I41
sg24
I61
sg25
I62
sg26
I19
sg27
I14
sg28
I39
sg29
I15
sg31
I65
sg32
I29
sg33
I43
sg34
I17
sg4
I51
sg36
I22
sg37
I45
sg39
I48
ssI65
(dp109
sI66
(dp110
sI67
(dp111
S'anytoken_no_comma'
p112
I120
sS'indented_comma_list'
p113
I124
sS'comma_words'
p114
I119
sS'comma_list'
p115
I123
sS'anyword_comma_list'
p116
I122
ssI68
(dp117
g112
I120
sg113
I124
sg114
I119
sS'comma_list'
p118
I125
sg116
I122
ssI69
(dp119
S'packages_stmt'
p120
I131
sS'build_requires_stmt'
p121
I137
sS'sub_directory_stmt'
p122
I143
sS'conditional_stmt'
p123
I142
sS'extension_decl'
p124
I144
sS'install_requires_stmt'
p125
I132
sS'extension_stmt'
p126
I133
sS'compiled_library_decl'
p127
I138
sS'modules_stmt'
p128
I134
sS'library_stmt'
p129
I129
sS'library_stmts'
p130
I135
sS'compiled_library_stmt'
p131
I130
ssI70
(dp132
g95
I99
sS'literal_no_space'
p133
I146
sS'literal'
p134
I147
sS'anyword'
p135
I149
ssI71
(dp136
S'library_name'
p137
I152
sS'word'
p138
I151
ssI72
(dp139
g95
I99
sg133
I146
sg134
I147
sS'anyword'
p140
I153
ssI73
(dp141
g95
I99
sg96
I109
sg98
I106
sS'single_line_value'
p142
I155
ssI74
(dp143
S'word'
p144
I156
ssI75
(dp145
g95
I99
sg133
I146
sg134
I147
sS'anyword'
p146
I157
ssI76
(dp147
S'flag_stmts'
p148
I158
sS'flag_description'
p149
I159
sS'flag_stmt'
p150
I162
sS'flag_default'
p151
I160
ssI77
(dp152
S'data_files_stmts'
p153
I164
sS'data_files_target'
p154
I165
sS'data_files_files'
p155
I166
sS'data_files_stmt'
p156
I169
sS'data_files_srcdir'
p157
I170
ssI78
(dp158
sI79
(dp159
S'classifiers'
p160
I179
sS'indented_classifiers_list'
p161
I172
sS'classifiers_list'
p162
I177
sS'classifier_atom'
p163
I173
sS'classifier'
p164
I174
ssI80
(dp165
g112
I120
sg113
I124
sg114
I119
sS'comma_list'
p166
I181
sg116
I122
ssI81
(dp167
S'path_stmts'
p168
I188
sS'conditional_stmt'
p169
I182
sS'path_stmt'
p170
I184
sS'path_description'
p171
I186
sS'path_default'
p172
I187
ssI82
(dp173
g95
I99
sg133
I146
sg134
I147
sS'anyword'
p174
I189
ssI83
(dp175
g95
I99
sg133
I146
sg134
I147
sS'anyword'
p176
I190
ssI84
(dp177
g95
I99
sg133
I146
sg134
I147
sS'anyword'
p178
I191
ssI85
(dp179
sI86
(dp180
g112
I120
sg113
I124
sg114
I119
sS'comma_list'
p181
I192
sg116
I122
ssI87
(dp182
S'function'
p183
I193
sS'exec_stmts'
p184
I194
sS'module'
p185
I195
sS'exec_stmt'
p186
I196
ssI88
(dp187
g95
I99
sg96
I109
sg98
I106
sS'single_line_value'
p188
I199
ssI89
(dp189
g112
I120
sg113
I124
sg114
I119
sS'comma_list'
p190
I200
sg116
I122
ssI90
(dp191
S'word'
p192
I201
ssI91
(dp193
sI92
(dp194
g112
I120
sg113
I124
sg114
I119
sS'comma_list'
p195
I203
sg116
I122
ssI93
(dp196
S'word'
p197
I204
ssI94
(dp198
g95
I99
sg133
I146
sg134
I147
sS'anyword'
p199
I205
ssI95
(dp200
sI96
(dp201
sI97
(dp202
sI98
(dp203
sI99
(dp204
sI100
(dp205
g95
I99
sg96
I109
sg98
I207
ssI101
(dp206
sI102
(dp207
sI103
(dp208
sI104
(dp209
sI105
(dp210
sI106
(dp211
g95
I99
sg133
I146
sS'literal'
p212
I209
ssI107
(dp213
sI108
(dp214
S'newline'
p215
I211
ssI109
(dp216
sI110
(dp217
sI111
(dp218
sI112
(dp219
sI113
(dp220
g95
I99
sg133
I146
sg134
I147
sS'anyword'
p221
I213
ssI114
(dp222
g95
I99
sg96
I109
sg98
I106
sS'single_line_value'
p223
I214
ssI115
(dp224
g112
I120
sg113
I124
sg114
I119
sS'comma_list'
p225
I215
sg116
I122
ssI116
(dp226
g95
I99
sg133
I146
sg134
I147
sS'anyword'
p227
I216
ssI117
(dp228
sI118
(dp229
S'version'
p230
I218
ssI119
(dp231
sI120
(dp232
sI121
(dp233
g112
I120
sS'comma_words'
p234
I220
sg116
I122
ssI122
(dp235
g112
I221
ssI123
(dp236
sI124
(dp237
sI125
(dp238
sI126
(dp239
sI127
(dp240
sI128
(dp241
sI129
(dp242
sI130
(dp243
sI131
(dp244
sI132
(dp245
sI133
(dp246
sI134
(dp247
sI135
(dp248
g120
I131
sg121
I137
sg122
I143
sg123
I142
sg124
I144
sg125
I132
sg126
I133
sg127
I138
sg128
I134
sg129
I226
sg131
I130
ssI136
(dp249
sI137
(dp250
sI138
(dp251
sI139
(dp252
sI140
(dp253
sI141
(dp254
S'test'
p255
I237
sS'flag_var'
p256
I239
sS'os_var'
p257
I232
sS'bool'
p258
I238
ssI142
(dp259
sI143
(dp260
sI144
(dp261
sI145
(dp262
sI146
(dp263
sI147
(dp264
sI148
(dp265
sI149
(dp266
g95
I99
sg133
I146
sg134
I242
ssI150
(dp267
sI151
(dp268
sI152
(dp269
sI153
(dp270
g95
I99
sg133
I146
sg134
I242
ssI154
(dp271
g95
I99
sg96
I109
sg98
I207
ssI155
(dp272
sI156
(dp273
sI157
(dp274
g95
I99
sg133
I146
sg134
I242
ssI158
(dp275
g149
I159
sg150
I244
sg151
I160
ssI159
(dp276
sI160
(dp277
sI161
(dp278
sI162
(dp279
sI163
(dp280
sI164
(dp281
g155
I166
sg154
I165
sg156
I248
sg157
I170
ssI165
(dp282
sI166
(dp283
sI167
(dp284
sI168
(dp285
sI169
(dp286
sI170
(dp287
sI171
(dp288
sI172
(dp289
sI173
(dp290
sI174
(dp291
g163
I252
ssI175
(dp292
S'classifiers'
p293
I253
sg163
I173
sg164
I174
ssI176
(dp294
sI177
(dp295
sI178
(dp296
sI179
(dp297
sI180
(dp298
sI181
(dp299
sI182
(dp300
sI183
(dp301
sI184
(dp302
sI185
(dp303
sI186
(dp304
sI187
(dp305
sI188
(dp306
g169
I182
sg170
I258
sg171
I186
sg172
I187
ssI189
(dp307
g95
I99
sg133
I146
sg134
I242
ssI190
(dp308
g95
I99
sg133
I146
sg134
I242
ssI191
(dp309
g95
I99
sg133
I146
sg134
I242
ssI192
(dp310
sI193
(dp311
sI194
(dp312
g183
I193
sg186
I260
sg185
I195
ssI195
(dp313
sI196
(dp314
sI197
(dp315
sI198
(dp316
sI199
(dp317
sI200
(dp318
sI201
(dp319
sI202
(dp320
sI203
(dp321
sI204
(dp322
sI205
(dp323
g95
I99
sg133
I146
sg134
I242
ssI206
(dp324
sI207
(dp325
g95
I99
sg133
I146
sg212
I209
ssI208
(dp326
S'multi_stmts'
p327
I264
sS'multi_stmt'
p328
I267
sS'indent'
p329
I269
sS'multi_literal'
p330
I265
sS'newline'
p331
I268
sg133
I146
sg95
I99
sS'literal'
p332
I266
sS'indented_block'
p333
I270
ssI209
(dp334
sI210
(dp335
sI211
(dp336
sI212
(dp337
S'multi_stmts'
p338
I272
sg328
I267
sg329
I269
sg330
I265
sg331
I268
sg133
I146
sg95
I99
sg332
I266
sg333
I270
ssI213
(dp339
g95
I99
sg133
I146
sg134
I242
ssI214
(dp340
sI215
(dp341
sI216
(dp342
g95
I99
sg133
I146
sg134
I242
ssI217
(dp343
sI218
(dp344
sI219
(dp345
g112
I120
sg116
I273
ssI220
(dp346
sI221
(dp347
sI222
(dp348
g95
I99
sg133
I146
sg134
I147
sS'anyword'
p349
I277
ssI223
(dp350
S'word'
p351
I278
ssI224
(dp352
g95
I99
sg133
I146
sg134
I147
sS'anyword'
p353
I279
ssI225
(dp354
sI226
(dp355
sI227
(dp356
g112
I120
sg113
I124
sg114
I119
sS'comma_list'
p357
I280
sg116
I122
ssI228
(dp358
S'compiled_library_field_stmts'
p359
I283
sS'compiled_library_field_stmt'
p360
I281
ssI229
(dp361
g112
I120
sg113
I124
sg114
I119
sS'comma_list'
p362
I285
sg116
I122
ssI230
(dp363
g112
I120
sg113
I124
sg114
I119
sS'comma_list'
p364
I286
sg116
I122
ssI231
(dp365
sI232
(dp366
sI233
(dp367
sI234
(dp368
sI235
(dp369
sI236
(dp370
sI237
(dp371
sI238
(dp372
sI239
(dp373
sI240
(dp374
S'extension_field_stmts'
p375
I295
sS'extension_field_stmt'
p376
I293
ssI241
(dp377
g112
I120
sg113
I124
sg114
I119
sS'comma_list'
p378
I297
sg116
I122
ssI242
(dp379
sI243
(dp380
sI244
(dp381
sI245
(dp382
g95
I99
sg96
I109
sg98
I106
sS'single_line_value'
p383
I298
ssI246
(dp384
g95
I99
sg133
I146
sg134
I147
sS'anyword'
p385
I299
ssI247
(dp386
sI248
(dp387
sI249
(dp388
g112
I120
sg113
I124
sg114
I119
sS'comma_list'
p389
I300
sg116
I122
ssI250
(dp390
g95
I99
sg133
I146
sg134
I147
sS'anyword'
p391
I301
ssI251
(dp392
g95
I99
sg133
I146
sg134
I147
sS'anyword'
p393
I302
ssI252
(dp394
sI253
(dp395
sI254
(dp396
g164
I306
sg163
I173
ssI255
(dp397
g95
I99
sg96
I109
sg98
I106
sS'single_line_value'
p398
I307
ssI256
(dp399
g95
I99
sg133
I146
sg134
I147
sS'anyword'
p400
I308
ssI257
(dp401
sI258
(dp402
sI259
(dp403
sI260
(dp404
sI261
(dp405
g95
I99
sg133
I146
sg134
I147
sS'anyword'
p406
I309
ssI262
(dp407
g95
I99
sg133
I146
sg134
I147
sS'anyword'
p408
I310
ssI263
(dp409
S'multi_stmts'
p410
I311
sg328
I267
sg329
I269
sg330
I265
sg331
I268
sg133
I146
sg95
I99
sg332
I266
sg333
I270
ssI264
(dp411
sI265
(dp412
sI266
(dp413
sI267
(dp414
S'multi_stmts'
p415
I313
sg328
I267
sg329
I269
sg330
I265
sg331
I268
sg133
I146
sg95
I99
sg332
I266
sg333
I270
ssI268
(dp416
sI269
(dp417
S'multi_stmts'
p418
I314
sg328
I267
sg329
I269
sg330
I265
sg331
I268
sS'indented_block_value'
p419
I315
sg95
I99
sg133
I146
sg332
I266
sg333
I270
ssI270
(dp420
sI271
(dp421
sI272
(dp422
sI273
(dp423
g112
I221
ssI274
(dp424
g112
I120
sS'comma_words'
p425
I317
sg116
I122
ssI275
(dp426
sI276
(dp427
g112
I120
sg116
I273
ssI277
(dp428
g95
I99
sg133
I146
sg134
I242
ssI278
(dp429
sI279
(dp430
g95
I99
sg133
I146
sg134
I242
ssI280
(dp431
sI281
(dp432
sI282
(dp433
sI283
(dp434
g360
I320
ssI284
(dp435
sI285
(dp436
sI286
(dp437
sI287
(dp438
S'word'
p439
I322
ssI288
(dp440
S'word'
p441
I323
ssI289
(dp442
sI290
(dp443
sI291
(dp444
sI292
(dp445
sI293
(dp446
sI294
(dp447
sI295
(dp448
g376
I328
ssI296
(dp449
sI297
(dp450
sI298
(dp451
sI299
(dp452
g95
I99
sg133
I146
sg134
I242
ssI300
(dp453
sI301
(dp454
g95
I99
sg133
I146
sg134
I242
ssI302
(dp455
g95
I99
sg133
I146
sg134
I242
ssI303
(dp456
sI304
(dp457
g164
I306
sg163
I173
ssI305
(dp458
S'classifiers'
p459
I330
sg163
I173
sg164
I174
ssI306
(dp460
g163
I252
ssI307
(dp461
sI308
(dp462
g95
I99
sg133
I146
sg134
I242
ssI309
(dp463
g95
I99
sg133
I146
sg134
I242
ssI310
(dp464
g95
I99
sg133
I146
sg134
I242
ssI311
(dp465
sI312
(dp466
sI313
(dp467
sI314
(dp468
S'dedent'
p469
I332
ssI315
(dp470
sI316
(dp471
sI317
(dp472
sI318
(dp473
g112
I120
sg113
I124
sg114
I119
sS'comma_list'
p474
I335
sg116
I122
ssI319
(dp475
sI320
(dp476
sI321
(dp477
g112
I120
sg113
I124
sg114
I119
sS'comma_list'
p478
I336
sg116
I122
ssI322
(dp479
sI323
(dp480
sI324
(dp481
S'word'
p482
I339
ssI325
(dp483
g120
I131
sg121
I137
sg122
I143
sg123
I343
sg124
I144
sg170
I184
sg125
I132
sg126
I133
sg127
I138
sS'in_conditional_stmts'
p484
I342
sg171
I186
sg128
I134
sg172
I187
sg129
I129
sS'path_stmts'
p485
I340
sS'library_stmts'
p486
I341
sg131
I130
ssI326
(dp487
g112
I120
sg113
I124
sg114
I119
sS'comma_list'
p488
I344
sg116
I122
ssI327
(dp489
sI328
(dp490
sI329
(dp491
g112
I120
sg113
I124
sg114
I119
sS'comma_list'
p492
I345
sg116
I122
ssI330
(dp493
sI331
(dp494
sI332
(dp495
sI333
(dp496
sI334
(dp497
sI335
(dp498
sI336
(dp499
sI337
(dp500
sI338
(dp501
sI339
(dp502
sI340
(dp503
g169
I182
sg170
I258
sg171
I186
sg172
I187
ssI341
(dp504
g120
I131
sg121
I137
sg122
I143
sg123
I142
sg124
I144
sg125
I132
sg126
I133
sg127
I138
sg128
I134
sg129
I226
sg131
I130
ssI342
(dp505
sI343
(dp506
sI344
(dp507
sI345
(dp508
sI346
(dp509
sI347
(dp510
sI348
(dp511
sI349
(dp512
sI350
(dp513
sI351
(dp514
g120
I131
sg121
I137
sg122
I143
sg123
I343
sg124
I144
sg170
I184
sg125
I132
sg126
I133
sg127
I138
sS'in_conditional_stmts'
p515
I352
sg171
I186
sg128
I134
sg172
I187
sg129
I129
sg485
I340
sg486
I341
sg131
I130
ssI352
(dp516
sI353
(dp517
s.(lp1
(S"S' -> stmt_list"
p2
S"S'"
p3
I1
NNNtp4
a(S'stmt_list -> stmt_list stmt'
p5
S'stmt_list'
p6
I2
S'p_stmt_list'
p7
S'/Users/cournape/src/projects/bento/bento-git/bento/parser/parser.py'
p8
I116
tp9
a(S'stmt_list -> stmt'
p10
S'stmt_list'
p11
I1
S'p_stmt_list_term'
p12
S'/Users/cournape/src/projects/bento/bento-git/bento/parser/parser.py'
p13
I122
tp14
a(S'stmt_list -> empty'
p15
S'stmt_list'
p16
I1
S'p_stmt_list_empty'
p17
S'/Users/cournape/src/projects/bento/bento-git/bento/parser/parser.py'
p18
I126
tp19
a(S'stmt_list -> NEWLINE'
p20
S'stmt_list'
p21
I1
S'p_stmt_list_newline'
p22
S'/Users/cournape/src/projects/bento/bento-git/bento/parser/parser.py'
p23
I130
tp24
a(S'stmt -> meta_stmt'
p25
S'stmt'
p26
I1
S'p_stmt'
p27
S'/Users/cournape/src/projects/bento/bento-git/bento/parser/parser.py'
p28
I134
tp29
a(S'stmt -> library'
p30
g26
I1
g27
g28
I135
tp31
a(S'stmt -> exec'
p32
g26
I1
g27
g28
I136
tp33
a(S'stmt -> path'
p34
g26
I1
g27
g28
I137
tp35
a(S'stmt -> flag'
p36
g26
I1
g27
g28
I138
tp37
a(S'stmt -> extra_source_files'
p38
g26
I1
g27
g28
I139
tp39
a(S'stmt -> data_files'
p40
g26
I1
g27
g28
I140
tp41
a(S'stmt -> dummy'
p42
g26
I1
g27
g28
I141
tp43
a(S'empty -> <empty>'
p44
S'empty'
p45
I0
S'p_empty'
p46
S'/Users/cournape/src/projects/bento/bento-git/bento/parser/parser.py'
p47
I146
tp48
a(S'meta_stmt -> meta_name_stmt'
p49
S'meta_stmt'
p50
I1
S'p_meta_stmt'
p51
S'/Users/cournape/src/projects/bento/bento-git/bento/parser/parser.py'
p52
I153
tp53
a(S'meta_stmt -> meta_summary_stmt'
p54
g50
I1
g51
g52
I154
tp55
a(S'meta_stmt -> meta_description_stmt'
p56
g50
I1
g51
g52
I155
tp57
a(S'meta_stmt -> meta_description_from_file_stmt'
p58
g50
I1
g51
g52
I156
tp59
a(S'meta_stmt -> meta_version_stmt'
p60
g50
I1
g51
g52
I157
tp61
a(S'meta_stmt -> meta_url_stmt'
p62
g50
I1
g51
g52
I158
tp63
a(S'meta_stmt -> meta_download_url_stmt'
p64
g50
I1
g51
g52
I159
tp65
a(S'meta_stmt -> meta_author_stmt'
p66
g50
I1
g51
g52
I160
tp67
a(S'meta_stmt -> meta_author_email_stmt'
p68
g50
I1
g51
g52
I161
tp69
a(S'meta_stmt -> meta_maintainer_stmt'
p70
g50
I1
g51
g52
I162
tp71
a(S'meta_stmt -> meta_maintainer_email_stmt'
p72
g50
I1
g51
g52
I163
tp73
a(S'meta_stmt -> meta_license_stmt'
p74
g50
I1
g51
g52
I164
tp75
a(S'meta_stmt -> meta_platforms_stmt'
p76
g50
I1
g51
g52
I165
tp77
a(S'meta_stmt -> meta_keywords_stmt'
p78
g50
I1
g51
g52
I166
tp79
a(S'meta_stmt -> meta_classifiers_stmt'
p80
g50
I1
g51
g52
I167
tp81
a(S'meta_stmt -> meta_hook_file_stmt'
p82
g50
I1
g51
g52
I168
tp83
a(S'meta_stmt -> meta_config_py_stmt'
p84
g50
I1
g51
g52
I169
tp85
a(S'meta_stmt -> meta_meta_template_files_stmt'
p86
g50
I1
g51
g52
I170
tp87
a(S'meta_stmt -> meta_subento_stmt'
p88
g50
I1
g51
g52
I171
tp89
a(S'meta_stmt -> meta_use_backends_stmt'
p90
g50
I1
g51
g52
I172
tp91
a(S'meta_name_stmt -> NAME_ID COLON WORD'
p92
S'meta_name_stmt'
p93
I3
S'p_meta_name_stmt'
p94
S'/Users/cournape/src/projects/bento/bento-git/bento/parser/parser.py'
p95
I177
tp96
a(S'meta_summary_stmt -> SUMMARY_ID COLON single_line_value'
p97
S'meta_summary_stmt'
p98
I3
S'p_meta_summary_stmt'
p99
S'/Users/cournape/src/projects/bento/bento-git/bento/parser/parser.py'
p100
I182
tp101
a(S'meta_url_stmt -> URL_ID COLON anyword'
p102
S'meta_url_stmt'
p103
I3
S'p_meta_url_stmt'
p104
S'/Users/cournape/src/projects/bento/bento-git/bento/parser/parser.py'
p105
I187
tp106
a(S'meta_download_url_stmt -> DOWNLOAD_URL_ID COLON anyword'
p107
S'meta_download_url_stmt'
p108
I3
S'p_meta_download_url_stmt'
p109
S'/Users/cournape/src/projects/bento/bento-git/bento/parser/parser.py'
p110
I192
tp111
a(S'meta_author_stmt -> AUTHOR_ID COLON single_line_value'
p112
S'meta_author_stmt'
p113
I3
S'p_meta_author_stmt'
p114
S'/Users/cournape/src/projects/bento/bento-git/bento/parser/parser.py'
p115
I197
tp116
a(S'meta_author_email_stmt -> AUTHOR_EMAIL_ID COLON anyword'
p117
S'meta_author_email_stmt'
p118
I3
S'p_meta_author_email_stmt'
p119
S'/Users/cournape/src/projects/bento/bento-git/bento/parser/parser.py'
p120
I202
tp121
a(S'meta_maintainer_stmt -> MAINTAINER_ID COLON single_line_value'
p122
S'meta_maintainer_stmt'
p123
I3
S'p_meta_maintainer_stmt'
p124
S'/Users/cournape/src/projects/bento/bento-git/bento/parser/parser.py'
p125
I207
tp126
a(S'meta_maintainer_email_stmt -> MAINTAINER_EMAIL_ID COLON anyword'
p127
S'meta_maintainer_email_stmt'
p128
I3
S'p_meta_maintainer_email_stmt'
p129
S'/Users/cournape/src/projects/bento/bento-git/bento/parser/parser.py'
p130
I212
tp131
a(S'meta_license_stmt -> LICENSE_ID COLON anyword'
p132
S'meta_license_stmt'
p133
I3
S'p_meta_license_stmt'
p134
S'/Users/cournape/src/projects/bento/bento-git/bento/parser/parser.py'
p135
I217
tp136
a(S'meta_description_from_file_stmt -> DESCRIPTION_FROM_FILE_ID COLON anyword'
p137
S'meta_description_from_file_stmt'
p138
I3
S'p_meta_description_from_file_stmt'
p139
S'/Users/cournape/src/projects/bento/bento-git/bento/parser/parser.py'
p140
I222
tp141
a(S'meta_platforms_stmt -> PLATFORMS_ID COLON comma_list'
p142
S'meta_platforms_stmt'
p143
I3
S'p_meta_platforms_stmt'
p144
S'/Users/cournape/src/projects/bento/bento-git/bento/parser/parser.py'
p145
I226
tp146
a(S'meta_keywords_stmt -> KEYWORDS_ID COLON comma_list'
p147
S'meta_keywords_stmt'
p148
I3
S'p_meta_keywords_stmt'
p149
S'/Users/cournape/src/projects/bento/bento-git/bento/parser/parser.py'
p150
I231
tp151
a(S'meta_version_stmt -> VERSION_ID COLON version'
p152
S'meta_version_stmt'
p153
I3
S'p_meta_version_stmt'
p154
S'/Users/cournape/src/projects/bento/bento-git/bento/parser/parser.py'
p155
I236
tp156
a(S'meta_config_py_stmt -> CONFIG_PY_ID COLON word'
p157
S'meta_config_py_stmt'
p158
I3
S'p_meta_config_py_stmt'
p159
S'/Users/cournape/src/projects/bento/bento-git/bento/parser/parser.py'
p160
I241
tp161
a(S'meta_meta_template_files_stmt -> META_TEMPLATE_FILE_ID COLON word'
p162
S'meta_meta_template_files_stmt'
p163
I3
S'p_meta_meta_template_file_stmt'
p164
S'/Users/cournape/src/projects/bento/bento-git/bento/parser/parser.py'
p165
I246
tp166
a(S'meta_meta_template_files_stmt -> META_TEMPLATE_FILES_ID COLON comma_list'
p167
S'meta_meta_template_files_stmt'
p168
I3
S'p_meta_meta_template_files_stmt'
p169
S'/Users/cournape/src/projects/bento/bento-git/bento/parser/parser.py'
p170
I252
tp171
a(S'meta_classifiers_stmt -> CLASSIFIERS_ID COLON classifiers_list'
p172
S'meta_classifiers_stmt'
p173
I3
S'p_meta_classifiers_stmt'
p174
S'/Users/cournape/src/projects/bento/bento-git/bento/parser/parser.py'
p175
I257
tp176
a(S'classifiers_list -> indented_classifiers_list'
p177
S'classifiers_list'
p178
I1
S'p_classifiers_list'
p179
S'/Users/cournape/src/projects/bento/bento-git/bento/parser/parser.py'
p180
I261
tp181
a(S'classifiers_list -> classifiers'
p182
S'classifiers_list'
p183
I1
S'p_classifiers_list_term'
p184
S'/Users/cournape/src/projects/bento/bento-git/bento/parser/parser.py'
p185
I266
tp186
a(S'indented_classifiers_list -> classifiers COMMA INDENT classifiers DEDENT'
p187
S'indented_classifiers_list'
p188
I5
S'p_indented_comma_list1'
p189
S'/Users/cournape/src/projects/bento/bento-git/bento/parser/parser.py'
p190
I271
tp191
a(S'indented_classifiers_list -> INDENT classifiers DEDENT'
p192
S'indented_classifiers_list'
p193
I3
S'p_indented_comma_list2'
p194
S'/Users/cournape/src/projects/bento/bento-git/bento/parser/parser.py'
p195
I277
tp196
a(S'classifiers -> classifiers COMMA classifier'
p197
S'classifiers'
p198
I3
S'p_classifiers'
p199
S'/Users/cournape/src/projects/bento/bento-git/bento/parser/parser.py'
p200
I282
tp201
a(S'classifiers -> classifier'
p202
S'classifiers'
p203
I1
S'p_classifiers_term'
p204
S'/Users/cournape/src/projects/bento/bento-git/bento/parser/parser.py'
p205
I287
tp206
a(S'classifier -> classifier classifier_atom'
p207
S'classifier'
p208
I2
S'p_classifier'
p209
S'/Users/cournape/src/projects/bento/bento-git/bento/parser/parser.py'
p210
I291
tp211
a(S'classifier -> classifier_atom'
p212
S'classifier'
p213
I1
S'p_classifier_term'
p214
S'/Users/cournape/src/projects/bento/bento-git/bento/parser/parser.py'
p215
I295
tp216
a(S'classifier_atom -> WORD'
p217
S'classifier_atom'
p218
I1
S'p_classifier_atom'
p219
S'/Users/cournape/src/projects/bento/bento-git/bento/parser/parser.py'
p220
I299
tp221
a(S'classifier_atom -> WS'
p222
g218
I1
g219
g220
I300
tp223
a(S'classifier_atom -> DOUBLE_COLON'
p224
g218
I1
g219
g220
I301
tp225
a(S'dummy -> AND BACKSLASH'
p226
S'dummy'
p227
I2
S'p_dummy'
p228
S'/Users/cournape/src/projects/bento/bento-git/bento/parser/parser.py'
p229
I306
tp230
a(S'meta_subento_stmt -> SUBENTO_ID COLON comma_list'
p231
S'meta_subento_stmt'
p232
I3
S'p_meta_subento_stmt'
p233
S'/Users/cournape/src/projects/bento/bento-git/bento/parser/parser.py'
p234
I310
tp235
a(S'meta_use_backends_stmt -> USE_BACKENDS_ID COLON comma_list'
p236
S'meta_use_backends_stmt'
p237
I3
S'p_meta_use_backends_stmt'
p238
S'/Users/cournape/src/projects/bento/bento-git/bento/parser/parser.py'
p239
I314
tp240
a(S'meta_hook_file_stmt -> HOOK_FILE_ID COLON comma_list'
p241
S'meta_hook_file_stmt'
p242
I3
S'p_meta_hook_file_stmt'
p243
S'/Users/cournape/src/projects/bento/bento-git/bento/parser/parser.py'
p244
I318
tp245
a(S'extra_source_files -> EXTRA_SOURCE_FILES_ID COLON comma_list'
p246
S'extra_source_files'
p247
I3
S'p_extra_source_files'
p248
S'/Users/cournape/src/projects/bento/bento-git/bento/parser/parser.py'
p249
I326
tp250
a(S'data_files -> data_files_declaration INDENT data_files_stmts DEDENT'
p251
S'data_files'
p252
I4
S'p_data_files'
p253
S'/Users/cournape/src/projects/bento/bento-git/bento/parser/parser.py'
p254
I330
tp255
a(S'data_files_declaration -> DATAFILES_ID COLON word'
p256
S'data_files_declaration'
p257
I3
S'p_data_files_declaration'
p258
S'/Users/cournape/src/projects/bento/bento-git/bento/parser/parser.py'
p259
I336
tp260
a(S'data_files_stmts -> data_files_stmts data_files_stmt'
p261
S'data_files_stmts'
p262
I2
S'p_data_files_stmts'
p263
S'/Users/cournape/src/projects/bento/bento-git/bento/parser/parser.py'
p264
I340
tp265
a(S'data_files_stmts -> data_files_stmt'
p266
S'data_files_stmts'
p267
I1
S'p_data_files_stmts_term'
p268
S'/Users/cournape/src/projects/bento/bento-git/bento/parser/parser.py'
p269
I344
tp270
a(S'data_files_stmt -> data_files_target'
p271
S'data_files_stmt'
p272
I1
S'p_data_files_stmt'
p273
S'/Users/cournape/src/projects/bento/bento-git/bento/parser/parser.py'
p274
I348
tp275
a(S'data_files_stmt -> data_files_files'
p276
g272
I1
g273
g274
I349
tp277
a(S'data_files_stmt -> data_files_srcdir'
p278
g272
I1
g273
g274
I350
tp279
a(S'data_files_target -> TARGET_ID COLON anyword'
p280
S'data_files_target'
p281
I3
S'p_data_files_target'
p282
S'/Users/cournape/src/projects/bento/bento-git/bento/parser/parser.py'
p283
I355
tp284
a(S'data_files_srcdir -> SRCDIR_ID COLON anyword'
p285
S'data_files_srcdir'
p286
I3
S'p_data_files_srcdir'
p287
S'/Users/cournape/src/projects/bento/bento-git/bento/parser/parser.py'
p288
I359
tp289
a(S'data_files_files -> FILES_ID COLON comma_list'
p290
S'data_files_files'
p291
I3
S'p_data_files_files'
p292
S'/Users/cournape/src/projects/bento/bento-git/bento/parser/parser.py'
p293
I363
tp294
a(S'library -> library_declaration INDENT library_stmts DEDENT'
p295
S'library'
p296
I4
S'p_library'
p297
S'/Users/cournape/src/projects/bento/bento-git/bento/parser/parser.py'
p298
I370
tp299
a(S'library -> library_declaration'
p300
S'library'
p301
I1
S'p_library_decl_only'
p302
S'/Users/cournape/src/projects/bento/bento-git/bento/parser/parser.py'
p303
I376
tp304
a(S'library_declaration -> LIBRARY_ID COLON library_name'
p305
S'library_declaration'
p306
I3
S'p_library_declaration'
p307
S'/Users/cournape/src/projects/bento/bento-git/bento/parser/parser.py'
p308
I381
tp309
a(S'library_name -> word'
p310
S'library_name'
p311
I1
S'p_library_name'
p312
S'/Users/cournape/src/projects/bento/bento-git/bento/parser/parser.py'
p313
I385
tp314
a(S'library_name -> <empty>'
p315
g311
I0
g312
g313
I386
tp316
a(S'library_stmts -> library_stmts library_stmt'
p317
S'library_stmts'
p318
I2
S'p_library_stmts'
p319
S'/Users/cournape/src/projects/bento/bento-git/bento/parser/parser.py'
p320
I394
tp321
a(S'library_stmts -> library_stmt'
p322
S'library_stmts'
p323
I1
S'p_library_stmts_term'
p324
S'/Users/cournape/src/projects/bento/bento-git/bento/parser/parser.py'
p325
I401
tp326
a(S'library_stmt -> modules_stmt'
p327
S'library_stmt'
p328
I1
S'p_library_stmt'
p329
S'/Users/cournape/src/projects/bento/bento-git/bento/parser/parser.py'
p330
I406
tp331
a(S'library_stmt -> packages_stmt'
p332
g328
I1
g329
g330
I407
tp333
a(S'library_stmt -> extension_stmt'
p334
g328
I1
g329
g330
I408
tp335
a(S'library_stmt -> compiled_library_stmt'
p336
g328
I1
g329
g330
I409
tp337
a(S'library_stmt -> build_requires_stmt'
p338
g328
I1
g329
g330
I410
tp339
a(S'library_stmt -> install_requires_stmt'
p340
g328
I1
g329
g330
I411
tp341
a(S'library_stmt -> conditional_stmt'
p342
g328
I1
g329
g330
I412
tp343
a(S'library_stmt -> sub_directory_stmt'
p344
g328
I1
g329
g330
I413
tp345
a(S'packages_stmt -> PACKAGES_ID COLON comma_list'
p346
S'packages_stmt'
p347
I3
S'p_packages_stmt'
p348
S'/Users/cournape/src/projects/bento/bento-git/bento/parser/parser.py'
p349
I418
tp350
a(S'modules_stmt -> MODULES_ID COLON comma_list'
p351
S'modules_stmt'
p352
I3
S'p_modules_stmt'
p353
S'/Users/cournape/src/projects/bento/bento-git/bento/parser/parser.py'
p354
I422
tp355
a(S'build_requires_stmt -> BUILD_REQUIRES_ID COLON comma_list'
p356
S'build_requires_stmt'
p357
I3
S'p_build_requires_stmt'
p358
S'/Users/cournape/src/projects/bento/bento-git/bento/parser/parser.py'
p359
I426
tp360
a(S'install_requires_stmt -> INSTALL_REQUIRES_ID COLON comma_list'
p361
S'install_requires_stmt'
p362
I3
S'p_install_requires_stmt'
p363
S'/Users/cournape/src/projects/bento/bento-git/bento/parser/parser.py'
p364
I430
tp365
a(S'extension_stmt -> extension_decl INDENT extension_field_stmts DEDENT'
p366
S'extension_stmt'
p367
I4
S'p_extension_stmt_content'
p368
S'/Users/cournape/src/projects/bento/bento-git/bento/parser/parser.py'
p369
I434
tp370
a(S'extension_field_stmts -> extension_field_stmts extension_field_stmt'
p371
S'extension_field_stmts'
p372
I2
S'p_extension_field_stmts'
p373
S'/Users/cournape/src/projects/bento/bento-git/bento/parser/parser.py'
p374
I439
tp375
a(S'extension_field_stmts -> extension_field_stmt'
p376
S'extension_field_stmts'
p377
I1
S'p_extension_field_stmts_term'
p378
S'/Users/cournape/src/projects/bento/bento-git/bento/parser/parser.py'
p379
I445
tp380
a(S'extension_decl -> EXTENSION_ID COLON anyword'
p381
S'extension_decl'
p382
I3
S'p_extension_decl'
p383
S'/Users/cournape/src/projects/bento/bento-git/bento/parser/parser.py'
p384
I449
tp385
a(S'extension_field_stmt -> SOURCES_ID COLON comma_list'
p386
S'extension_field_stmt'
p387
I3
S'p_extension_sources'
p388
S'/Users/cournape/src/projects/bento/bento-git/bento/parser/parser.py'
p389
I453
tp390
a(S'extension_field_stmt -> INCLUDE_DIRS_ID COLON comma_list'
p391
S'extension_field_stmt'
p392
I3
S'p_extension_include_dirs'
p393
S'/Users/cournape/src/projects/bento/bento-git/bento/parser/parser.py'
p394
I457
tp395
a(S'compiled_library_stmt -> compiled_library_decl INDENT compiled_library_field_stmts DEDENT'
p396
S'compiled_library_stmt'
p397
I4
S'p_compiled_library_stmt_content'
p398
S'/Users/cournape/src/projects/bento/bento-git/bento/parser/parser.py'
p399
I461
tp400
a(S'compiled_library_field_stmts -> compiled_library_field_stmts compiled_library_field_stmt'
p401
S'compiled_library_field_stmts'
p402
I2
S'p_compiled_library_field_stmts'
p403
S'/Users/cournape/src/projects/bento/bento-git/bento/parser/parser.py'
p404
I466
tp405
a(S'compiled_library_field_stmts -> compiled_library_field_stmt'
p406
S'compiled_library_field_stmts'
p407
I1
S'p_compiled_library_field_stmts_term'
p408
S'/Users/cournape/src/projects/bento/bento-git/bento/parser/parser.py'
p409
I472
tp410
a(S'compiled_library_decl -> COMPILED_LIBRARY_ID COLON anyword'
p411
S'compiled_library_decl'
p412
I3
S'p_compiled_library_decl'
p413
S'/Users/cournape/src/projects/bento/bento-git/bento/parser/parser.py'
p414
I476
tp415
a(S'compiled_library_field_stmt -> SOURCES_ID COLON comma_list'
p416
S'compiled_library_field_stmt'
p417
I3
S'p_compiled_library_sources'
p418
S'/Users/cournape/src/projects/bento/bento-git/bento/parser/parser.py'
p419
I480
tp420
a(S'compiled_library_field_stmt -> INCLUDE_DIRS_ID COLON comma_list'
p421
S'compiled_library_field_stmt'
p422
I3
S'p_compiled_library_include_dirs'
p423
S'/Users/cournape/src/projects/bento/bento-git/bento/parser/parser.py'
p424
I484
tp425
a(S'sub_directory_stmt -> SUB_DIRECTORY_ID COLON word'
p426
S'sub_directory_stmt'
p427
I3
S'p_sub_directory_stmt'
p428
S'/Users/cournape/src/projects/bento/bento-git/bento/parser/parser.py'
p429
I488
tp430
a(S'in_conditional_stmts -> library_stmts'
p431
S'in_conditional_stmts'
p432
I1
S'p_in_conditional_stmts'
p433
S'/Users/cournape/src/projects/bento/bento-git/bento/parser/parser.py'
p434
I495
tp435
a(S'in_conditional_stmts -> path_stmts'
p436
g432
I1
g433
g434
I496
tp437
a(S'conditional_stmt -> IF test COLON INDENT in_conditional_stmts DEDENT'
p438
S'conditional_stmt'
p439
I6
S'p_conditional_if_only'
p440
S'/Users/cournape/src/projects/bento/bento-git/bento/parser/parser.py'
p441
I501
tp442
a(S'conditional_stmt -> IF test COLON INDENT in_conditional_stmts DEDENT ELSE COLON INDENT in_conditional_stmts DEDENT'
p443
S'conditional_stmt'
p444
I11
S'p_conditional_if_else'
p445
S'/Users/cournape/src/projects/bento/bento-git/bento/parser/parser.py'
p446
I505
tp447
a(S'test -> bool'
p448
S'test'
p449
I1
S'p_test'
p450
S'/Users/cournape/src/projects/bento/bento-git/bento/parser/parser.py'
p451
I511
tp452
a(S'test -> os_var'
p453
g449
I1
g450
g451
I512
tp454
a(S'test -> flag_var'
p455
g449
I1
g450
g451
I513
tp456
a(S'os_var -> OS_OP LPAR word RPAR'
p457
S'os_var'
p458
I4
S'p_os_var'
p459
S'/Users/cournape/src/projects/bento/bento-git/bento/parser/parser.py'
p460
I517
tp461
a(S'flag_var -> FLAG_OP LPAR word RPAR'
p462
S'flag_var'
p463
I4
S'p_flag_var'
p464
S'/Users/cournape/src/projects/bento/bento-git/bento/parser/parser.py'
p465
I521
tp466
a(S'flag_var -> NOT_OP FLAG_OP LPAR word RPAR'
p467
S'flag_var'
p468
I5
S'p_not_flag_var'
p469
S'/Users/cournape/src/projects/bento/bento-git/bento/parser/parser.py'
p470
I525
tp471
a(S'bool -> TRUE'
p472
S'bool'
p473
I1
S'p_cond_expr_true'
p474
S'/Users/cournape/src/projects/bento/bento-git/bento/parser/parser.py'
p475
I529
tp476
a(S'bool -> NOT_OP FALSE'
p477
S'bool'
p478
I2
S'p_cond_expr_true_not'
p479
S'/Users/cournape/src/projects/bento/bento-git/bento/parser/parser.py'
p480
I533
tp481
a(S'bool -> FALSE'
p482
S'bool'
p483
I1
S'p_cond_expr_false'
p484
S'/Users/cournape/src/projects/bento/bento-git/bento/parser/parser.py'
p485
I537
tp486
a(S'bool -> NOT_OP TRUE'
p487
S'bool'
p488
I2
S'p_cond_expr_false_not'
p489
S'/Users/cournape/src/projects/bento/bento-git/bento/parser/parser.py'
p490
I541
tp491
a(S'path -> path_declaration INDENT path_stmts DEDENT'
p492
S'path'
p493
I4
S'p_path'
p494
S'/Users/cournape/src/projects/bento/bento-git/bento/parser/parser.py'
p495
I548
tp496
a(S'path_declaration -> PATH_ID COLON anyword'
p497
S'path_declaration'
p498
I3
S'p_path_declaration'
p499
S'/Users/cournape/src/projects/bento/bento-git/bento/parser/parser.py'
p500
I552
tp501
a(S'path_stmts -> path_stmts path_stmt'
p502
S'path_stmts'
p503
I2
S'p_path_stmts'
p504
S'/Users/cournape/src/projects/bento/bento-git/bento/parser/parser.py'
p505
I556
tp506
a(S'path_stmts -> path_stmt'
p507
S'path_stmts'
p508
I1
S'p_path_stmts_term'
p509
S'/Users/cournape/src/projects/bento/bento-git/bento/parser/parser.py'
p510
I560
tp511
a(S'path_stmt -> path_description'
p512
S'path_stmt'
p513
I1
S'p_path_stmt'
p514
S'/Users/cournape/src/projects/bento/bento-git/bento/parser/parser.py'
p515
I564
tp516
a(S'path_stmt -> path_default'
p517
g513
I1
g514
g515
I565
tp518
a(S'path_stmt -> conditional_stmt'
p519
g513
I1
g514
g515
I566
tp520
a(S'path_description -> DESCRIPTION_ID COLON single_line_value'
p521
S'path_description'
p522
I3
S'p_path_description'
p523
S'/Users/cournape/src/projects/bento/bento-git/bento/parser/parser.py'
p524
I570
tp525
a(S'path_default -> DEFAULT_ID COLON anyword'
p526
S'path_default'
p527
I3
S'p_path_default'
p528
S'/Users/cournape/src/projects/bento/bento-git/bento/parser/parser.py'
p529
I575
tp530
a(S'flag -> flag_declaration INDENT flag_stmts DEDENT'
p531
S'flag'
p532
I4
S'p_flag'
p533
S'/Users/cournape/src/projects/bento/bento-git/bento/parser/parser.py'
p534
I582
tp535
a(S'flag_declaration -> FLAG_ID COLON anyword'
p536
S'flag_declaration'
p537
I3
S'p_flag_declaration'
p538
S'/Users/cournape/src/projects/bento/bento-git/bento/parser/parser.py'
p539
I586
tp540
a(S'flag_stmts -> flag_stmts flag_stmt'
p541
S'flag_stmts'
p542
I2
S'p_flag_stmts'
p543
S'/Users/cournape/src/projects/bento/bento-git/bento/parser/parser.py'
p544
I590
tp545
a(S'flag_stmts -> flag_stmt'
p546
S'flag_stmts'
p547
I1
S'p_flag_stmts_term'
p548
S'/Users/cournape/src/projects/bento/bento-git/bento/parser/parser.py'
p549
I594
tp550
a(S'flag_stmt -> flag_description'
p551
S'flag_stmt'
p552
I1
S'p_flag_stmt'
p553
S'/Users/cournape/src/projects/bento/bento-git/bento/parser/parser.py'
p554
I598
tp555
a(S'flag_stmt -> flag_default'
p556
g552
I1
g553
g554
I599
tp557
a(S'flag_description -> DESCRIPTION_ID COLON single_line_value'
p558
S'flag_description'
p559
I3
S'p_flag_description'
p560
S'/Users/cournape/src/projects/bento/bento-git/bento/parser/parser.py'
p561
I603
tp562
a(S'flag_default -> DEFAULT_ID COLON anyword'
p563
S'flag_default'
p564
I3
S'p_flag_default'
p565
S'/Users/cournape/src/projects/bento/bento-git/bento/parser/parser.py'
p566
I608
tp567
a(S'exec -> exec_decl INDENT exec_stmts DEDENT'
p568
S'exec'
p569
I4
S'p_executable'
p570
S'/Users/cournape/src/projects/bento/bento-git/bento/parser/parser.py'
p571
I615
tp572
a(S'exec_decl -> EXECUTABLE_ID COLON anyword'
p573
S'exec_decl'
p574
I3
S'p_exec_declaration'
p575
S'/Users/cournape/src/projects/bento/bento-git/bento/parser/parser.py'
p576
I619
tp577
a(S'exec_stmts -> exec_stmts exec_stmt'
p578
S'exec_stmts'
p579
I2
S'p_exec_stmts'
p580
S'/Users/cournape/src/projects/bento/bento-git/bento/parser/parser.py'
p581
I623
tp582
a(S'exec_stmts -> exec_stmt'
p583
S'exec_stmts'
p584
I1
S'p_exec_stmts_term'
p585
S'/Users/cournape/src/projects/bento/bento-git/bento/parser/parser.py'
p586
I627
tp587
a(S'exec_stmt -> function'
p588
S'exec_stmt'
p589
I1
S'p_exec_stmt'
p590
S'/Users/cournape/src/projects/bento/bento-git/bento/parser/parser.py'
p591
I631
tp592
a(S'exec_stmt -> module'
p593
g589
I1
g590
g591
I632
tp594
a(S'module -> MODULE_ID COLON anyword'
p595
S'module'
p596
I3
S'p_exec_module'
p597
S'/Users/cournape/src/projects/bento/bento-git/bento/parser/parser.py'
p598
I636
tp599
a(S'function -> FUNCTION_ID COLON anyword'
p600
S'function'
p601
I3
S'p_exec_function'
p602
S'/Users/cournape/src/projects/bento/bento-git/bento/parser/parser.py'
p603
I640
tp604
a(S'comma_list -> indented_comma_list'
p605
S'comma_list'
p606
I1
S'p_comma_list_indented'
p607
S'/Users/cournape/src/projects/bento/bento-git/bento/parser/parser.py'
p608
I648
tp609
a(S'comma_list -> comma_words'
p610
S'comma_list'
p611
I1
S'p_comma_list'
p612
S'/Users/cournape/src/projects/bento/bento-git/bento/parser/parser.py'
p613
I653
tp614
a(S'indented_comma_list -> comma_words COMMA INDENT comma_words DEDENT'
p615
S'indented_comma_list'
p616
I5
S'p_indented_comma_list'
p617
S'/Users/cournape/src/projects/bento/bento-git/bento/parser/parser.py'
p618
I658
tp619
a(S'indented_comma_list -> INDENT comma_words DEDENT'
p620
S'indented_comma_list'
p621
I3
S'p_indented_comma_list_term'
p622
S'/Users/cournape/src/projects/bento/bento-git/bento/parser/parser.py'
p623
I664
tp624
a(S'comma_words -> comma_words COMMA anyword_comma_list'
p625
S'comma_words'
p626
I3
S'p_comma_words'
p627
S'/Users/cournape/src/projects/bento/bento-git/bento/parser/parser.py'
p628
I669
tp629
a(S'comma_words -> anyword_comma_list'
p630
S'comma_words'
p631
I1
S'p_comma_words_term'
p632
S'/Users/cournape/src/projects/bento/bento-git/bento/parser/parser.py'
p633
I675
tp634
a(S'single_line_value -> WS single_line'
p635
S'single_line_value'
p636
I2
S'p_single_line'
p637
S'/Users/cournape/src/projects/bento/bento-git/bento/parser/parser.py'
p638
I680
tp639
a(S'single_line_value -> single_line'
p640
S'single_line_value'
p641
I1
S'p_single_line_no_space'
p642
S'/Users/cournape/src/projects/bento/bento-git/bento/parser/parser.py'
p643
I684
tp644
a(S'single_line -> single_line literal'
p645
S'single_line'
p646
I2
S'p_single_line_string'
p647
S'/Users/cournape/src/projects/bento/bento-git/bento/parser/parser.py'
p648
I688
tp649
a(S'single_line -> literal_no_space'
p650
S'single_line'
p651
I1
S'p_single_line_string_term'
p652
S'/Users/cournape/src/projects/bento/bento-git/bento/parser/parser.py'
p653
I692
tp654
a(S'meta_description_stmt -> description_decl single_line_newline INDENT multi_stmts DEDENT'
p655
S'meta_description_stmt'
p656
I5
S'p_meta_description_stmt_start_same_line'
p657
S'/Users/cournape/src/projects/bento/bento-git/bento/parser/parser.py'
p658
I696
tp659
a(S'meta_description_stmt -> description_decl NEWLINE INDENT multi_stmts DEDENT'
p660
S'meta_description_stmt'
p661
I5
S'p_meta_description_stmt_indented_block'
p662
S'/Users/cournape/src/projects/bento/bento-git/bento/parser/parser.py'
p663
I702
tp664
a(S'meta_description_stmt -> description_decl WS NEWLINE INDENT multi_stmts DEDENT'
p665
S'meta_description_stmt'
p666
I6
S'p_meta_description_stmt_indented_block2'
p667
S'/Users/cournape/src/projects/bento/bento-git/bento/parser/parser.py'
p668
I708
tp669
a(S'meta_description_stmt -> description_decl single_line_value'
p670
S'meta_description_stmt'
p671
I2
S'p_meta_description_stmt_single'
p672
S'/Users/cournape/src/projects/bento/bento-git/bento/parser/parser.py'
p673
I714
tp674
a(S'single_line_newline -> single_line_value newline'
p675
S'single_line_newline'
p676
I2
S'p_single_line_newline'
p677
S'/Users/cournape/src/projects/bento/bento-git/bento/parser/parser.py'
p678
I719
tp679
a(S'description_decl -> DESCRIPTION_ID COLON'
p680
S'description_decl'
p681
I2
S'p_description_decl'
p682
S'/Users/cournape/src/projects/bento/bento-git/bento/parser/parser.py'
p683
I724
tp684
a(S'indented_block -> indent indented_block_value'
p685
S'indented_block'
p686
I2
S'p_indented_block'
p687
S'/Users/cournape/src/projects/bento/bento-git/bento/parser/parser.py'
p688
I728
tp689
a(S'indented_block_value -> multi_stmts dedent'
p690
S'indented_block_value'
p691
I2
S'p_indented_block_value'
p692
S'/Users/cournape/src/projects/bento/bento-git/bento/parser/parser.py'
p693
I732
tp694
a(S'multi_stmts -> multi_stmt multi_stmts'
p695
S'multi_stmts'
p696
I2
S'p_multi_stmts'
p697
S'/Users/cournape/src/projects/bento/bento-git/bento/parser/parser.py'
p698
I736
tp699
a(S'multi_stmts -> multi_stmt'
p700
S'multi_stmts'
p701
I1
S'p_multi_stmts_term'
p702
S'/Users/cournape/src/projects/bento/bento-git/bento/parser/parser.py'
p703
I740
tp704
a(S'multi_stmt -> indented_block'
p705
S'multi_stmt'
p706
I1
S'p_multi_stmt_ind_block'
p707
S'/Users/cournape/src/projects/bento/bento-git/bento/parser/parser.py'
p708
I744
tp709
a(S'multi_stmt -> multi_literal'
p710
S'multi_stmt'
p711
I1
S'p_multi_stmt_term'
p712
S'/Users/cournape/src/projects/bento/bento-git/bento/parser/parser.py'
p713
I748
tp714
a(S'newline -> NEWLINE'
p715
S'newline'
p716
I1
S'p_newline'
p717
S'/Users/cournape/src/projects/bento/bento-git/bento/parser/parser.py'
p718
I752
tp719
a(S'anyword -> anyword literal'
p720
S'anyword'
p721
I2
S'p_anyword'
p722
S'/Users/cournape/src/projects/bento/bento-git/bento/parser/parser.py'
p723
I757
tp724
a(S'anyword -> literal'
p725
S'anyword'
p726
I1
S'p_anyword_term'
p727
S'/Users/cournape/src/projects/bento/bento-git/bento/parser/parser.py'
p728
I761
tp729
a(S'anyword_comma_list -> anyword_comma_list anytoken_no_comma'
p730
S'anyword_comma_list'
p731
I2
S'p_anyword_comma_list'
p732
S'/Users/cournape/src/projects/bento/bento-git/bento/parser/parser.py'
p733
I765
tp734
a(S'anyword_comma_list -> anytoken_no_comma'
p735
S'anyword_comma_list'
p736
I1
S'p_anyword_comma_list_term'
p737
S'/Users/cournape/src/projects/bento/bento-git/bento/parser/parser.py'
p738
I769
tp739
a(S'anytoken_no_comma -> WORD'
p740
S'anytoken_no_comma'
p741
I1
S'p_anytoken_no_comma'
p742
S'/Users/cournape/src/projects/bento/bento-git/bento/parser/parser.py'
p743
I774
tp744
a(S'anytoken_no_comma -> COLON'
p745
g741
I1
g742
g743
I775
tp746
a(S'anytoken_no_comma -> DOUBLE_COLON'
p747
g741
I1
g742
g743
I776
tp748
a(S'anytoken_no_comma -> LPAR'
p749
g741
I1
g742
g743
I777
tp750
a(S'anytoken_no_comma -> RPAR'
p751
g741
I1
g742
g743
I778
tp752
a(S'anytoken_no_comma -> LESS'
p753
g741
I1
g742
g743
I779
tp754
a(S'anytoken_no_comma -> SLASH'
p755
g741
I1
g742
g743
I780
tp756
a(S'anytoken_no_comma -> SHARP'
p757
g741
I1
g742
g743
I781
tp758
a(S'anytoken_no_comma -> EQUAL'
p759
g741
I1
g742
g743
I782
tp760
a(S'anytoken_no_comma -> GREATER'
p761
g741
I1
g742
g743
I783
tp762
a(S'literal_no_space -> anytoken_no_comma'
p763
S'literal_no_space'
p764
I1
S'p_literal_no_space'
p765
S'/Users/cournape/src/projects/bento/bento-git/bento/parser/parser.py'
p766
I788
tp767
a(S'literal_no_space -> COMMA'
p768
S'literal_no_space'
p769
I1
S'p_literal_no_space_term'
p770
S'/Users/cournape/src/projects/bento/bento-git/bento/parser/parser.py'
p771
I793
tp772
a(S'literal -> literal_no_space'
p773
S'literal'
p774
I1
S'p_literal'
p775
S'/Users/cournape/src/projects/bento/bento-git/bento/parser/parser.py'
p776
I798
tp777
a(S'literal -> WS'
p778
S'literal'
p779
I1
S'p_literal_term'
p780
S'/Users/cournape/src/projects/bento/bento-git/bento/parser/parser.py'
p781
I803
tp782
a(S'multi_literal -> literal'
p783
S'multi_literal'
p784
I1
S'p_multi_literal'
p785
S'/Users/cournape/src/projects/bento/bento-git/bento/parser/parser.py'
p786
I808
tp787
a(S'multi_literal -> newline'
p788
S'multi_literal'
p789
I1
S'p_multi_literal2'
p790
S'/Users/cournape/src/projects/bento/bento-git/bento/parser/parser.py'
p791
I813
tp792
a(S'indent -> INDENT'
p793
S'indent'
p794
I1
S'p_indent'
p795
S'/Users/cournape/src/projects/bento/bento-git/bento/parser/parser.py'
p796
I818
tp797
a(S'dedent -> DEDENT'
p798
S'dedent'
p799
I1
S'p_dedent'
p800
S'/Users/cournape/src/projects/bento/bento-git/bento/parser/parser.py'
p801
I823
tp802
a(S'word -> WORD'
p803
S'word'
p804
I1
S'p_word'
p805
S'/Users/cournape/src/projects/bento/bento-git/bento/parser/parser.py'
p806
I828
tp807
a(S'version -> WORD'
p808
S'version'
p809
I1
S'p_version'
p810
S'/Users/cournape/src/projects/bento/bento-git/bento/parser/parser.py'
p811
I832
tp812
a.