(dp0
(S'X'
p1
S'Z'
p2
tp3
I0
s(S'0'
p4
S'x'
p5
tp6
I-20
s(S'z'
p7
S'h'
p8
tp9
I1
s(S'd'
p10
S'q'
p11
tp12
I0
s(g5
S'g'
p13
tp14
I5
s(g11
S'C'
p15
tp16
I0
s(S'S'
p17
S'p'
p18
tp19
I0
s(S'k'
p20
S'N'
p21
tp22
I2
s(g8
S'E'
p23
tp24
I-19
s(S'c'
p25
S'n'
p26
tp27
I0
s(g23
g25
tp28
I-19
s(S'v'
p29
S'_'
p30
tp31
I-50
s(S'r'
p32
g18
tp33
I0
s(g11
S'5'
p34
tp35
I-20
s(S'I'
p36
g30
tp37
I-50
s(S'8'
p38
g15
tp39
I0
s(g13
g18
tp40
I0
s(S'f'
p41
g25
tp42
I0
s(g36
g5
tp43
I-19
s(S'T'
p44
S'4'
p45
tp46
I-20
s(g11
g23
tp47
I-19
s(S'l'
p48
g21
tp49
I1
s(g1
S'm'
p50
tp51
I0
s(S'i'
p52
g30
tp53
I-50
s(g44
S'e'
p54
tp55
I-19
s(g5
g44
tp56
I0
s(S'o'
p57
g44
tp58
I-19
s(g8
S'w'
p59
tp60
I2
s(g45
S'j'
p61
tp62
I-20
s(g57
S'u'
p63
tp64
I17
s(g34
g50
tp65
I-20
s(g50
g8
tp66
I0
s(g44
S'2'
p67
tp68
I-20
s(g11
g4
tp69
I-20
s(g11
S'G'
p70
tp71
I6
s(g17
g48
tp72
I0
s(S'3'
p73
g38
tp74
I-20
s(g4
S't'
p75
tp76
I-20
s(g32
S'1'
p77
tp78
I-20
s(g8
g36
tp79
I-19
s(g10
g73
tp80
I-20
s(S'b'
p81
g44
tp82
I0
s(g10
g38
tp83
I10
s(g67
g5
tp84
I-20
s(g32
g81
tp85
I0
s(S'L'
p86
g52
tp87
I-19
s(S'y'
p88
S'+'
p89
tp90
I-20
s(g10
g30
tp91
I-50
s(g4
g32
tp92
I-20
s(S'a'
p93
g21
tp94
I-19
s(g61
g44
tp95
I10
s(g13
g75
tp96
I0
s(g18
g15
tp97
I0
s(g45
g26
tp98
I-20
s(g11
g67
tp99
I-20
s(g1
g11
tp100
I0
s(g89
g77
tp101
I-20
s(g29
g57
tp102
I-19
s(g23
g38
tp103
I-19
s(g5
g26
tp104
I1
s(g4
g18
tp105
I-20
s(g93
g59
tp106
I-19
s(g26
g59
tp107
I0
s(g15
g8
tp108
I3
s(g30
g36
tp109
I-50
s(g10
g88
tp110
I1
s(S'7'
p111
g77
tp112
I-20
s(S's'
p113
g13
tp114
I0
s(g11
g45
tp115
I-20
s(g17
g8
tp116
I3
s(g48
S'H'
p117
tp118
I1
s(g17
g61
tp119
I1
s(g2
g32
tp120
I4
s(g23
g86
tp121
I-19
s(g45
g23
tp122
I-20
s(g17
g67
tp123
I-20
s(g73
g73
tp124
I10
s(g20
g93
tp125
I-19
s(g89
g25
tp126
I-20
s(g117
g93
tp127
I-19
s(g21
g88
tp128
I2
s(g52
g25
tp129
I-19
s(g36
g20
tp130
I-19
s(g18
g63
tp131
I-19
s(g44
g13
tp132
I2
s(g63
g117
tp133
I-19
s(g1
g63
tp134
I0
s(g117
g67
tp135
I-20
s(g45
g38
tp136
I-20
s(g2
g75
tp137
I0
s(g61
g81
tp138
I0
s(g20
g5
tp139
I7
s(g15
g89
tp140
I-20
s(g2
g26
tp141
I0
s(g63
g73
tp142
I-20
s(g15
g10
tp143
I2
s(g111
g75
tp144
I4
s(g7
g29
tp145
I0
s(g5
g113
tp146
I2
s(g17
g10
tp147
I0
s(g38
g38
tp148
I40
s(g36
g34
tp149
I-20
s(g70
g5
tp150
I21
s(g41
g17
tp151
I0
s(g117
g17
tp152
I0
s(g25
g18
tp153
I0
s(g30
g57
tp154
I-50
s(g4
g61
tp155
I-20
s(g21
g20
tp156
I2
s(g29
g5
tp157
I4
s(g2
g29
tp158
I0
s(g25
g57
tp159
I-19
s(g1
g88
tp160
I0
s(g8
g81
tp161
I1
s(g61
g20
tp162
I0
s(g50
g113
tp163
I0
s(g21
g73
tp164
I-20
s(g61
g75
tp165
I3
s(g5
g29
tp166
I4
s(g61
g41
tp167
I0
s(g75
g26
tp168
I1
s(g4
g8
tp169
I-20
s(g32
g70
tp170
I14
s(g93
g1
tp171
I0
s(g8
g45
tp172
I-20
s(g34
g88
tp173
I-20
s(g73
g23
tp174
I-20
s(g5
g93
tp175
I-19
s(g52
g52
tp176
I20
s(g18
g2
tp177
I0
s(g93
g77
tp178
I-20
s(g23
g17
tp179
I-19
s(g5
g77
tp180
I-20
s(g59
g17
tp181
I0
s(g26
g67
tp182
I-20
s(g34
g23
tp183
I-20
s(g93
g2
tp184
I-19
s(g41
g44
tp185
I0
s(g113
g5
tp186
I2
s(g36
g8
tp187
I-19
s(g61
g34
tp188
I-20
s(g8
g18
tp189
I4
s(g18
g50
tp190
I1
s(g8
g41
tp191
I5
s(g41
g81
tp192
I4
s(g41
g86
tp193
I0
s(g44
g7
tp194
I4
s(g32
g88
tp195
I4
s(g5
g7
tp196
I0
s(g61
g2
tp197
I16
s(g8
g38
tp198
I2
s(g34
g1
tp199
I-20
s(g5
g54
tp200
I-19
s(g45
g7
tp201
I-20
s(g50
g1
tp202
I0
s(g26
g61
tp203
I1
s(g36
g67
tp204
I-20
s(g30
g50
tp205
I-50
s(g15
g50
tp206
I0
s(g4
g21
tp207
I-20
s(g61
g11
tp208
I0
s(g29
g89
tp209
I-20
s(g18
g30
tp210
I-50
s(g4
g15
tp211
I-20
s(g89
g88
tp212
I-20
s(g41
g75
tp213
I1
s(g10
g75
tp214
I12
s(g70
g59
tp215
I0
s(g29
g50
tp216
I1
s(g86
g44
tp217
I3
s(g13
g10
tp218
I2
s(g18
g113
tp219
I0
s(g88
g30
tp220
I-50
s(g15
g93
tp221
I-19
s(g25
g67
tp222
I-20
s(g59
g117
tp223
I0
s(g50
g20
tp224
I0
s(g32
g20
tp225
I0
s(g5
g8
tp226
I16
s(g44
g61
tp227
I10
s(g17
g1
tp228
I0
s(g48
g38
tp229
I4
s(g52
g89
tp230
I-20
s(g57
g70
tp231
I-19
s(g117
g30
tp232
I-50
s(g67
g81
tp233
I-20
s(g111
g70
tp234
I3
s(g59
g45
tp235
I-20
s(g21
g50
tp236
I2
s(g117
g7
tp237
I0
s(g36
g86
tp238
I-19
s(g89
g17
tp239
I-20
s(g81
g36
tp240
I-19
s(g21
g86
tp241
I0
s(g21
g36
tp242
I-19
s(g63
g21
tp243
I-19
s(g77
g88
tp244
I-20
s(g18
g54
tp245
I-19
s(g34
g59
tp246
I-20
s(g50
g63
tp247
I-19
s(g63
g1
tp248
I0
s(g1
g23
tp249
I0
s(g21
g34
tp250
I-20
s(g34
g25
tp251
I-20
s(g57
g73
tp252
I-20
s(g67
g10
tp253
I-20
s(g111
g23
tp254
I-19
s(g70
g4
tp255
I-20
s(g20
g8
tp256
I4
s(g2
g93
tp257
I-19
s(g70
g52
tp258
I-19
s(g73
g88
tp259
I-20
s(g59
g26
tp260
I0
s(g5
g50
tp261
I0
s(g67
g30
tp262
I-50
s(g75
g54
tp263
I-19
s(g17
g44
tp264
I2
s(g48
g45
tp265
I-20
s(g15
g113
tp266
I6
s(g117
g15
tp267
I0
s(g88
g75
tp268
I0
s(g7
g20
tp269
I0
s(g20
g57
tp270
I-19
s(g88
g15
tp271
I1
s(g30
g30
tp272
I0
s(g10
g59
tp273
I0
s(g2
g25
tp274
I2
s(g41
g117
tp275
I0
s(g29
g54
tp276
I-19
s(g113
g48
tp277
I1
s(g18
g20
tp278
I0
s(g88
g13
tp279
I1
s(g29
g117
tp280
I0
s(g11
g93
tp281
I-19
s(g1
g36
tp282
I0
s(g52
g10
tp283
I-19
s(g81
g21
tp284
I0
s(g67
g8
tp285
I-20
s(g5
g18
tp286
I0
s(g13
g70
tp287
I3
s(g70
g45
tp288
I-20
s(g70
g50
tp289
I0
s(g70
g89
tp290
I-20
s(g45
g25
tp291
I-20
s(g11
g25
tp292
I0
s(g38
g86
tp293
I0
s(g13
g1
tp294
I0
s(g23
g15
tp295
I-19
s(g67
g61
tp296
I-20
s(g75
g77
tp297
I-20
s(g111
g30
tp298
I-50
s(g7
g57
tp299
I-19
s(g41
g2
tp300
I0
s(g7
g11
tp301
I0
s(g29
g93
tp302
I-19
s(g38
g25
tp303
I3
s(g86
g117
tp304
I0
s(g21
g10
tp305
I1
s(g11
g54
tp306
I-19
s(g50
g50
tp307
I40
s(g81
g25
tp308
I0
s(g111
g67
tp309
I-20
s(g34
g20
tp310
I-20
s(g73
g32
tp311
I-20
s(g5
g45
tp312
I-20
s(g5
g75
tp313
I1
s(g18
g77
tp314
I-20
s(g54
g30
tp315
I-50
s(g4
g17
tp316
I-20
s(g8
g93
tp317
I-19
s(g26
g88
tp318
I1
s(g59
g57
tp319
I-19
s(g59
g41
tp320
I3
s(g50
g117
tp321
I1
s(g11
g13
tp322
I2
s(g17
g86
tp323
I0
s(g54
g117
tp324
I-19
s(g52
g61
tp325
I-19
s(g10
g17
tp326
I0
s(g81
g75
tp327
I0
s(g57
g2
tp328
I-19
s(g10
g1
tp329
I0
s(g63
g10
tp330
I-19
s(g36
g11
tp331
I-19
s(g89
g52
tp332
I-20
s(g7
g63
tp333
I-19
s(g93
g26
tp334
I-19
s(g77
g117
tp335
I-20
s(g59
g50
tp336
I1
s(g113
g10
tp337
I1
s(g38
g67
tp338
I-20
s(g61
g111
tp339
I0
s(g18
g25
tp340
I0
s(g23
g50
tp341
I-19
s(g54
g5
tp342
I-19
s(g59
g89
tp343
I-20
s(g15
g4
tp344
I-20
s(g13
g86
tp345
I0
s(g57
g1
tp346
I0
s(g67
g18
tp347
I-20
s(g26
g20
tp348
I0
s(g13
g29
tp349
I1
s(g81
g4
tp350
I-20
s(g41
g59
tp351
I3
s(g73
g50
tp352
I-20
s(g15
g117
tp353
I0
s(g59
g7
tp354
I1
s(g5
g88
tp355
I2
s(g54
g2
tp356
I-19
s(g11
g44
tp357
I0
s(g17
g117
tp358
I0
s(g4
g26
tp359
I-20
s(g32
g75
tp360
I3
s(g67
g32
tp361
I-20
s(g41
g50
tp362
I0
s(g117
g75
tp363
I0
s(g2
g38
tp364
I0
s(g89
g67
tp365
I-20
s(g20
g45
tp366
I-20
s(g117
g61
tp367
I0
s(g81
g67
tp368
I-20
s(g50
g89
tp369
I-20
s(g93
g45
tp370
I-20
s(g77
g86
tp371
I-20
s(g89
g15
tp372
I-20
s(g81
g88
tp373
I0
s(g52
g15
tp374
I-19
s(g44
g29
tp375
I0
s(g117
g111
tp376
I0
s(g93
g17
tp377
I-19
s(g50
g54
tp378
I-19
s(g73
g61
tp379
I-20
s(g67
g75
tp380
I-20
s(g50
g7
tp381
I0
s(g2
g44
tp382
I9
s(g20
g1
tp383
I0
s(g54
g11
tp384
I-19
s(g15
g29
tp385
I0
s(g25
g111
tp386
I0
s(g26
g41
tp387
I0
s(g59
g13
tp388
I0
s(g32
g34
tp389
I-20
s(g111
g44
tp390
I0
s(g26
g18
tp391
I0
s(g75
g63
tp392
I-19
s(g32
g41
tp393
I0
s(g38
g1
tp394
I0
s(g20
g113
tp395
I1
s(g70
g1
tp396
I0
s(g4
g29
tp397
I-20
s(g117
g113
tp398
I0
s(g67
g29
tp399
I-20
s(g29
g73
tp400
I-20
s(g1
g32
tp401
I0
s(g18
g70
tp402
I0
s(g41
g21
tp403
I0
s(g2
g113
tp404
I1
s(g93
g41
tp405
I-19
s(g29
g63
tp406
I-4
s(g59
g54
tp407
I-19
s(g38
g57
tp408
I-19
s(g25
g50
tp409
I1
s(g77
g32
tp410
I-20
s(g29
g1
tp411
I0
s(g21
g111
tp412
I1
s(g81
g111
tp413
I1
s(g93
g70
tp414
I-19
s(g7
g73
tp415
I-20
s(g77
g113
tp416
I-20
s(g73
g41
tp417
I-20
s(g50
g17
tp418
I0
s(g10
g21
tp419
I1
s(g45
g89
tp420
I-20
s(g13
g59
tp421
I0
s(g8
g50
tp422
I0
s(g75
g21
tp423
I1
s(g15
g32
tp424
I2
s(g93
g5
tp425
I-19
s(g25
g44
tp426
I6
s(g73
g54
tp427
I-20
s(g59
g32
tp428
I1
s(g52
g36
tp429
I16
s(g113
g67
tp430
I-20
s(g30
g32
tp431
I-50
s(g44
g18
tp432
I0
s(g18
g7
tp433
I0
s(g45
g113
tp434
I-20
s(g75
g45
tp435
I-20
s(g13
g117
tp436
I0
s(g30
g89
tp437
I-50
s(g57
g30
tp438
I-50
s(g15
g30
tp439
I-50
s(g67
g7
tp440
I-20
s(g86
g67
tp441
I-20
s(g44
g73
tp442
I-20
s(g36
g57
tp443
I14
s(g93
g7
tp444
I-19
s(g70
g17
tp445
I0
s(g29
g11
tp446
I0
s(g21
g75
tp447
I1
s(g77
g29
tp448
I-20
s(g30
g18
tp449
I-50
s(g26
g50
tp450
I3
s(g11
g30
tp451
I-50
s(g50
g32
tp452
I0
s(g86
g4
tp453
I-20
s(g44
g77
tp454
I-20
s(g54
g88
tp455
I-19
s(g111
g20
tp456
I9
s(g73
g93
tp457
I-20
s(g34
g38
tp458
I-20
s(g45
g2
tp459
I-20
s(g54
g21
tp460
I-19
s(g52
g4
tp461
I-20
s(g81
g10
tp462
I1
s(g57
g61
tp463
I-19
s(g29
g67
tp464
I-20
s(g41
g93
tp465
I-19
s(g63
g75
tp466
I-19
s(g17
g88
tp467
I1
s(g36
g93
tp468
I16
s(g23
g11
tp469
I-19
s(g111
g52
tp470
I-19
s(g26
g73
tp471
I-20
s(g73
g44
tp472
I-20
s(g38
g59
tp473
I0
s(g86
g75
tp474
I3
s(g52
g5
tp475
I-19
s(g26
g30
tp476
I-50
s(g20
g32
tp477
I0
s(g7
g61
tp478
I8
s(g75
g61
tp479
I3
s(g4
g48
tp480
I-20
s(g57
g8
tp481
I-19
s(g77
g4
tp482
I5
s(g13
g41
tp483
I0
s(g93
g18
tp484
I-19
s(g89
g7
tp485
I-20
s(g45
g50
tp486
I-20
s(g1
g89
tp487
I-5
s(g18
g32
tp488
I0
s(g1
g4
tp489
I-20
s(g17
g38
tp490
I3
s(g38
g10
tp491
I10
s(g117
g36
tp492
I-19
s(g21
g93
tp493
I-19
s(g57
g13
tp494
I-19
s(g63
g41
tp495
I-6
s(g38
g45
tp496
I-20
s(g13
g50
tp497
I0
s(g86
g34
tp498
I-20
s(g63
g18
tp499
I-19
s(g17
g63
tp500
I-19
s(g36
g48
tp501
I-19
s(g34
g10
tp502
I-20
s(g93
g32
tp503
I-19
s(g73
g25
tp504
I-20
s(g89
g73
tp505
I-20
s(g81
g52
tp506
I-19
s(g25
g93
tp507
I-19
s(g117
g77
tp508
I-20
s(g88
g86
tp509
I3
s(g63
g13
tp510
I-19
s(g38
g77
tp511
I-20
s(g26
g38
tp512
I0
s(g34
g15
tp513
I-20
s(g2
g50
tp514
I0
s(g45
g8
tp515
I-20
s(g77
g45
tp516
I5
s(g54
g59
tp517
I-19
s(g50
g61
tp518
I1
s(g26
g10
tp519
I4
s(g20
g117
tp520
I0
s(g48
g13
tp521
I3
s(g111
g25
tp522
I0
s(g70
g36
tp523
I-19
s(g63
g25
tp524
I-19
s(g59
g21
tp525
I0
s(g75
g23
tp526
I-19
s(g117
g44
tp527
I0
s(g1
g45
tp528
I-20
s(g17
g45
tp529
I-20
s(g75
g67
tp530
I-20
s(g36
g23
tp531
I15
s(g2
g57
tp532
I-19
s(g15
g17
tp533
I3
s(g61
g36
tp534
I-19
s(g10
g18
tp535
I0
s(g89
g93
tp536
I-20
s(g17
g11
tp537
I0
s(g18
g59
tp538
I2
s(g88
g25
tp539
I2
s(g2
g15
tp540
I2
s(g111
g93
tp541
I-19
s(g41
g8
tp542
I5
s(g29
g23
tp543
I-19
s(g70
g61
tp544
I0
s(g30
g41
tp545
I-50
s(g32
g57
tp546
I-19
s(g38
g34
tp547
I-20
s(g54
g73
tp548
I-20
s(g61
g25
tp549
I8
s(g50
g15
tp550
I0
s(g57
g18
tp551
I-19
s(g67
g117
tp552
I-20
s(g117
g86
tp553
I0
s(g41
g73
tp554
I-20
s(g44
g10
tp555
I5
s(g25
g10
tp556
I3
s(g86
g61
tp557
I0
s(g54
g32
tp558
I-19
s(g1
g73
tp559
I-20
s(g18
g61
tp560
I0
s(g45
g15
tp561
I-20
s(g1
g38
tp562
I0
s(g17
g4
tp563
I-20
s(g38
g48
tp564
I4
s(g13
g5
tp565
I5
s(g57
g57
tp566
I20
s(g57
g113
tp567
I-19
s(g17
g50
tp568
I0
s(g88
g4
tp569
I-20
s(g113
g7
tp570
I10
s(g32
g4
tp571
I-20
s(g44
g81
tp572
I0
s(g73
g117
tp573
I-20
s(g117
g10
tp574
I0
s(g32
g93
tp575
I-19
s(g86
g8
tp576
I3
s(g13
g4
tp577
I-20
s(g70
g26
tp578
I0
s(g44
g88
tp579
I3
s(g7
g44
tp580
I4
s(g113
g23
tp581
I-19
s(g45
g81
tp582
I-20
s(g67
g86
tp583
I-20
s(g77
g44
tp584
I-20
s(g50
g81
tp585
I2
s(g77
g36
tp586
I-20
s(g34
g111
tp587
I-20
s(g8
g111
tp588
I6
s(g34
g41
tp589
I-20
s(g57
g34
tp590
I-20
s(g1
g111
tp591
I0
s(g11
g18
tp592
I0
s(g54
g8
tp593
I-19
s(g41
g13
tp594
I0
s(g10
g113
tp595
I1
s(g57
g7
tp596
I-19
s(g10
g5
tp597
I1
s(g17
g52
tp598
I-19
s(g34
g77
tp599
I5
s(g18
g57
tp600
I-19
s(g88
g20
tp601
I0
s(g23
g93
tp602
I18
s(g89
g36
tp603
I-20
s(g113
g111
tp604
I1
s(g23
g81
tp605
I-19
s(g77
g8
tp606
I-20
s(g13
g45
tp607
I-20
s(g25
g13
tp608
I2
s(g11
g32
tp609
I0
s(g20
g81
tp610
I0
s(g111
g5
tp611
I4
s(g75
g7
tp612
I0
s(g57
g5
tp613
I-19
s(g10
g41
tp614
I1
s(g23
g5
tp615
I-19
s(g18
g1
tp616
I0
s(g18
g21
tp617
I0
s(g93
g111
tp618
I-19
s(g86
g50
tp619
I0
s(g89
g61
tp620
I-20
s(g111
g63
tp621
I-19
s(g59
g2
tp622
I0
s(g88
g2
tp623
I7
s(g54
g7
tp624
I-19
s(g20
g88
tp625
I0
s(g18
g81
tp626
I10
s(g11
g75
tp627
I1
s(g50
g77
tp628
I-20
s(g77
g10
tp629
I-20
s(g117
g88
tp630
I1
s(g21
g11
tp631
I0
s(g32
g44
tp632
I2
s(g63
g29
tp633
I-4
s(g117
g57
tp634
I-19
s(g89
g89
tp635
I0
s(g17
g54
tp636
I-19
s(g23
g7
tp637
I-19
s(g45
g4
tp638
I5
s(g86
g20
tp639
I0
s(g77
g17
tp640
I-20
s(g25
g11
tp641
I0
s(g88
g77
tp642
I-20
s(g93
g86
tp643
I-19
s(g93
g113
tp644
I-19
s(g11
g29
tp645
I0
s(g63
g89
tp646
I-20
s(g50
g23
tp647
I-19
s(g67
g44
tp648
I-20
s(g45
g5
tp649
I-20
s(g89
g63
tp650
I-20
s(g50
g2
tp651
I0
s(g20
g89
tp652
I-20
s(g75
g52
tp653
I-19
s(g15
g20
tp654
I2
s(g59
g70
tp655
I0
s(g63
g113
tp656
I-19
s(g7
g15
tp657
I1
s(g111
g45
tp658
I-20
s(g54
g41
tp659
I-19
s(g93
g63
tp660
I12
s(g5
g73
tp661
I-20
s(g38
g5
tp662
I0
s(g20
g17
tp663
I1
s(g11
g88
tp664
I0
s(g25
g4
tp665
I-20
s(g17
g93
tp666
I-19
s(g8
g7
tp667
I1
s(g18
g13
tp668
I0
s(g41
g26
tp669
I0
s(g2
g17
tp670
I2
s(g21
g89
tp671
I-20
s(g13
g30
tp672
I-50
s(g2
g88
tp673
I7
s(g86
g73
tp674
I-20
s(g75
g41
tp675
I1
s(g29
g38
tp676
I0
s(g113
g88
tp677
I1
s(g111
g18
tp678
I0
s(g52
g93
tp679
I14
s(g44
g15
tp680
I19
s(g10
g26
tp681
I4
s(g61
g45
tp682
I-20
s(g89
g29
tp683
I-20
s(g25
g41
tp684
I0
s(g23
g20
tp685
I-19
s(g15
g13
tp686
I0
s(g25
g75
tp687
I5
s(g15
g86
tp688
I0
s(g41
g67
tp689
I-20
s(g88
g81
tp690
I0
s(g32
g5
tp691
I6
s(g45
g17
tp692
I-20
s(g4
g113
tp693
I-20
s(g13
g8
tp694
I3
s(g67
g2
tp695
I-20
s(g21
g8
tp696
I1
s(g44
g50
tp697
I0
s(g113
g89
tp698
I-20
s(g61
g18
tp699
I0
s(g34
g75
tp700
I-20
s(g21
g44
tp701
I0
s(g26
g93
tp702
I-19
s(g8
g4
tp703
I-20
s(g38
g36
tp704
I-19
s(g45
g32
tp705
I-20
s(g73
g59
tp706
I-20
s(g63
g67
tp707
I-20
s(g41
g30
tp708
I-50
s(g88
g88
tp709
I40
s(g32
g61
tp710
I1
s(g86
g93
tp711
I-19
s(g59
g38
tp712
I0
s(g54
g26
tp713
I-19
s(g7
g50
tp714
I0
s(g89
g44
tp715
I-20
s(g36
g32
tp716
I-19
s(g29
g17
tp717
I0
s(g61
g77
tp718
I-20
s(g63
g44
tp719
I-19
s(g41
g4
tp720
I-20
s(g111
g36
tp721
I-19
s(g26
g17
tp722
I1
s(g73
g75
tp723
I-20
s(g13
g21
tp724
I2
s(g52
g1
tp725
I0
s(g10
g23
tp726
I-19
s(g8
g25
tp727
I1
s(g32
g89
tp728
I-20
s(g20
g25
tp729
I1
s(g48
g59
tp730
I0
s(g23
g8
tp731
I-19
s(g18
g117
tp732
I0
s(g30
g29
tp733
I-50
s(g75
g4
tp734
I-20
s(g41
g23
tp735
I-19
s(g89
g2
tp736
I-20
s(g21
g63
tp737
I-19
s(g111
g61
tp738
I0
s(g20
g52
tp739
I-19
s(g89
g4
tp740
I-20
s(g89
g20
tp741
I-20
s(g61
g15
tp742
I1
s(g4
g41
tp743
I-20
s(g52
g20
tp744
I-19
s(g70
g113
tp745
I2
s(g2
g8
tp746
I0
s(g59
g75
tp747
I0
s(g88
g117
tp748
I1
s(g2
g34
tp749
I-20
s(g30
g75
tp750
I-50
s(g61
g8
tp751
I1
s(g73
g18
tp752
I-20
s(g38
g41
tp753
I0
s(g88
g48
tp754
I4
s(g26
g21
tp755
I13
s(g113
g50
tp756
I0
s(g26
g1
tp757
I0
s(g73
g57
tp758
I-20
s(g45
g117
tp759
I-20
s(g63
g7
tp760
I-19
s(g70
g18
tp761
I0
s(g75
g88
tp762
I0
s(g111
g15
tp763
I0
s(g63
g15
tp764
I-19
s(g59
g4
tp765
I-20
s(g52
g45
tp766
I-20
s(g30
g63
tp767
I-50
s(g117
g29
tp768
I0
s(g89
g45
tp769
I-20
s(g25
g23
tp770
I-19
s(g34
g2
tp771
I-20
s(g20
g15
tp772
I2
s(g48
g11
tp773
I0
s(g7
g89
tp774
I-20
s(g23
g111
tp775
I-19
s(g11
g73
tp776
I-20
s(g86
g59
tp777
I1
s(g38
g61
tp778
I0
s(g8
g63
tp779
I-19
s(g18
g89
tp780
I-20
s(g75
g29
tp781
I0
s(g7
g18
tp782
I0
s(g81
g70
tp783
I0
s(g73
g20
tp784
I-20
s(g44
g1
tp785
I0
s(g5
g4
tp786
I-20
s(g4
g44
tp787
I-20
s(g89
g41
tp788
I-20
s(g15
g52
tp789
I-19
s(g70
g75
tp790
I0
s(g25
g29
tp791
I0
s(g18
g29
tp792
I4
s(g111
g81
tp793
I1
s(g7
g88
tp794
I4
s(g70
g20
tp795
I9
s(g23
g29
tp796
I-19
s(g77
g21
tp797
I-20
s(g21
g26
tp798
I13
s(g48
g50
tp799
I0
s(g21
g5
tp800
I2
s(g7
g77
tp801
I-20
s(g11
g111
tp802
I8
s(g73
g8
tp803
I-20
s(g8
g88
tp804
I2
s(g70
g21
tp805
I0
s(g8
g57
tp806
I-19
s(g7
g75
tp807
I0
s(g113
g54
tp808
I-19
s(g34
g89
tp809
I-20
s(g73
g67
tp810
I5
s(g26
g32
tp811
I3
s(g113
g45
tp812
I-20
s(g48
g20
tp813
I0
s(g15
g54
tp814
I-19
s(g52
g81
tp815
I-19
s(g8
g67
tp816
I-20
s(g81
g86
tp817
I0
s(g41
g88
tp818
I0
s(g36
g36
tp819
I20
s(g70
g57
tp820
I-19
s(g36
g81
tp821
I-19
s(g86
g86
tp822
I40
s(g81
g26
tp823
I0
s(g25
g20
tp824
I1
s(g25
g21
tp825
I0
s(g26
g70
tp826
I0
s(g81
g30
tp827
I-50
s(g15
g38
tp828
I0
s(g23
g45
tp829
I-20
s(g17
g36
tp830
I-19
s(g32
g113
tp831
I2
s(g7
g34
tp832
I-20
s(g38
g32
tp833
I0
s(g29
g41
tp834
I11
s(g20
g34
tp835
I-20
s(g29
g13
tp836
I1
s(g59
g20
tp837
I1
s(g15
g18
tp838
I0
s(g113
g93
tp839
I-19
s(g111
g1
tp840
I0
s(g75
g2
tp841
I0
s(g113
g4
tp842
I-20
s(g54
g86
tp843
I-19
s(g23
g1
tp844
I0
s(g18
g5
tp845
I0
s(g81
g18
tp846
I10
s(g61
g50
tp847
I1
s(g18
g26
tp848
I0
s(g13
g23
tp849
I-19
s(g88
g7
tp850
I4
s(g59
g52
tp851
I-19
s(g32
g45
tp852
I-20
s(g75
g57
tp853
I-19
s(g77
g11
tp854
I-20
s(g117
g45
tp855
I-20
s(g15
g45
tp856
I-20
s(g2
g5
tp857
I0
s(g32
g54
tp858
I-19
s(g17
g23
tp859
I-19
s(g23
g2
tp860
I-19
s(g20
g75
tp861
I2
s(g81
g32
tp862
I0
s(g30
g10
tp863
I-50
s(g5
g15
tp864
I1
s(g26
g86
tp865
I1
s(g29
g61
tp866
I0
s(g93
g48
tp867
I-19
s(g70
g93
tp868
I-19
s(g75
g50
tp869
I0
s(g52
g70
tp870
I-19
s(g45
g57
tp871
I-20
s(g45
g1
tp872
I-20
s(g75
g36
tp873
I-19
s(g54
g77
tp874
I-20
s(g117
g18
tp875
I0
s(g63
g17
tp876
I-19
s(g7
g25
tp877
I3
s(g117
g41
tp878
I0
s(g75
g34
tp879
I-20
s(g17
g59
tp880
I0
s(g1
g10
tp881
I0
s(g30
g81
tp882
I-50
s(g41
g15
tp883
I0
s(g2
g30
tp884
I-50
s(g77
g63
tp885
I-20
s(g117
g73
tp886
I-20
s(g8
g10
tp887
I1
s(g48
g93
tp888
I-19
s(g8
g2
tp889
I0
s(g52
g48
tp890
I-19
s(g29
g34
tp891
I-20
s(g77
g67
tp892
I5
s(g54
g63
tp893
I11
s(g15
g7
tp894
I1
s(g44
g86
tp895
I3
s(g10
g81
tp896
I1
s(g70
g54
tp897
I-19
s(g59
g25
tp898
I0
s(g81
g59
tp899
I6
s(g44
g25
tp900
I6
s(g45
g20
tp901
I-20
s(g13
g111
tp902
I3
s(g18
g18
tp903
I40
s(g30
g2
tp904
I-50
s(g15
g70
tp905
I3
s(g61
g54
tp906
I-19
s(g70
g86
tp907
I0
s(g18
g41
tp908
I10
s(g93
g38
tp909
I-19
s(g34
g36
tp910
I-20
s(g32
g1
tp911
I0
s(g113
g32
tp912
I2
s(g17
g113
tp913
I18
s(g1
g25
tp914
I0
s(g44
g4
tp915
I-20
s(g1
g8
tp916
I0
s(g23
g41
tp917
I-19
s(g21
g48
tp918
I1
s(g44
g93
tp919
I-19
s(g8
g8
tp920
I40
s(g7
g86
tp921
I3
s(g81
g73
tp922
I-20
s(g34
g8
tp923
I-20
s(g21
g117
tp924
I5
s(g29
g77
tp925
I-20
s(g34
g44
tp926
I-20
s(g21
g45
tp927
I-20
s(g30
g67
tp928
I-50
s(g30
g4
tp929
I-50
s(g93
g10
tp930
I-19
s(g38
g52
tp931
I-19
s(g11
g117
tp932
I0
s(g81
g34
tp933
I-20
s(g34
g61
tp934
I-20
s(g59
g93
tp935
I-19
s(g26
g34
tp936
I-20
s(g75
g10
tp937
I12
s(g41
g7
tp938
I0
s(g111
g89
tp939
I-20
s(g13
g11
tp940
I2
s(g63
g48
tp941
I-19
s(g36
g88
tp942
I-19
s(g111
g29
tp943
I0
s(g17
g57
tp944
I-19
s(g1
g13
tp945
I0
s(g61
g89
tp946
I-20
s(g1
g48
tp947
I0
s(g52
g18
tp948
I-19
s(g75
g81
tp949
I0
s(g41
g10
tp950
I1
s(g45
g10
tp951
I-20
s(g26
g113
tp952
I1
s(g54
g15
tp953
I-19
s(g45
g67
tp954
I5
s(g13
g26
tp955
I0
s(g77
g73
tp956
I5
s(g52
g54
tp957
I18
s(g10
g54
tp958
I-19
s(g81
g38
tp959
I0
s(g10
g61
tp960
I4
s(g8
g15
tp961
I3
s(g86
g23
tp962
I-19
s(g18
g44
tp963
I0
s(g57
g89
tp964
I-20
s(g63
g52
tp965
I14
s(g11
g86
tp966
I0
s(g23
g117
tp967
I-19
s(g18
g8
tp968
I4
s(g88
g41
tp969
I0
s(g41
g54
tp970
I-19
s(g13
g63
tp971
I-19
s(g2
g4
tp972
I-20
s(g113
g61
tp973
I0
s(g30
g73
tp974
I-50
s(g17
g20
tp975
I1
s(g1
g20
tp976
I0
s(g20
g36
tp977
I-19
s(g18
g67
tp978
I-20
s(g86
g15
tp979
I0
s(g1
g18
tp980
I0
s(g11
g21
tp981
I0
s(g2
g117
tp982
I0
s(g34
g18
tp983
I-20
s(g17
g34
tp984
I-20
s(g59
g44
tp985
I1
s(g88
g8
tp986
I2
s(g20
g10
tp987
I1
s(g81
g81
tp988
I40
s(g30
g44
tp989
I-50
s(g113
g15
tp990
I6
s(g45
g111
tp991
I-20
s(g93
g67
tp992
I-20
s(g61
g117
tp993
I0
s(g52
g67
tp994
I-20
s(g77
g111
tp995
I-20
s(g29
g7
tp996
I0
s(g26
g26
tp997
I40
s(g34
g70
tp998
I-20
s(g38
g11
tp999
I0
s(g86
g29
tp1000
I0
s(g52
g29
tp1001
I-19
s(g26
g5
tp1002
I1
s(g89
g48
tp1003
I-20
s(g41
g38
tp1004
I0
s(g32
g26
tp1005
I3
s(g54
g111
tp1006
I-19
s(g34
g32
tp1007
I-20
s(g88
g111
tp1008
I2
s(g50
g111
tp1009
I0
s(g36
g29
tp1010
I-19
s(g113
g41
tp1011
I1
s(g17
g13
tp1012
I0
s(g1
g57
tp1013
I0
s(g1
g75
tp1014
I0
s(g25
g54
tp1015
I-19
s(g77
g61
tp1016
I-20
s(g57
g67
tp1017
I-20
s(g93
g57
tp1018
I17
s(g7
g1
tp1019
I0
s(g81
g15
tp1020
I0
s(g17
g77
tp1021
I-20
s(g18
g111
tp1022
I0
s(g11
g17
tp1023
I0
s(g13
g57
tp1024
I-19
s(g86
g111
tp1025
I2
s(g15
g77
tp1026
I-20
s(g10
g50
tp1027
I0
s(g29
g29
tp1028
I40
s(g81
g13
tp1029
I1
s(g18
g86
tp1030
I0
s(g30
g7
tp1031
I-50
s(g44
g5
tp1032
I0
s(g57
g4
tp1033
I-20
s(g54
g10
tp1034
I-19
s(g15
g36
tp1035
I-19
s(g70
g44
tp1036
I0
s(g7
g59
tp1037
I1
s(g52
g57
tp1038
I12
s(g54
g67
tp1039
I-20
s(g17
g25
tp1040
I1
s(g1
g113
tp1041
I0
s(g41
g48
tp1042
I0
s(g1
g5
tp1043
I0
s(g77
g93
tp1044
I-20
s(g50
g88
tp1045
I0
s(g4
g20
tp1046
I-20
s(g13
g38
tp1047
I0
s(g26
g36
tp1048
I-19
s(g34
g13
tp1049
I-20
s(g77
g26
tp1050
I-20
s(g54
g1
tp1051
I0
s(g30
g5
tp1052
I-50
s(g21
g21
tp1053
I40
s(g111
g48
tp1054
I2
s(g21
g1
tp1055
I0
s(g88
g18
tp1056
I0
s(g63
g34
tp1057
I-20
s(g41
g111
tp1058
I0
s(g25
g2
tp1059
I2
s(g30
g113
tp1060
I-50
s(g86
g88
tp1061
I3
s(g7
g23
tp1062
I-19
s(g36
g2
tp1063
I-19
s(g15
g23
tp1064
I-19
s(g61
g13
tp1065
I1
s(g75
g75
tp1066
I40
s(g81
g48
tp1067
I1
s(g13
g93
tp1068
I-19
s(g36
g52
tp1069
I16
s(g13
g44
tp1070
I2
s(g23
g88
tp1071
I-19
s(g17
g30
tp1072
I-50
s(g1
g59
tp1073
I0
s(g13
g36
tp1074
I-19
s(g86
g48
tp1075
I19
s(g57
g86
tp1076
I-19
s(g93
g13
tp1077
I-19
s(g26
g13
tp1078
I0
s(g20
g7
tp1079
I0
s(g57
g20
tp1080
I-19
s(g5
g36
tp1081
I-19
s(g10
g36
tp1082
I-19
s(g75
g32
tp1083
I3
s(g32
g17
tp1084
I1
s(g113
g59
tp1085
I0
s(g45
g75
tp1086
I-20
s(g36
g73
tp1087
I-20
s(g29
g70
tp1088
I0
s(g63
g57
tp1089
I17
s(g111
g38
tp1090
I0
s(g63
g88
tp1091
I-19
s(g57
g38
tp1092
I-19
s(g93
g88
tp1093
I-19
s(g54
g48
tp1094
I-19
s(g4
g81
tp1095
I-20
s(g52
g113
tp1096
I-19
s(g29
g48
tp1097
I1
s(g13
g54
tp1098
I-19
s(g75
g25
tp1099
I5
s(g48
g1
tp1100
I0
s(g21
g61
tp1101
I0
s(g59
g36
tp1102
I-19
s(g50
g11
tp1103
I0
s(g77
g57
tp1104
I-20
s(g21
g77
tp1105
I-20
s(g57
g36
tp1106
I14
s(g57
g111
tp1107
I-19
s(g4
g73
tp1108
I5
s(g59
g111
tp1109
I2
s(g48
g89
tp1110
I-20
s(g2
g1
tp1111
I0
s(g32
g23
tp1112
I-19
s(g111
g10
tp1113
I1
s(g88
g23
tp1114
I-19
s(g7
g41
tp1115
I0
s(g20
g44
tp1116
I3
s(g2
g54
tp1117
I-19
s(g117
g50
tp1118
I1
s(g5
g25
tp1119
I0
s(g45
g18
tp1120
I-20
s(g67
g89
tp1121
I-20
s(g86
g89
tp1122
I-20
s(g25
g77
tp1123
I-20
s(g26
g48
tp1124
I3
s(g75
g93
tp1125
I-19
s(g93
g73
tp1126
I-20
s(g63
g20
tp1127
I-19
s(g4
g77
tp1128
I5
s(g89
g23
tp1129
I-20
s(g59
g34
tp1130
I-20
s(g61
g30
tp1131
I-50
s(g20
g20
tp1132
I40
s(g25
g17
tp1133
I1
s(g2
g13
tp1134
I1
s(g117
g20
tp1135
I0
s(g36
g41
tp1136
I-19
s(g8
g32
tp1137
I3
s(g36
g54
tp1138
I15
s(g93
g34
tp1139
I-20
s(g86
g57
tp1140
I-19
s(g25
g63
tp1141
I-19
s(g5
g41
tp1142
I0
s(g70
g81
tp1143
I0
s(g61
g29
tp1144
I0
s(g32
g59
tp1145
I1
s(g93
g117
tp1146
I-19
s(g45
g45
tp1147
I10
s(g52
g88
tp1148
I-2
s(g52
g86
tp1149
I-19
s(g113
g57
tp1150
I-19
s(g41
g89
tp1151
I-20
s(g36
g4
tp1152
I-20
s(g15
g57
tp1153
I-19
s(g15
g2
tp1154
I2
s(g44
g48
tp1155
I1
s(g70
g23
tp1156
I-19
s(g59
g15
tp1157
I0
s(g86
g81
tp1158
I0
s(g111
g4
tp1159
I-20
s(g34
g63
tp1160
I-20
s(g77
g25
tp1161
I-20
s(g30
g61
tp1162
I-50
s(g93
g11
tp1163
I-19
s(g113
g117
tp1164
I0
s(g4
g86
tp1165
I-20
s(g57
g117
tp1166
I-19
s(g29
g10
tp1167
I1
s(g61
g23
tp1168
I-19
s(g67
g77
tp1169
I5
s(g25
g45
tp1170
I-20
s(g8
g29
tp1171
I1
s(g41
g32
tp1172
I0
s(g32
g38
tp1173
I0
s(g17
g17
tp1174
I40
s(g1
g15
tp1175
I0
s(g1
g117
tp1176
I0
s(g50
g52
tp1177
I-19
s(g32
g52
tp1178
I-19
s(g5
g61
tp1179
I1
s(g70
g41
tp1180
I0
s(g61
g61
tp1181
I40
s(g4
g89
tp1182
I-20
s(g30
g8
tp1183
I-50
s(g8
g117
tp1184
I0
s(g7
g48
tp1185
I2
s(g81
g17
tp1186
I0
s(g34
g117
tp1187
I-20
s(g113
g20
tp1188
I1
s(g5
g20
tp1189
I7
s(g26
g2
tp1190
I0
s(g67
g73
tp1191
I5
s(g61
g4
tp1192
I-20
s(g38
g4
tp1193
I-20
s(g34
g45
tp1194
I5
s(g25
g61
tp1195
I8
s(g73
g111
tp1196
I-20
s(g11
g8
tp1197
I2
s(g38
g70
tp1198
I0
s(g25
g15
tp1199
I17
s(g67
g34
tp1200
I5
s(g63
g86
tp1201
I-19
s(g59
g5
tp1202
I1
s(g23
g52
tp1203
I15
s(g73
g21
tp1204
I-20
s(g73
g15
tp1205
I-20
s(g1
g70
tp1206
I0
s(g5
g1
tp1207
I0
s(g86
g45
tp1208
I-20
s(g1
g86
tp1209
I0
s(g61
g26
tp1210
I1
s(g11
g61
tp1211
I0
s(g20
g61
tp1212
I0
s(g63
g111
tp1213
I-19
s(g7
g32
tp1214
I7
s(g59
g61
tp1215
I1
s(g5
g57
tp1216
I-19
s(g67
g111
tp1217
I-20
s(g54
g25
tp1218
I-19
s(g73
g45
tp1219
I5
s(g52
g23
tp1220
I15
s(g81
g1
tp1221
I0
s(g111
g59
tp1222
I2
s(g86
g54
tp1223
I-19
s(g18
g75
tp1224
I0
s(g63
g36
tp1225
I15
s(g11
g48
tp1226
I0
s(g29
g59
tp1227
I16
s(g52
g73
tp1228
I-20
s(g48
g111
tp1229
I2
s(g20
g4
tp1230
I-20
s(g25
g30
tp1231
I-50
s(g75
g113
tp1232
I3
s(g81
g2
tp1233
I0
s(g21
g7
tp1234
I0
s(g13
g17
tp1235
I0
s(g86
g25
tp1236
I2
s(g50
g93
tp1237
I-19
s(g5
g32
tp1238
I6
s(g75
g30
tp1239
I-50
s(g70
g88
tp1240
I0
s(g11
g26
tp1241
I1
s(g73
g36
tp1242
I-20
s(g50
g29
tp1243
I1
s(g20
g111
tp1244
I9
s(g2
g63
tp1245
I-19
s(g30
g45
tp1246
I-50
s(g113
g25
tp1247
I11
s(g73
g4
tp1248
I5
s(g75
g11
tp1249
I1
s(g15
g25
tp1250
I17
s(g61
g88
tp1251
I12
s(g29
g2
tp1252
I0
s(g34
g93
tp1253
I-20
s(g117
g1
tp1254
I0
s(g63
g59
tp1255
I-2
s(g88
g73
tp1256
I-20
s(g36
g7
tp1257
I-19
s(g117
g21
tp1258
I5
s(g10
g70
tp1259
I0
s(g89
g86
tp1260
I-20
s(g10
g86
tp1261
I2
s(g41
g1
tp1262
I0
s(g45
g30
tp1263
I-50
s(g32
g21
tp1264
I1
s(g2
g59
tp1265
I0
s(g20
g63
tp1266
I-19
s(g11
g11
tp1267
I40
s(g48
g88
tp1268
I4
s(g36
g44
tp1269
I-19
s(g59
g18
tp1270
I2
s(g52
g75
tp1271
I-19
s(g41
g41
tp1272
I40
s(g17
g70
tp1273
I0
s(g5
g67
tp1274
I-20
s(g20
g29
tp1275
I0
s(g1
g44
tp1276
I0
s(g57
g10
tp1277
I-19
s(g7
g5
tp1278
I0
s(g48
g77
tp1279
I-20
s(g86
g2
tp1280
I0
s(g23
g59
tp1281
I-19
s(g10
g93
tp1282
I-19
s(g5
g59
tp1283
I1
s(g11
g113
tp1284
I0
s(g54
g20
tp1285
I-19
s(g8
g34
tp1286
I-20
s(g44
g59
tp1287
I1
s(g7
g4
tp1288
I-20
s(g7
g30
tp1289
I-50
s(g18
g48
tp1290
I0
s(g73
g89
tp1291
I-20
s(g7
g93
tp1292
I-19
s(g93
g4
tp1293
I-20
s(g38
g17
tp1294
I3
s(g86
g1
tp1295
I0
s(g44
g36
tp1296
I-19
s(g29
g75
tp1297
I0
s(g26
g45
tp1298
I-20
s(g21
g41
tp1299
I0
s(g11
g63
tp1300
I-19
s(g48
g63
tp1301
I-19
s(g57
g59
tp1302
I-19
s(g113
g34
tp1303
I-20
s(g21
g18
tp1304
I0
s(g44
g63
tp1305
I-19
s(g17
g15
tp1306
I3
s(g1
g17
tp1307
I0
s(g5
g10
tp1308
I1
s(g1
g1
tp1309
I0
s(g8
g11
tp1310
I2
s(g44
g21
tp1311
I0
s(g26
g52
tp1312
I-19
s(g57
g93
tp1313
I17
s(g30
g1
tp1314
I-50
s(g8
g13
tp1315
I3
s(g36
g25
tp1316
I-19
s(g50
g26
tp1317
I3
s(g111
g86
tp1318
I2
s(g21
g38
tp1319
I0
s(g11
g59
tp1320
I0
s(g48
g113
tp1321
I1
s(g52
g7
tp1322
I-19
s(g23
g34
tp1323
I-20
s(g25
g7
tp1324
I3
s(g18
g38
tp1325
I0
s(g67
g21
tp1326
I-20
s(g32
g32
tp1327
I40
s(g7
g45
tp1328
I-20
s(g75
g8
tp1329
I2
s(g7
g54
tp1330
I-19
s(g77
g1
tp1331
I-20
s(g113
g75
tp1332
I3
s(g81
g23
tp1333
I-19
s(g61
g70
tp1334
I0
s(g29
g86
tp1335
I0
s(g75
g44
tp1336
I3
s(g29
g18
tp1337
I4
s(g70
g77
tp1338
I-20
s(g113
g77
tp1339
I-20
s(g30
g11
tp1340
I-50
s(g50
g4
tp1341
I-20
s(g61
g48
tp1342
I4
s(g57
g48
tp1343
I-19
s(g25
g89
tp1344
I-20
s(g8
g20
tp1345
I4
s(g20
g2
tp1346
I0
s(g15
g5
tp1347
I1
s(g23
g75
tp1348
I-19
s(g5
g52
tp1349
I-19
s(g10
g52
tp1350
I-19
s(g32
g73
tp1351
I-20
s(g45
g44
tp1352
I-20
s(g48
g57
tp1353
I-19
s(g77
g48
tp1354
I-20
s(g32
g10
tp1355
I10
s(g81
g117
tp1356
I0
s(g36
g17
tp1357
I-19
s(g89
g59
tp1358
I-20
s(g18
g10
tp1359
I0
s(g73
g7
tp1360
I-20
s(g29
g52
tp1361
I-19
s(g113
g18
tp1362
I0
s(g52
g17
tp1363
I-19
s(g75
g13
tp1364
I0
s(g44
g41
tp1365
I0
s(g93
g15
tp1366
I-19
s(g7
g21
tp1367
I0
s(g75
g15
tp1368
I6
s(g5
g48
tp1369
I3
s(g13
g15
tp1370
I0
s(g88
g34
tp1371
I-20
s(g57
g52
tp1372
I12
s(g50
g75
tp1373
I0
s(g77
g77
tp1374
I10
s(g25
g117
tp1375
I0
s(g50
g41
tp1376
I0
s(g86
g21
tp1377
I0
s(g88
g54
tp1378
I-19
s(g2
g89
tp1379
I-20
s(g2
g23
tp1380
I-19
s(g18
g34
tp1381
I-20
s(g93
g23
tp1382
I18
s(g45
g13
tp1383
I-20
s(g38
g117
tp1384
I0
s(g77
g59
tp1385
I-20
s(g70
g8
tp1386
I8
s(g10
g89
tp1387
I-20
s(g117
g117
tp1388
I40
s(g15
g41
tp1389
I0
s(g13
g20
tp1390
I13
s(g38
g30
tp1391
I-50
s(g36
g50
tp1392
I-19
s(g2
g70
tp1393
I0
s(g10
g67
tp1394
I-20
s(g70
g34
tp1395
I-20
s(g117
g4
tp1396
I-20
s(g48
g52
tp1397
I-19
s(g73
g29
tp1398
I-20
s(g17
g111
tp1399
I0
s(g1
g30
tp1400
I-50
s(g11
g89
tp1401
I-20
s(g61
g10
tp1402
I4
s(g20
g41
tp1403
I1
s(g15
g111
tp1404
I0
s(g15
g81
tp1405
I0
s(g57
g75
tp1406
I-19
s(g77
g34
tp1407
I5
s(g93
g8
tp1408
I-19
s(g15
g75
tp1409
I6
s(g59
g81
tp1410
I6
s(g5
g11
tp1411
I11
s(g45
g21
tp1412
I-20
s(g23
g13
tp1413
I-19
s(g36
g111
tp1414
I-19
s(g89
g26
tp1415
I-20
s(g2
g41
tp1416
I0
s(g70
g48
tp1417
I0
s(g34
g52
tp1418
I-20
s(g54
g34
tp1419
I-20
s(g54
g13
tp1420
I-19
s(g48
g29
tp1421
I1
s(g89
g75
tp1422
I-20
s(g93
g61
tp1423
I-19
s(g70
g25
tp1424
I0
s(g113
g8
tp1425
I7
s(g88
g45
tp1426
I-20
s(g18
g4
tp1427
I-20
s(g88
g11
tp1428
I0
s(g21
g29
tp1429
I0
s(g48
g54
tp1430
I-19
s(g4
g111
tp1431
I-20
s(g17
g73
tp1432
I-20
s(g50
g36
tp1433
I-19
s(g32
g36
tp1434
I-19
s(g88
g36
tp1435
I-19
s(g57
g11
tp1436
I-19
s(g54
g36
tp1437
I15
s(g50
g48
tp1438
I0
s(g30
g117
tp1439
I-50
s(g73
g11
tp1440
I-20
s(g81
g113
tp1441
I0
s(g5
g63
tp1442
I-19
s(g88
g50
tp1443
I0
s(g63
g54
tp1444
I11
s(g26
g7
tp1445
I0
s(g48
g25
tp1446
I2
s(g1
g67
tp1447
I-20
s(g4
g34
tp1448
I5
s(g61
g93
tp1449
I-19
s(g41
g11
tp1450
I0
s(g13
g88
tp1451
I1
s(g48
g32
tp1452
I18
s(g75
g5
tp1453
I1
s(g4
g36
tp1454
I-20
s(g10
g10
tp1455
I40
s(g70
g13
tp1456
I3
s(g36
g61
tp1457
I-19
s(g38
g13
tp1458
I0
s(g77
g15
tp1459
I-20
s(g52
g34
tp1460
I-20
s(g61
g52
tp1461
I-19
s(g10
g34
tp1462
I-20
s(g45
g88
tp1463
I-20
s(g25
g25
tp1464
I40
s(g13
g77
tp1465
I-20
s(g59
g1
tp1466
I0
s(g7
g2
tp1467
I4
s(g23
g36
tp1468
I15
s(g73
g26
tp1469
I-20
s(g5
g5
tp1470
I40
s(g48
g18
tp1471
I0
s(g61
g21
tp1472
I0
s(g41
g34
tp1473
I-20
s(g23
g10
tp1474
I-19
s(g36
g45
tp1475
I-20
s(g63
g93
tp1476
I12
s(g48
g30
tp1477
I-50
s(g38
g44
tp1478
I3
s(g61
g113
tp1479
I0
s(g34
g11
tp1480
I-20
s(g81
g5
tp1481
I1
s(g30
g26
tp1482
I-50
s(g36
g15
tp1483
I-19
s(g41
g77
tp1484
I-20
s(g29
g111
tp1485
I0
s(g89
g13
tp1486
I-20
s(g63
g30
tp1487
I-50
s(g93
g81
tp1488
I-19
s(g36
g63
tp1489
I15
s(g29
g88
tp1490
I0
s(g77
g70
tp1491
I-20
s(g75
g59
tp1492
I0
s(g77
g52
tp1493
I-20
s(g13
g34
tp1494
I-20
s(g2
g18
tp1495
I0
s(g32
g50
tp1496
I0
s(g34
g113
tp1497
I-20
s(g73
g30
tp1498
I-50
s(g75
g17
tp1499
I1
s(g81
g7
tp1500
I0
s(g30
g48
tp1501
I-50
s(g17
g89
tp1502
I-20
s(g21
g2
tp1503
I0
s(g13
g113
tp1504
I0
s(g54
g70
tp1505
I-19
s(g26
g44
tp1506
I0
s(g57
g88
tp1507
I-19
s(g50
g10
tp1508
I0
s(g25
g1
tp1509
I0
s(g73
g52
tp1510
I-20
s(g34
g4
tp1511
I5
s(g45
g59
tp1512
I-20
s(g13
g89
tp1513
I-20
s(g54
g18
tp1514
I-19
s(g15
g15
tp1515
I40
s(g21
g57
tp1516
I-19
s(g117
g5
tp1517
I1
s(g36
g21
tp1518
I-19
s(g88
g17
tp1519
I1
s(g117
g26
tp1520
I9
s(g10
g13
tp1521
I2
s(g10
g48
tp1522
I4
s(g41
g5
tp1523
I0
s(g86
g70
tp1524
I0
s(g34
g67
tp1525
I5
s(g70
g7
tp1526
I0
s(g88
g59
tp1527
I0
s(g50
g59
tp1528
I1
s(g63
g2
tp1529
I-19
s(g77
g50
tp1530
I-20
s(g8
g48
tp1531
I2
s(g52
g44
tp1532
I-19
s(g44
g44
tp1533
I40
s(g86
g7
tp1534
I3
s(g44
g20
tp1535
I3
s(g7
g36
tp1536
I-19
s(g15
g11
tp1537
I0
s(g59
g23
tp1538
I-19
s(g48
g41
tp1539
I0
s(g52
g13
tp1540
I-19
s(g44
g38
tp1541
I3
s(g73
g1
tp1542
I-20
s(g50
g25
tp1543
I1
s(g38
g113
tp1544
I7
s(g86
g5
tp1545
I2
s(g23
g26
tp1546
I-19
s(g44
g52
tp1547
I-19
s(g29
g44
tp1548
I0
s(g93
g20
tp1549
I-19
s(g67
g93
tp1550
I-20
s(g7
g111
tp1551
I0
s(g57
g32
tp1552
I-19
s(g73
g81
tp1553
I-20
s(g15
g34
tp1554
I-20
s(g13
g81
tp1555
I1
s(g30
g38
tp1556
I-50
s(g8
g70
tp1557
I8
s(g50
g21
tp1558
I2
s(g59
g29
tp1559
I16
s(g63
g63
tp1560
I20
s(g93
g50
tp1561
I-19
s(g67
g25
tp1562
I-20
s(g48
g17
tp1563
I0
s(g117
g23
tp1564
I-19
s(g52
g2
tp1565
I-19
s(g30
g17
tp1566
I-50
s(g10
g15
tp1567
I2
s(g75
g48
tp1568
I2
s(g10
g117
tp1569
I0
s(g13
g52
tp1570
I-19
s(g48
g81
tp1571
I1
s(g10
g57
tp1572
I-19
s(g75
g117
tp1573
I0
s(g4
g88
tp1574
I-20
s(g77
g5
tp1575
I-20
s(g81
g54
tp1576
I-19
s(g50
g57
tp1577
I-19
s(g25
g113
tp1578
I11
s(g67
g54
tp1579
I-20
s(g111
g8
tp1580
I6
s(g73
g17
tp1581
I-20
s(g10
g29
tp1582
I1
s(g45
g48
tp1583
I-20
s(g61
g86
tp1584
I0
s(g77
g89
tp1585
I-20
s(g52
g50
tp1586
I-19
s(g73
g63
tp1587
I-20
s(g67
g1
tp1588
I-20
s(g2
g61
tp1589
I16
s(g15
g1
tp1590
I0
s(g30
g34
tp1591
I-50
s(g23
g44
tp1592
I-19
s(g57
g15
tp1593
I-19
s(g63
g11
tp1594
I-19
s(g67
g13
tp1595
I-20
s(g88
g67
tp1596
I-20
s(g81
g8
tp1597
I1
s(g36
g113
tp1598
I-19
s(g21
g81
tp1599
I0
s(g29
g36
tp1600
I-19
s(g2
g48
tp1601
I0
s(g75
g70
tp1602
I0
s(g93
g25
tp1603
I-19
s(g67
g52
tp1604
I-20
s(g44
g57
tp1605
I-19
s(g38
g63
tp1606
I-19
s(g7
g26
tp1607
I0
s(g20
g48
tp1608
I0
s(g4
g30
tp1609
I-50
s(g81
g61
tp1610
I0
s(g13
g25
tp1611
I2
s(g61
g67
tp1612
I-20
s(g54
g93
tp1613
I18
s(g50
g44
tp1614
I0
s(g26
g29
tp1615
I0
s(g25
g8
tp1616
I1
s(g59
g59
tp1617
I40
s(g15
g44
tp1618
I19
s(g86
g26
tp1619
I1
s(g45
g52
tp1620
I-20
s(g30
g59
tp1621
I-50
s(g54
g29
tp1622
I-19
s(g57
g21
tp1623
I-19
s(g93
g54
tp1624
I18
s(g45
g70
tp1625
I-20
s(g32
g29
tp1626
I0
s(g67
g20
tp1627
I-20
s(g38
g8
tp1628
I2
s(g70
g67
tp1629
I-20
s(g70
g117
tp1630
I0
s(g63
g81
tp1631
I-19
s(g11
g36
tp1632
I-19
s(g117
g8
tp1633
I0
s(g41
g45
tp1634
I-20
s(g4
g11
tp1635
I-20
s(g93
g29
tp1636
I-19
s(g59
g63
tp1637
I-2
s(g73
g86
tp1638
I-20
s(g23
g73
tp1639
I-20
s(g77
g81
tp1640
I-20
s(g50
g13
tp1641
I0
s(g117
g89
tp1642
I-20
s(g38
g73
tp1643
I-20
s(g59
g73
tp1644
I-20
s(g67
g50
tp1645
I-20
s(g48
g36
tp1646
I-19
s(g2
g21
tp1647
I0
s(g113
g36
tp1648
I-19
s(g52
g11
tp1649
I-19
s(g25
g34
tp1650
I-20
s(g44
g30
tp1651
I-50
s(g41
g113
tp1652
I1
s(g32
g111
tp1653
I2
s(g81
g57
tp1654
I-19
s(g32
g8
tp1655
I3
s(g23
g70
tp1656
I-19
s(g59
g77
tp1657
I-20
s(g67
g57
tp1658
I-20
s(g89
g21
tp1659
I-20
s(g41
g20
tp1660
I1
s(g52
g59
tp1661
I-19
s(g36
g18
tp1662
I-19
s(g59
g48
tp1663
I0
s(g34
g34
tp1664
I10
s(g50
g38
tp1665
I0
s(g70
g15
tp1666
I3
s(g38
g21
tp1667
I0
s(g13
g2
tp1668
I1
s(g88
g44
tp1669
I3
s(g77
g41
tp1670
I-20
s(g67
g11
tp1671
I-20
s(g48
g23
tp1672
I-19
s(g73
g70
tp1673
I-20
s(g11
g38
tp1674
I0
s(g88
g52
tp1675
I-2
s(g54
g52
tp1676
I18
s(g50
g86
tp1677
I0
s(g86
g11
tp1678
I0
s(g54
g45
tp1679
I-20
s(g63
g23
tp1680
I12
s(g5
g89
tp1681
I-20
s(g67
g113
tp1682
I-20
s(g48
g15
tp1683
I1
s(g38
g18
tp1684
I0
s(g117
g63
tp1685
I-19
s(g26
g77
tp1686
I-20
s(g30
g15
tp1687
I-50
s(g89
g50
tp1688
I-20
s(g75
g1
tp1689
I0
s(g4
g52
tp1690
I-20
s(g111
g88
tp1691
I2
s(g26
g15
tp1692
I1
s(g70
g70
tp1693
I40
s(g23
g4
tp1694
I-20
s(g86
g10
tp1695
I2
s(g52
g8
tp1696
I-19
s(g50
g30
tp1697
I-50
s(g10
g2
tp1698
I1
s(g8
g113
tp1699
I7
s(g26
g57
tp1700
I-19
s(g67
g63
tp1701
I-20
s(g45
g34
tp1702
I5
s(g7
g7
tp1703
I40
s(g20
g77
tp1704
I-20
s(g63
g38
tp1705
I-19
s(g2
g7
tp1706
I4
s(g23
g67
tp1707
I-20
s(g57
g17
tp1708
I-19
s(g113
g2
tp1709
I1
s(g7
g67
tp1710
I-20
s(g67
g59
tp1711
I-20
s(g38
g75
tp1712
I11
s(g61
g17
tp1713
I1
s(g25
g70
tp1714
I0
s(g30
g21
tp1715
I-50
s(g20
g23
tp1716
I-19
s(g111
g111
tp1717
I40
s(g89
g70
tp1718
I-20
s(g59
g10
tp1719
I0
s(g88
g38
tp1720
I4
s(g18
g45
tp1721
I-20
s(g75
g20
tp1722
I2
s(g113
g73
tp1723
I-20
s(g21
g32
tp1724
I1
s(g61
g5
tp1725
I1
s(g34
g48
tp1726
I-20
s(g77
g13
tp1727
I-20
s(g20
g18
tp1728
I0
s(g88
g10
tp1729
I1
s(g67
g48
tp1730
I-20
s(g67
g88
tp1731
I-20
s(g15
g48
tp1732
I1
s(g45
g77
tp1733
I5
s(g26
g117
tp1734
I9
s(g34
g17
tp1735
I-20
s(g75
g73
tp1736
I-20
s(g30
g86
tp1737
I-50
s(g111
g34
tp1738
I-20
s(g48
g86
tp1739
I19
s(g67
g26
tp1740
I-20
s(g26
g75
tp1741
I1
s(g89
g5
tp1742
I-20
s(g4
g25
tp1743
I-20
s(g26
g63
tp1744
I-19
s(g111
g113
tp1745
I1
s(g25
g5
tp1746
I0
s(g34
g26
tp1747
I-20
s(g20
g59
tp1748
I1
s(g52
g26
tp1749
I-19
s(g30
g13
tp1750
I-50
s(g13
g32
tp1751
I2
s(g21
g25
tp1752
I0
s(g77
g2
tp1753
I-20
s(g4
g38
tp1754
I-20
s(g63
g32
tp1755
I-19
s(g36
g26
tp1756
I-19
s(g88
g113
tp1757
I1
s(g10
g77
tp1758
I-20
s(g4
g93
tp1759
I-20
s(g111
g11
tp1760
I8
s(g113
g63
tp1761
I-19
s(g86
g13
tp1762
I0
s(g38
g2
tp1763
I0
s(g70
g2
tp1764
I0
s(g30
g54
tp1765
I-50
s(g8
g86
tp1766
I3
s(g38
g23
tp1767
I-19
s(g45
g29
tp1768
I-20
s(g17
g7
tp1769
I3
s(g44
g117
tp1770
I0
s(g54
g44
tp1771
I-19
s(g36
g38
tp1772
I-19
s(g44
g75
tp1773
I3
s(g7
g38
tp1774
I3
s(g7
g70
tp1775
I0
s(g54
g81
tp1776
I-19
s(g7
g52
tp1777
I-19
s(g36
g70
tp1778
I-19
s(g5
g111
tp1779
I4
s(g54
g89
tp1780
I-20
s(g44
g111
tp1781
I0
s(g26
g23
tp1782
I-19
s(g41
g61
tp1783
I0
s(g45
g41
tp1784
I-20
s(g44
g32
tp1785
I2
s(g73
g5
tp1786
I-20
s(g32
g11
tp1787
I0
s(g23
g21
tp1788
I-19
s(g8
g77
tp1789
I-20
s(g67
g41
tp1790
I-20
s(g29
g45
tp1791
I-20
s(g7
g10
tp1792
I4
s(g48
g34
tp1793
I-20
s(g81
g20
tp1794
I0
s(g21
g4
tp1795
I-20
s(g17
g29
tp1796
I0
s(g44
g34
tp1797
I-20
s(g4
g67
tp1798
I5
s(g4
g70
tp1799
I-20
s(g26
g81
tp1800
I0
s(g54
g57
tp1801
I13
s(g52
g32
tp1802
I-19
s(g25
g81
tp1803
I0
s(g41
g36
tp1804
I-19
s(g59
g30
tp1805
I-50
s(g1
g77
tp1806
I-20
s(g113
g21
tp1807
I0
s(g89
g11
tp1808
I-20
s(g57
g41
tp1809
I-19
s(g67
g15
tp1810
I-20
s(g48
g73
tp1811
I-20
s(g13
g48
tp1812
I3
s(g23
g63
tp1813
I12
s(g10
g25
tp1814
I3
s(g75
g86
tp1815
I3
s(g4
g23
tp1816
I-20
s(g10
g44
tp1817
I5
s(g10
g8
tp1818
I1
s(g26
g111
tp1819
I1
s(g30
g25
tp1820
I-50
s(g32
g67
tp1821
I-20
s(g34
g29
tp1822
I-20
s(g32
g25
tp1823
I1
s(g38
g81
tp1824
I0
s(g113
g44
tp1825
I3
s(g88
g93
tp1826
I-19
s(g29
g4
tp1827
I-20
s(g11
g81
tp1828
I0
s(g67
g23
tp1829
I-20
s(g2
g67
tp1830
I-20
s(g113
g11
tp1831
I0
s(g111
g117
tp1832
I0
s(g17
g32
tp1833
I1
s(g30
g77
tp1834
I-50
s(g73
g113
tp1835
I-20
s(g93
g36
tp1836
I16
s(g45
g86
tp1837
I-20
s(g18
g17
tp1838
I0
s(g36
g89
tp1839
I-20
s(g8
g89
tp1840
I-20
s(g63
g70
tp1841
I-19
s(g1
g34
tp1842
I-20
s(g21
g54
tp1843
I-19
s(g88
g61
tp1844
I12
s(g117
g32
tp1845
I0
s(g54
g61
tp1846
I-19
s(g89
g54
tp1847
I-20
s(g18
g36
tp1848
I-19
s(g11
g10
tp1849
I0
s(g67
g70
tp1850
I-20
s(g2
g45
tp1851
I-20
s(g25
g36
tp1852
I-19
s(g20
g38
tp1853
I0
s(g1
g41
tp1854
I0
s(g89
g111
tp1855
I-20
s(g30
g93
tp1856
I-50
s(g117
g54
tp1857
I-19
s(g2
g86
tp1858
I0
s(g70
g38
tp1859
I0
s(g15
g26
tp1860
I1
s(g77
g75
tp1861
I-20
s(g70
g11
tp1862
I6
s(g11
g41
tp1863
I0
s(g67
g36
tp1864
I-20
s(g1
g81
tp1865
I0
s(g50
g45
tp1866
I-20
s(g17
g26
tp1867
I1
s(g20
g86
tp1868
I0
s(g59
g8
tp1869
I2
s(g4
g4
tp1870
I10
s(g89
g8
tp1871
I-20
s(g81
g63
tp1872
I-19
s(g7
g17
tp1873
I3
s(g20
g13
tp1874
I13
s(g111
g26
tp1875
I1
s(g45
g36
tp1876
I-20
s(g50
g73
tp1877
I-20
s(g2
g20
tp1878
I0
s(g57
g26
tp1879
I-19
s(g21
g113
tp1880
I0
s(g86
g30
tp1881
I-50
s(g1
g61
tp1882
I0
s(g10
g20
tp1883
I1
s(g88
g57
tp1884
I-19
s(g8
g75
tp1885
I2
s(g21
g30
tp1886
I-50
s(g11
g52
tp1887
I-19
s(g81
g89
tp1888
I-20
s(g54
g17
tp1889
I-19
s(g8
g61
tp1890
I1
s(g113
g30
tp1891
I-50
s(g89
g34
tp1892
I-20
s(g73
g48
tp1893
I-20
s(g54
g23
tp1894
I18
s(g15
g61
tp1895
I1
s(g50
g70
tp1896
I0
s(g10
g32
tp1897
I10
s(g70
g63
tp1898
I-19
s(g25
g86
tp1899
I2
s(g113
g52
tp1900
I-19
s(g44
g17
tp1901
I2
s(g77
g20
tp1902
I-20
s(g70
g73
tp1903
I-20
s(g11
g20
tp1904
I12
s(g113
g38
tp1905
I7
s(g88
g21
tp1906
I2
s(g15
g59
tp1907
I0
s(g61
g63
tp1908
I-19
s(g57
g45
tp1909
I-20
s(g73
g34
tp1910
I5
s(g88
g32
tp1911
I4
s(g32
g117
tp1912
I0
s(g36
g59
tp1913
I-19
s(g1
g26
tp1914
I0
s(g8
g5
tp1915
I16
s(g11
g50
tp1916
I0
s(g59
g86
tp1917
I1
s(g8
g26
tp1918
I0
s(g57
g23
tp1919
I13
s(g38
g26
tp1920
I0
s(g13
g7
tp1921
I1
s(g26
g11
tp1922
I1
s(g18
g73
tp1923
I-20
s(g93
g44
tp1924
I-19
s(g29
g20
tp1925
I0
s(g17
g41
tp1926
I0
s(g73
g13
tp1927
I-20
s(g4
g59
tp1928
I-20
s(g10
g45
tp1929
I-20
s(g70
g111
tp1930
I3
s(g11
g1
tp1931
I0
s(g11
g57
tp1932
I-19
s(g13
g67
tp1933
I-20
s(g25
g32
tp1934
I1
s(g57
g77
tp1935
I-20
s(g32
g7
tp1936
I7
s(g48
g7
tp1937
I2
s(g73
g77
tp1938
I5
s(g23
g89
tp1939
I-20
s(g111
g41
tp1940
I0
s(g5
g34
tp1941
I-20
s(g75
g18
tp1942
I0
s(g63
g77
tp1943
I-20
s(g57
g29
tp1944
I-19
s(g67
g17
tp1945
I-20
s(g23
g54
tp1946
I18
s(g4
g63
tp1947
I-20
s(g11
g2
tp1948
I0
s(g48
g67
tp1949
I-20
s(g30
g88
tp1950
I-50
s(g75
g38
tp1951
I11
s(g26
g25
tp1952
I0
s(g48
g5
tp1953
I3
s(g73
g10
tp1954
I-20
s(g52
g63
tp1955
I14
s(g52
g117
tp1956
I-19
s(g10
g63
tp1957
I-19
s(g29
g26
tp1958
I0
s(g10
g7
tp1959
I4
s(g8
g17
tp1960
I3
s(g17
g81
tp1961
I0
s(g5
g38
tp1962
I0
s(g48
g4
tp1963
I-20
s(g41
g70
tp1964
I0
s(g32
g48
tp1965
I18
s(g117
g70
tp1966
I0
s(g41
g63
tp1967
I-6
s(g50
g34
tp1968
I-20
s(g2
g2
tp1969
I40
s(g111
g7
tp1970
I0
s(g117
g81
tp1971
I0
s(g36
g75
tp1972
I-19
s(g18
g88
tp1973
I0
s(g86
g17
tp1974
I0
s(g81
g11
tp1975
I0
s(g61
g73
tp1976
I-20
s(g1
g29
tp1977
I0
s(g44
g26
tp1978
I0
s(g15
g21
tp1979
I0
s(g88
g1
tp1980
I0
s(g113
g17
tp1981
I18
s(g61
g1
tp1982
I0
s(g48
g75
tp1983
I2
s(g38
g29
tp1984
I0
s(g34
g86
tp1985
I-20
s(g15
g73
tp1986
I-20
s(g75
g111
tp1987
I4
s(g63
g4
tp1988
I-20
s(g29
g25
tp1989
I0
s(g38
g93
tp1990
I-19
s(g26
g8
tp1991
I0
s(g10
g111
tp1992
I1
s(g34
g73
tp1993
I5
s(g4
g2
tp1994
I-20
s(g4
g57
tp1995
I-20
s(g13
g73
tp1996
I-20
s(g34
g81
tp1997
I-20
s(g89
g1
tp1998
I-5
s(g81
g77
tp1999
I-20
s(g21
g13
tp2000
I2
s(g111
g17
tp2001
I0
s(g34
g21
tp2002
I-20
s(g52
g21
tp2003
I-19
s(g30
g70
tp2004
I-50
s(g113
g29
tp2005
I0
s(g21
g15
tp2006
I0
s(g54
g4
tp2007
I-20
s(g77
g7
tp2008
I-20
s(g1
g7
tp2009
I0
s(g4
g1
tp2010
I-20
s(g4
g50
tp2011
I-20
s(g93
g30
tp2012
I-50
s(g7
g117
tp2013
I0
s(g117
g38
tp2014
I0
s(g81
g29
tp2015
I14
s(g5
g70
tp2016
I21
s(g20
g26
tp2017
I0
s(g38
g7
tp2018
I3
s(g8
g54
tp2019
I-19
s(g44
g70
tp2020
I0
s(g30
g23
tp2021
I-50
s(g32
g30
tp2022
I-50
s(g20
g54
tp2023
I-19
s(g48
g70
tp2024
I0
s(g57
g25
tp2025
I-19
s(g38
g54
tp2026
I-19
s(g52
g111
tp2027
I-19
s(g17
g2
tp2028
I2
s(g23
g57
tp2029
I13
s(g44
g8
tp2030
I0
s(g54
g75
tp2031
I-19
s(g15
g88
tp2032
I1
s(g70
g10
tp2033
I0
s(g36
g1
tp2034
I0
s(g48
g26
tp2035
I3
s(g7
g13
tp2036
I1
s(g111
g32
tp2037
I2
s(g44
g23
tp2038
I-19
s(g44
g89
tp2039
I-20
s(g36
g13
tp2040
I-19
s(g18
g11
tp2041
I0
s(g4
g10
tp2042
I-20
s(g77
g30
tp2043
I-50
s(g26
g54
tp2044
I-19
s(g117
g52
tp2045
I-19
s(g117
g48
tp2046
I1
s(g13
g61
tp2047
I1
s(g86
g38
tp2048
I0
s(g8
g52
tp2049
I-19
s(g81
g45
tp2050
I-20
s(g29
g81
tp2051
I14
s(g8
g30
tp2052
I-50
s(g93
g89
tp2053
I-20
s(g86
g36
tp2054
I-19
s(g36
g77
tp2055
I-20
s(g63
g50
tp2056
I-19
s(g4
g13
tp2057
I-20
s(g1
g54
tp2058
I0
s(g15
g63
tp2059
I-19
s(g61
g59
tp2060
I1
s(g30
g20
tp2061
I-50
s(g41
g52
tp2062
I-19
s(g48
g61
tp2063
I4
s(g38
g20
tp2064
I0
s(g113
g26
tp2065
I1
s(g73
g2
tp2066
I-20
s(g67
g4
tp2067
I5
s(g26
g89
tp2068
I-20
s(g70
g30
tp2069
I-50
s(g54
g38
tp2070
I-19
s(g5
g21
tp2071
I2
s(g4
g54
tp2072
I-20
s(g5
g86
tp2073
I2
s(g30
g52
tp2074
I-50
s(g32
g15
tp2075
I2
s(g113
g70
tp2076
I2
s(g23
g61
tp2077
I-19
s(g77
g38
tp2078
I-20
s(g48
g8
tp2079
I2
s(g67
g67
tp2080
I10
s(g25
g73
tp2081
I-20
s(g89
g32
tp2082
I-20
s(g38
g50
tp2083
I0
s(g23
g48
tp2084
I-19
s(g45
g54
tp2085
I-20
s(g93
g52
tp2086
I14
s(g38
g89
tp2087
I-20
s(g117
g59
tp2088
I0
s(g20
g50
tp2089
I0
s(g61
g32
tp2090
I1
s(g89
g57
tp2091
I-20
s(g63
g8
tp2092
I-19
s(g21
g23
tp2093
I-19
s(g36
g10
tp2094
I-19
s(g67
g45
tp2095
I5
s(g18
g52
tp2096
I-19
s(g59
g88
tp2097
I0
s(g81
g93
tp2098
I-19
s(g25
g52
tp2099
I-19
s(g2
g77
tp2100
I-20
s(g25
g59
tp2101
I0
s(g32
g63
tp2102
I-19
s(g26
g4
tp2103
I-20
s(g5
g17
tp2104
I1
s(g48
g10
tp2105
I4
s(g20
g73
tp2106
I-20
s(g2
g36
tp2107
I-19
s(g29
g113
tp2108
I0
s(g45
g93
tp2109
I-20
s(g17
g21
tp2110
I0
s(g2
g73
tp2111
I-20
s(g2
g52
tp2112
I-19
s(g61
g57
tp2113
I-19
s(g89
g117
tp2114
I-20
s(g48
g48
tp2115
I40
s(g21
g59
tp2116
I0
s(g7
g113
tp2117
I10
s(g20
g70
tp2118
I9
s(g111
g21
tp2119
I1
s(g117
g25
tp2120
I0
s(g30
g111
tp2121
I-50
s(g4
g45
tp2122
I5
s(g67
g38
tp2123
I-20
s(g21
g17
tp2124
I0
s(g41
g18
tp2125
I10
s(g75
g89
tp2126
I-20
s(g70
g32
tp2127
I14
s(g15
g67
tp2128
I-20
s(g4
g117
tp2129
I-20
s(g32
g13
tp2130
I2
s(g77
g54
tp2131
I-20
s(g8
g44
tp2132
I0
s(g34
g30
tp2133
I-50
s(g59
g67
tp2134
I-20
s(g81
g41
tp2135
I4
s(g45
g73
tp2136
I5
s(g2
g11
tp2137
I0
s(g23
g113
tp2138
I-19
s(g54
g54
tp2139
I20
s(g111
g57
tp2140
I-19
s(g25
g48
tp2141
I2
s(g59
g113
tp2142
I0
s(g86
g32
tp2143
I8
s(g34
g54
tp2144
I-20
s(g44
g113
tp2145
I3
s(g23
g30
tp2146
I-50
s(g93
g93
tp2147
I20
s(g113
g1
tp2148
I0
s(g88
g26
tp2149
I1
s(g36
g117
tp2150
I-19
s(g13
g13
tp2151
I40
s(g113
g81
tp2152
I0
s(g89
g18
tp2153
I-20
s(g44
g2
tp2154
I9
s(g111
g50
tp2155
I0
s(g18
g93
tp2156
I-19
s(g59
g11
tp2157
I0
s(g50
g67
tp2158
I-20
s(g86
g18
tp2159
I0
s(g5
g2
tp2160
I0
s(g70
g29
tp2161
I0
s(g61
g7
tp2162
I8
s(g44
g11
tp2163
I0
s(g1
g21
tp2164
I0
s(g88
g63
tp2165
I-19
s(g8
g1
tp2166
I0
s(g34
g5
tp2167
I-20
s(g5
g23
tp2168
I-19
s(g8
g21
tp2169
I1
s(g57
g54
tp2170
I13
s(g50
g5
tp2171
I0
s(g89
g10
tp2172
I-20
s(g29
g32
tp2173
I0
s(g93
g75
tp2174
I-19
s(g63
g45
tp2175
I-20
s(g38
g88
tp2176
I4
s(g23
g77
tp2177
I-20
s(g2
g111
tp2178
I0
s(g11
g5
tp2179
I11
s(g38
g111
tp2180
I0
s(g34
g7
tp2181
I-20
s(g52
g38
tp2182
I-19
s(g41
g57
tp2183
I-19
s(g45
g11
tp2184
I-20
s(g20
g67
tp2185
I-20
s(g32
g2
tp2186
I4
s(g86
g77
tp2187
I-20
s(g48
g2
tp2188
I0
s(g1
g93
tp2189
I0
s(g11
g77
tp2190
I-20
s(g5
g117
tp2191
I1
s(g77
g18
tp2192
I-20
s(g81
g50
tp2193
I2
s(g117
g34
tp2194
I-20
s(g23
g23
tp2195
I20
s(g11
g7
tp2196
I0
s(g7
g81
tp2197
I0
s(g5
g30
tp2198
I-50
s(g17
g5
tp2199
I1
s(g54
g113
tp2200
I-19
s(g23
g18
tp2201
I-19
s(g57
g81
tp2202
I-19
s(g54
g50
tp2203
I-19
s(g29
g21
tp2204
I0
s(g111
g13
tp2205
I3
s(g8
g73
tp2206
I-20
s(g86
g63
tp2207
I-19
s(g89
g81
tp2208
I-20
s(g2
g81
tp2209
I0
s(g45
g63
tp2210
I-20
s(g117
g2
tp2211
I0
s(g20
g11
tp2212
I12
s(g89
g113
tp2213
I-20
s(g117
g11
tp2214
I0
s(g21
g52
tp2215
I-19
s(g88
g29
tp2216
I0
s(g32
g86
tp2217
I8
s(g63
g26
tp2218
I-19
s(g117
g13
tp2219
I0
s(g18
g23
tp2220
I-19
s(g89
g30
tp2221
I-50
s(g63
g5
tp2222
I-19
s(g23
g32
tp2223
I-19
s(g111
g2
tp2224
I0
s(g111
g54
tp2225
I-19
s(g20
g30
tp2226
I-50
s(g86
g113
tp2227
I0
s(g63
g61
tp2228
I-19
s(g2
g10
tp2229
I1
s(g25
g88
tp2230
I2
s(g5
g81
tp2231
I1
s(g34
g57
tp2232
I-20
s(g88
g5
tp2233
I2
s(g57
g50
tp2234
I-19
s(g50
g18
tp2235
I1
s(g113
g113
tp2236
I40
s(g21
g67
tp2237
I-20
s(g17
g75
tp2238
I1
s(g61
g38
tp2239
I0
s(g48
g44
tp2240
I1
s(g10
g4
tp2241
I-20
s(g29
g15
tp2242
I0
s(g86
g41
tp2243
I0
s(g52
g41
tp2244
I-19
s(g4
g7
tp2245
I-20
s(g113
g86
tp2246
I0
s(g52
g77
tp2247
I-20
s(g88
g70
tp2248
I0
s(g77
g23
tp2249
I-20
s(g89
g38
tp2250
I-20
s(g29
g8
tp2251
I1
s(g21
g70
tp2252
I0
s(g111
g73
tp2253
I-20
s(g25
g38
tp2254
I3
s(g1
g52
tp2255
I0
s(g41
g29
tp2256
I11
s.